
NucleoTest2.elf:     file format elf32-littlearm

Sections:
Idx Name          Size      VMA       LMA       File off  Algn
  0 .isr_vector   000001c8  08000000  08000000  00001000  2**0
                  CONTENTS, ALLOC, LOAD, READONLY, DATA
  1 .text         0000ad3c  080001d0  080001d0  000011d0  2**4
                  CONTENTS, ALLOC, LOAD, READONLY, CODE
  2 .rodata       00002adc  0800af10  0800af10  0000bf10  2**3
                  CONTENTS, ALLOC, LOAD, READONLY, DATA
  3 .ARM.extab    00000000  0800d9ec  0800d9ec  0000f468  2**0
                  CONTENTS, READONLY
  4 .ARM          00000008  0800d9ec  0800d9ec  0000e9ec  2**2
                  CONTENTS, ALLOC, LOAD, READONLY, DATA
  5 .preinit_array 00000000  0800d9f4  0800d9f4  0000f468  2**0
                  CONTENTS, ALLOC, LOAD, DATA
  6 .init_array   00000004  0800d9f4  0800d9f4  0000e9f4  2**2
                  CONTENTS, ALLOC, LOAD, READONLY, DATA
  7 .fini_array   00000004  0800d9f8  0800d9f8  0000e9f8  2**2
                  CONTENTS, ALLOC, LOAD, READONLY, DATA
  8 .data         00000328  20000000  0800d9fc  0000f000  2**2
                  CONTENTS, ALLOC, LOAD, DATA
  9 .RxDecripSection 000000a0  20000328  0800dd24  0000f328  2**2
                  CONTENTS, ALLOC, LOAD, DATA
 10 .TxDecripSection 000000a0  200003c8  0800ddc4  0000f3c8  2**2
                  CONTENTS, ALLOC, LOAD, DATA
 11 .bss          00000e1c  20000468  0800de64  0000f468  2**2
                  ALLOC
 12 ._user_heap_stack 00000604  20001284  0800de64  00010284  2**0
                  ALLOC
 13 .ARM.attributes 00000030  00000000  00000000  0000f468  2**0
                  CONTENTS, READONLY
 14 .debug_info   00020d26  00000000  00000000  0000f498  2**0
                  CONTENTS, READONLY, DEBUGGING, OCTETS
 15 .debug_abbrev 000044ef  00000000  00000000  000301be  2**0
                  CONTENTS, READONLY, DEBUGGING, OCTETS
 16 .debug_aranges 000019e0  00000000  00000000  000346b0  2**3
                  CONTENTS, READONLY, DEBUGGING, OCTETS
 17 .debug_rnglists 000013f3  00000000  00000000  00036090  2**0
                  CONTENTS, READONLY, DEBUGGING, OCTETS
 18 .debug_macro  0002b7e1  00000000  00000000  00037483  2**0
                  CONTENTS, READONLY, DEBUGGING, OCTETS
 19 .debug_line   00021fe6  00000000  00000000  00062c64  2**0
                  CONTENTS, READONLY, DEBUGGING, OCTETS
 20 .debug_str    000fd138  00000000  00000000  00084c4a  2**0
                  CONTENTS, READONLY, DEBUGGING, OCTETS
 21 .comment      00000043  00000000  00000000  00181d82  2**0
                  CONTENTS, READONLY
 22 .debug_frame  00007d34  00000000  00000000  00181dc8  2**2
                  CONTENTS, READONLY, DEBUGGING, OCTETS
 23 .debug_line_str 00000080  00000000  00000000  00189afc  2**0
                  CONTENTS, READONLY, DEBUGGING, OCTETS

Disassembly of section .text:

080001d0 <__do_global_dtors_aux>:
 80001d0:	b510      	push	{r4, lr}
 80001d2:	4c05      	ldr	r4, [pc, #20]	@ (80001e8 <__do_global_dtors_aux+0x18>)
 80001d4:	7823      	ldrb	r3, [r4, #0]
 80001d6:	b933      	cbnz	r3, 80001e6 <__do_global_dtors_aux+0x16>
 80001d8:	4b04      	ldr	r3, [pc, #16]	@ (80001ec <__do_global_dtors_aux+0x1c>)
 80001da:	b113      	cbz	r3, 80001e2 <__do_global_dtors_aux+0x12>
 80001dc:	4804      	ldr	r0, [pc, #16]	@ (80001f0 <__do_global_dtors_aux+0x20>)
 80001de:	f3af 8000 	nop.w
 80001e2:	2301      	movs	r3, #1
 80001e4:	7023      	strb	r3, [r4, #0]
 80001e6:	bd10      	pop	{r4, pc}
 80001e8:	20000468 	.word	0x20000468
 80001ec:	00000000 	.word	0x00000000
 80001f0:	0800aef4 	.word	0x0800aef4

080001f4 <frame_dummy>:
 80001f4:	b508      	push	{r3, lr}
 80001f6:	4b03      	ldr	r3, [pc, #12]	@ (8000204 <frame_dummy+0x10>)
 80001f8:	b11b      	cbz	r3, 8000202 <frame_dummy+0xe>
 80001fa:	4903      	ldr	r1, [pc, #12]	@ (8000208 <frame_dummy+0x14>)
 80001fc:	4803      	ldr	r0, [pc, #12]	@ (800020c <frame_dummy+0x18>)
 80001fe:	f3af 8000 	nop.w
 8000202:	bd08      	pop	{r3, pc}
 8000204:	00000000 	.word	0x00000000
 8000208:	2000046c 	.word	0x2000046c
 800020c:	0800aef4 	.word	0x0800aef4

08000210 <memchr>:
 8000210:	f001 01ff 	and.w	r1, r1, #255	@ 0xff
 8000214:	2a10      	cmp	r2, #16
 8000216:	db2b      	blt.n	8000270 <memchr+0x60>
 8000218:	f010 0f07 	tst.w	r0, #7
 800021c:	d008      	beq.n	8000230 <memchr+0x20>
 800021e:	f810 3b01 	ldrb.w	r3, [r0], #1
 8000222:	3a01      	subs	r2, #1
 8000224:	428b      	cmp	r3, r1
 8000226:	d02d      	beq.n	8000284 <memchr+0x74>
 8000228:	f010 0f07 	tst.w	r0, #7
 800022c:	b342      	cbz	r2, 8000280 <memchr+0x70>
 800022e:	d1f6      	bne.n	800021e <memchr+0xe>
 8000230:	b4f0      	push	{r4, r5, r6, r7}
 8000232:	ea41 2101 	orr.w	r1, r1, r1, lsl #8
 8000236:	ea41 4101 	orr.w	r1, r1, r1, lsl #16
 800023a:	f022 0407 	bic.w	r4, r2, #7
 800023e:	f07f 0700 	mvns.w	r7, #0
 8000242:	2300      	movs	r3, #0
 8000244:	e8f0 5602 	ldrd	r5, r6, [r0], #8
 8000248:	3c08      	subs	r4, #8
 800024a:	ea85 0501 	eor.w	r5, r5, r1
 800024e:	ea86 0601 	eor.w	r6, r6, r1
 8000252:	fa85 f547 	uadd8	r5, r5, r7
 8000256:	faa3 f587 	sel	r5, r3, r7
 800025a:	fa86 f647 	uadd8	r6, r6, r7
 800025e:	faa5 f687 	sel	r6, r5, r7
 8000262:	b98e      	cbnz	r6, 8000288 <memchr+0x78>
 8000264:	d1ee      	bne.n	8000244 <memchr+0x34>
 8000266:	bcf0      	pop	{r4, r5, r6, r7}
 8000268:	f001 01ff 	and.w	r1, r1, #255	@ 0xff
 800026c:	f002 0207 	and.w	r2, r2, #7
 8000270:	b132      	cbz	r2, 8000280 <memchr+0x70>
 8000272:	f810 3b01 	ldrb.w	r3, [r0], #1
 8000276:	3a01      	subs	r2, #1
 8000278:	ea83 0301 	eor.w	r3, r3, r1
 800027c:	b113      	cbz	r3, 8000284 <memchr+0x74>
 800027e:	d1f8      	bne.n	8000272 <memchr+0x62>
 8000280:	2000      	movs	r0, #0
 8000282:	4770      	bx	lr
 8000284:	3801      	subs	r0, #1
 8000286:	4770      	bx	lr
 8000288:	2d00      	cmp	r5, #0
 800028a:	bf06      	itte	eq
 800028c:	4635      	moveq	r5, r6
 800028e:	3803      	subeq	r0, #3
 8000290:	3807      	subne	r0, #7
 8000292:	f015 0f01 	tst.w	r5, #1
 8000296:	d107      	bne.n	80002a8 <memchr+0x98>
 8000298:	3001      	adds	r0, #1
 800029a:	f415 7f80 	tst.w	r5, #256	@ 0x100
 800029e:	bf02      	ittt	eq
 80002a0:	3001      	addeq	r0, #1
 80002a2:	f415 3fc0 	tsteq.w	r5, #98304	@ 0x18000
 80002a6:	3001      	addeq	r0, #1
 80002a8:	bcf0      	pop	{r4, r5, r6, r7}
 80002aa:	3801      	subs	r0, #1
 80002ac:	4770      	bx	lr
 80002ae:	bf00      	nop

080002b0 <strlen>:
 80002b0:	4603      	mov	r3, r0
 80002b2:	f813 2b01 	ldrb.w	r2, [r3], #1
 80002b6:	2a00      	cmp	r2, #0
 80002b8:	d1fb      	bne.n	80002b2 <strlen+0x2>
 80002ba:	1a18      	subs	r0, r3, r0
 80002bc:	3801      	subs	r0, #1
 80002be:	4770      	bx	lr

080002c0 <__aeabi_drsub>:
 80002c0:	f081 4100 	eor.w	r1, r1, #2147483648	@ 0x80000000
 80002c4:	e002      	b.n	80002cc <__adddf3>
 80002c6:	bf00      	nop

080002c8 <__aeabi_dsub>:
 80002c8:	f083 4300 	eor.w	r3, r3, #2147483648	@ 0x80000000

080002cc <__adddf3>:
 80002cc:	b530      	push	{r4, r5, lr}
 80002ce:	ea4f 0441 	mov.w	r4, r1, lsl #1
 80002d2:	ea4f 0543 	mov.w	r5, r3, lsl #1
 80002d6:	ea94 0f05 	teq	r4, r5
 80002da:	bf08      	it	eq
 80002dc:	ea90 0f02 	teqeq	r0, r2
 80002e0:	bf1f      	itttt	ne
 80002e2:	ea54 0c00 	orrsne.w	ip, r4, r0
 80002e6:	ea55 0c02 	orrsne.w	ip, r5, r2
 80002ea:	ea7f 5c64 	mvnsne.w	ip, r4, asr #21
 80002ee:	ea7f 5c65 	mvnsne.w	ip, r5, asr #21
 80002f2:	f000 80e2 	beq.w	80004ba <__adddf3+0x1ee>
 80002f6:	ea4f 5454 	mov.w	r4, r4, lsr #21
 80002fa:	ebd4 5555 	rsbs	r5, r4, r5, lsr #21
 80002fe:	bfb8      	it	lt
 8000300:	426d      	neglt	r5, r5
 8000302:	dd0c      	ble.n	800031e <__adddf3+0x52>
 8000304:	442c      	add	r4, r5
 8000306:	ea80 0202 	eor.w	r2, r0, r2
 800030a:	ea81 0303 	eor.w	r3, r1, r3
 800030e:	ea82 0000 	eor.w	r0, r2, r0
 8000312:	ea83 0101 	eor.w	r1, r3, r1
 8000316:	ea80 0202 	eor.w	r2, r0, r2
 800031a:	ea81 0303 	eor.w	r3, r1, r3
 800031e:	2d36      	cmp	r5, #54	@ 0x36
 8000320:	bf88      	it	hi
 8000322:	bd30      	pophi	{r4, r5, pc}
 8000324:	f011 4f00 	tst.w	r1, #2147483648	@ 0x80000000
 8000328:	ea4f 3101 	mov.w	r1, r1, lsl #12
 800032c:	f44f 1c80 	mov.w	ip, #1048576	@ 0x100000
 8000330:	ea4c 3111 	orr.w	r1, ip, r1, lsr #12
 8000334:	d002      	beq.n	800033c <__adddf3+0x70>
 8000336:	4240      	negs	r0, r0
 8000338:	eb61 0141 	sbc.w	r1, r1, r1, lsl #1
 800033c:	f013 4f00 	tst.w	r3, #2147483648	@ 0x80000000
 8000340:	ea4f 3303 	mov.w	r3, r3, lsl #12
 8000344:	ea4c 3313 	orr.w	r3, ip, r3, lsr #12
 8000348:	d002      	beq.n	8000350 <__adddf3+0x84>
 800034a:	4252      	negs	r2, r2
 800034c:	eb63 0343 	sbc.w	r3, r3, r3, lsl #1
 8000350:	ea94 0f05 	teq	r4, r5
 8000354:	f000 80a7 	beq.w	80004a6 <__adddf3+0x1da>
 8000358:	f1a4 0401 	sub.w	r4, r4, #1
 800035c:	f1d5 0e20 	rsbs	lr, r5, #32
 8000360:	db0d      	blt.n	800037e <__adddf3+0xb2>
 8000362:	fa02 fc0e 	lsl.w	ip, r2, lr
 8000366:	fa22 f205 	lsr.w	r2, r2, r5
 800036a:	1880      	adds	r0, r0, r2
 800036c:	f141 0100 	adc.w	r1, r1, #0
 8000370:	fa03 f20e 	lsl.w	r2, r3, lr
 8000374:	1880      	adds	r0, r0, r2
 8000376:	fa43 f305 	asr.w	r3, r3, r5
 800037a:	4159      	adcs	r1, r3
 800037c:	e00e      	b.n	800039c <__adddf3+0xd0>
 800037e:	f1a5 0520 	sub.w	r5, r5, #32
 8000382:	f10e 0e20 	add.w	lr, lr, #32
 8000386:	2a01      	cmp	r2, #1
 8000388:	fa03 fc0e 	lsl.w	ip, r3, lr
 800038c:	bf28      	it	cs
 800038e:	f04c 0c02 	orrcs.w	ip, ip, #2
 8000392:	fa43 f305 	asr.w	r3, r3, r5
 8000396:	18c0      	adds	r0, r0, r3
 8000398:	eb51 71e3 	adcs.w	r1, r1, r3, asr #31
 800039c:	f001 4500 	and.w	r5, r1, #2147483648	@ 0x80000000
 80003a0:	d507      	bpl.n	80003b2 <__adddf3+0xe6>
 80003a2:	f04f 0e00 	mov.w	lr, #0
 80003a6:	f1dc 0c00 	rsbs	ip, ip, #0
 80003aa:	eb7e 0000 	sbcs.w	r0, lr, r0
 80003ae:	eb6e 0101 	sbc.w	r1, lr, r1
 80003b2:	f5b1 1f80 	cmp.w	r1, #1048576	@ 0x100000
 80003b6:	d31b      	bcc.n	80003f0 <__adddf3+0x124>
 80003b8:	f5b1 1f00 	cmp.w	r1, #2097152	@ 0x200000
 80003bc:	d30c      	bcc.n	80003d8 <__adddf3+0x10c>
 80003be:	0849      	lsrs	r1, r1, #1
 80003c0:	ea5f 0030 	movs.w	r0, r0, rrx
 80003c4:	ea4f 0c3c 	mov.w	ip, ip, rrx
 80003c8:	f104 0401 	add.w	r4, r4, #1
 80003cc:	ea4f 5244 	mov.w	r2, r4, lsl #21
 80003d0:	f512 0f80 	cmn.w	r2, #4194304	@ 0x400000
 80003d4:	f080 809a 	bcs.w	800050c <__adddf3+0x240>
 80003d8:	f1bc 4f00 	cmp.w	ip, #2147483648	@ 0x80000000
 80003dc:	bf08      	it	eq
 80003de:	ea5f 0c50 	movseq.w	ip, r0, lsr #1
 80003e2:	f150 0000 	adcs.w	r0, r0, #0
 80003e6:	eb41 5104 	adc.w	r1, r1, r4, lsl #20
 80003ea:	ea41 0105 	orr.w	r1, r1, r5
 80003ee:	bd30      	pop	{r4, r5, pc}
 80003f0:	ea5f 0c4c 	movs.w	ip, ip, lsl #1
 80003f4:	4140      	adcs	r0, r0
 80003f6:	eb41 0101 	adc.w	r1, r1, r1
 80003fa:	3c01      	subs	r4, #1
 80003fc:	bf28      	it	cs
 80003fe:	f5b1 1f80 	cmpcs.w	r1, #1048576	@ 0x100000
 8000402:	d2e9      	bcs.n	80003d8 <__adddf3+0x10c>
 8000404:	f091 0f00 	teq	r1, #0
 8000408:	bf04      	itt	eq
 800040a:	4601      	moveq	r1, r0
 800040c:	2000      	moveq	r0, #0
 800040e:	fab1 f381 	clz	r3, r1
 8000412:	bf08      	it	eq
 8000414:	3320      	addeq	r3, #32
 8000416:	f1a3 030b 	sub.w	r3, r3, #11
 800041a:	f1b3 0220 	subs.w	r2, r3, #32
 800041e:	da0c      	bge.n	800043a <__adddf3+0x16e>
 8000420:	320c      	adds	r2, #12
 8000422:	dd08      	ble.n	8000436 <__adddf3+0x16a>
 8000424:	f102 0c14 	add.w	ip, r2, #20
 8000428:	f1c2 020c 	rsb	r2, r2, #12
 800042c:	fa01 f00c 	lsl.w	r0, r1, ip
 8000430:	fa21 f102 	lsr.w	r1, r1, r2
 8000434:	e00c      	b.n	8000450 <__adddf3+0x184>
 8000436:	f102 0214 	add.w	r2, r2, #20
 800043a:	bfd8      	it	le
 800043c:	f1c2 0c20 	rsble	ip, r2, #32
 8000440:	fa01 f102 	lsl.w	r1, r1, r2
 8000444:	fa20 fc0c 	lsr.w	ip, r0, ip
 8000448:	bfdc      	itt	le
 800044a:	ea41 010c 	orrle.w	r1, r1, ip
 800044e:	4090      	lslle	r0, r2
 8000450:	1ae4      	subs	r4, r4, r3
 8000452:	bfa2      	ittt	ge
 8000454:	eb01 5104 	addge.w	r1, r1, r4, lsl #20
 8000458:	4329      	orrge	r1, r5
 800045a:	bd30      	popge	{r4, r5, pc}
 800045c:	ea6f 0404 	mvn.w	r4, r4
 8000460:	3c1f      	subs	r4, #31
 8000462:	da1c      	bge.n	800049e <__adddf3+0x1d2>
 8000464:	340c      	adds	r4, #12
 8000466:	dc0e      	bgt.n	8000486 <__adddf3+0x1ba>
 8000468:	f104 0414 	add.w	r4, r4, #20
 800046c:	f1c4 0220 	rsb	r2, r4, #32
 8000470:	fa20 f004 	lsr.w	r0, r0, r4
 8000474:	fa01 f302 	lsl.w	r3, r1, r2
 8000478:	ea40 0003 	orr.w	r0, r0, r3
 800047c:	fa21 f304 	lsr.w	r3, r1, r4
 8000480:	ea45 0103 	orr.w	r1, r5, r3
 8000484:	bd30      	pop	{r4, r5, pc}
 8000486:	f1c4 040c 	rsb	r4, r4, #12
 800048a:	f1c4 0220 	rsb	r2, r4, #32
 800048e:	fa20 f002 	lsr.w	r0, r0, r2
 8000492:	fa01 f304 	lsl.w	r3, r1, r4
 8000496:	ea40 0003 	orr.w	r0, r0, r3
 800049a:	4629      	mov	r1, r5
 800049c:	bd30      	pop	{r4, r5, pc}
 800049e:	fa21 f004 	lsr.w	r0, r1, r4
 80004a2:	4629      	mov	r1, r5
 80004a4:	bd30      	pop	{r4, r5, pc}
 80004a6:	f094 0f00 	teq	r4, #0
 80004aa:	f483 1380 	eor.w	r3, r3, #1048576	@ 0x100000
 80004ae:	bf06      	itte	eq
 80004b0:	f481 1180 	eoreq.w	r1, r1, #1048576	@ 0x100000
 80004b4:	3401      	addeq	r4, #1
 80004b6:	3d01      	subne	r5, #1
 80004b8:	e74e      	b.n	8000358 <__adddf3+0x8c>
 80004ba:	ea7f 5c64 	mvns.w	ip, r4, asr #21
 80004be:	bf18      	it	ne
 80004c0:	ea7f 5c65 	mvnsne.w	ip, r5, asr #21
 80004c4:	d029      	beq.n	800051a <__adddf3+0x24e>
 80004c6:	ea94 0f05 	teq	r4, r5
 80004ca:	bf08      	it	eq
 80004cc:	ea90 0f02 	teqeq	r0, r2
 80004d0:	d005      	beq.n	80004de <__adddf3+0x212>
 80004d2:	ea54 0c00 	orrs.w	ip, r4, r0
 80004d6:	bf04      	itt	eq
 80004d8:	4619      	moveq	r1, r3
 80004da:	4610      	moveq	r0, r2
 80004dc:	bd30      	pop	{r4, r5, pc}
 80004de:	ea91 0f03 	teq	r1, r3
 80004e2:	bf1e      	ittt	ne
 80004e4:	2100      	movne	r1, #0
 80004e6:	2000      	movne	r0, #0
 80004e8:	bd30      	popne	{r4, r5, pc}
 80004ea:	ea5f 5c54 	movs.w	ip, r4, lsr #21
 80004ee:	d105      	bne.n	80004fc <__adddf3+0x230>
 80004f0:	0040      	lsls	r0, r0, #1
 80004f2:	4149      	adcs	r1, r1
 80004f4:	bf28      	it	cs
 80004f6:	f041 4100 	orrcs.w	r1, r1, #2147483648	@ 0x80000000
 80004fa:	bd30      	pop	{r4, r5, pc}
 80004fc:	f514 0480 	adds.w	r4, r4, #4194304	@ 0x400000
 8000500:	bf3c      	itt	cc
 8000502:	f501 1180 	addcc.w	r1, r1, #1048576	@ 0x100000
 8000506:	bd30      	popcc	{r4, r5, pc}
 8000508:	f001 4500 	and.w	r5, r1, #2147483648	@ 0x80000000
 800050c:	f045 41fe 	orr.w	r1, r5, #2130706432	@ 0x7f000000
 8000510:	f441 0170 	orr.w	r1, r1, #15728640	@ 0xf00000
 8000514:	f04f 0000 	mov.w	r0, #0
 8000518:	bd30      	pop	{r4, r5, pc}
 800051a:	ea7f 5c64 	mvns.w	ip, r4, asr #21
 800051e:	bf1a      	itte	ne
 8000520:	4619      	movne	r1, r3
 8000522:	4610      	movne	r0, r2
 8000524:	ea7f 5c65 	mvnseq.w	ip, r5, asr #21
 8000528:	bf1c      	itt	ne
 800052a:	460b      	movne	r3, r1
 800052c:	4602      	movne	r2, r0
 800052e:	ea50 3401 	orrs.w	r4, r0, r1, lsl #12
 8000532:	bf06      	itte	eq
 8000534:	ea52 3503 	orrseq.w	r5, r2, r3, lsl #12
 8000538:	ea91 0f03 	teqeq	r1, r3
 800053c:	f441 2100 	orrne.w	r1, r1, #524288	@ 0x80000
 8000540:	bd30      	pop	{r4, r5, pc}
 8000542:	bf00      	nop

08000544 <__aeabi_ui2d>:
 8000544:	f090 0f00 	teq	r0, #0
 8000548:	bf04      	itt	eq
 800054a:	2100      	moveq	r1, #0
 800054c:	4770      	bxeq	lr
 800054e:	b530      	push	{r4, r5, lr}
 8000550:	f44f 6480 	mov.w	r4, #1024	@ 0x400
 8000554:	f104 0432 	add.w	r4, r4, #50	@ 0x32
 8000558:	f04f 0500 	mov.w	r5, #0
 800055c:	f04f 0100 	mov.w	r1, #0
 8000560:	e750      	b.n	8000404 <__adddf3+0x138>
 8000562:	bf00      	nop

08000564 <__aeabi_i2d>:
 8000564:	f090 0f00 	teq	r0, #0
 8000568:	bf04      	itt	eq
 800056a:	2100      	moveq	r1, #0
 800056c:	4770      	bxeq	lr
 800056e:	b530      	push	{r4, r5, lr}
 8000570:	f44f 6480 	mov.w	r4, #1024	@ 0x400
 8000574:	f104 0432 	add.w	r4, r4, #50	@ 0x32
 8000578:	f010 4500 	ands.w	r5, r0, #2147483648	@ 0x80000000
 800057c:	bf48      	it	mi
 800057e:	4240      	negmi	r0, r0
 8000580:	f04f 0100 	mov.w	r1, #0
 8000584:	e73e      	b.n	8000404 <__adddf3+0x138>
 8000586:	bf00      	nop

08000588 <__aeabi_f2d>:
 8000588:	0042      	lsls	r2, r0, #1
 800058a:	ea4f 01e2 	mov.w	r1, r2, asr #3
 800058e:	ea4f 0131 	mov.w	r1, r1, rrx
 8000592:	ea4f 7002 	mov.w	r0, r2, lsl #28
 8000596:	bf1f      	itttt	ne
 8000598:	f012 437f 	andsne.w	r3, r2, #4278190080	@ 0xff000000
 800059c:	f093 4f7f 	teqne	r3, #4278190080	@ 0xff000000
 80005a0:	f081 5160 	eorne.w	r1, r1, #939524096	@ 0x38000000
 80005a4:	4770      	bxne	lr
 80005a6:	f032 427f 	bics.w	r2, r2, #4278190080	@ 0xff000000
 80005aa:	bf08      	it	eq
 80005ac:	4770      	bxeq	lr
 80005ae:	f093 4f7f 	teq	r3, #4278190080	@ 0xff000000
 80005b2:	bf04      	itt	eq
 80005b4:	f441 2100 	orreq.w	r1, r1, #524288	@ 0x80000
 80005b8:	4770      	bxeq	lr
 80005ba:	b530      	push	{r4, r5, lr}
 80005bc:	f44f 7460 	mov.w	r4, #896	@ 0x380
 80005c0:	f001 4500 	and.w	r5, r1, #2147483648	@ 0x80000000
 80005c4:	f021 4100 	bic.w	r1, r1, #2147483648	@ 0x80000000
 80005c8:	e71c      	b.n	8000404 <__adddf3+0x138>
 80005ca:	bf00      	nop

080005cc <__aeabi_ul2d>:
 80005cc:	ea50 0201 	orrs.w	r2, r0, r1
 80005d0:	bf08      	it	eq
 80005d2:	4770      	bxeq	lr
 80005d4:	b530      	push	{r4, r5, lr}
 80005d6:	f04f 0500 	mov.w	r5, #0
 80005da:	e00a      	b.n	80005f2 <__aeabi_l2d+0x16>

080005dc <__aeabi_l2d>:
 80005dc:	ea50 0201 	orrs.w	r2, r0, r1
 80005e0:	bf08      	it	eq
 80005e2:	4770      	bxeq	lr
 80005e4:	b530      	push	{r4, r5, lr}
 80005e6:	f011 4500 	ands.w	r5, r1, #2147483648	@ 0x80000000
 80005ea:	d502      	bpl.n	80005f2 <__aeabi_l2d+0x16>
 80005ec:	4240      	negs	r0, r0
 80005ee:	eb61 0141 	sbc.w	r1, r1, r1, lsl #1
 80005f2:	f44f 6480 	mov.w	r4, #1024	@ 0x400
 80005f6:	f104 0432 	add.w	r4, r4, #50	@ 0x32
 80005fa:	ea5f 5c91 	movs.w	ip, r1, lsr #22
 80005fe:	f43f aed8 	beq.w	80003b2 <__adddf3+0xe6>
 8000602:	f04f 0203 	mov.w	r2, #3
 8000606:	ea5f 0cdc 	movs.w	ip, ip, lsr #3
 800060a:	bf18      	it	ne
 800060c:	3203      	addne	r2, #3
 800060e:	ea5f 0cdc 	movs.w	ip, ip, lsr #3
 8000612:	bf18      	it	ne
 8000614:	3203      	addne	r2, #3
 8000616:	eb02 02dc 	add.w	r2, r2, ip, lsr #3
 800061a:	f1c2 0320 	rsb	r3, r2, #32
 800061e:	fa00 fc03 	lsl.w	ip, r0, r3
 8000622:	fa20 f002 	lsr.w	r0, r0, r2
 8000626:	fa01 fe03 	lsl.w	lr, r1, r3
 800062a:	ea40 000e 	orr.w	r0, r0, lr
 800062e:	fa21 f102 	lsr.w	r1, r1, r2
 8000632:	4414      	add	r4, r2
 8000634:	e6bd      	b.n	80003b2 <__adddf3+0xe6>
 8000636:	bf00      	nop

08000638 <__aeabi_dmul>:
 8000638:	b570      	push	{r4, r5, r6, lr}
 800063a:	f04f 0cff 	mov.w	ip, #255	@ 0xff
 800063e:	f44c 6ce0 	orr.w	ip, ip, #1792	@ 0x700
 8000642:	ea1c 5411 	ands.w	r4, ip, r1, lsr #20
 8000646:	bf1d      	ittte	ne
 8000648:	ea1c 5513 	andsne.w	r5, ip, r3, lsr #20
 800064c:	ea94 0f0c 	teqne	r4, ip
 8000650:	ea95 0f0c 	teqne	r5, ip
 8000654:	f000 f8de 	bleq	8000814 <__aeabi_dmul+0x1dc>
 8000658:	442c      	add	r4, r5
 800065a:	ea81 0603 	eor.w	r6, r1, r3
 800065e:	ea21 514c 	bic.w	r1, r1, ip, lsl #21
 8000662:	ea23 534c 	bic.w	r3, r3, ip, lsl #21
 8000666:	ea50 3501 	orrs.w	r5, r0, r1, lsl #12
 800066a:	bf18      	it	ne
 800066c:	ea52 3503 	orrsne.w	r5, r2, r3, lsl #12
 8000670:	f441 1180 	orr.w	r1, r1, #1048576	@ 0x100000
 8000674:	f443 1380 	orr.w	r3, r3, #1048576	@ 0x100000
 8000678:	d038      	beq.n	80006ec <__aeabi_dmul+0xb4>
 800067a:	fba0 ce02 	umull	ip, lr, r0, r2
 800067e:	f04f 0500 	mov.w	r5, #0
 8000682:	fbe1 e502 	umlal	lr, r5, r1, r2
 8000686:	f006 4200 	and.w	r2, r6, #2147483648	@ 0x80000000
 800068a:	fbe0 e503 	umlal	lr, r5, r0, r3
 800068e:	f04f 0600 	mov.w	r6, #0
 8000692:	fbe1 5603 	umlal	r5, r6, r1, r3
 8000696:	f09c 0f00 	teq	ip, #0
 800069a:	bf18      	it	ne
 800069c:	f04e 0e01 	orrne.w	lr, lr, #1
 80006a0:	f1a4 04ff 	sub.w	r4, r4, #255	@ 0xff
 80006a4:	f5b6 7f00 	cmp.w	r6, #512	@ 0x200
 80006a8:	f564 7440 	sbc.w	r4, r4, #768	@ 0x300
 80006ac:	d204      	bcs.n	80006b8 <__aeabi_dmul+0x80>
 80006ae:	ea5f 0e4e 	movs.w	lr, lr, lsl #1
 80006b2:	416d      	adcs	r5, r5
 80006b4:	eb46 0606 	adc.w	r6, r6, r6
 80006b8:	ea42 21c6 	orr.w	r1, r2, r6, lsl #11
 80006bc:	ea41 5155 	orr.w	r1, r1, r5, lsr #21
 80006c0:	ea4f 20c5 	mov.w	r0, r5, lsl #11
 80006c4:	ea40 505e 	orr.w	r0, r0, lr, lsr #21
 80006c8:	ea4f 2ece 	mov.w	lr, lr, lsl #11
 80006cc:	f1b4 0cfd 	subs.w	ip, r4, #253	@ 0xfd
 80006d0:	bf88      	it	hi
 80006d2:	f5bc 6fe0 	cmphi.w	ip, #1792	@ 0x700
 80006d6:	d81e      	bhi.n	8000716 <__aeabi_dmul+0xde>
 80006d8:	f1be 4f00 	cmp.w	lr, #2147483648	@ 0x80000000
 80006dc:	bf08      	it	eq
 80006de:	ea5f 0e50 	movseq.w	lr, r0, lsr #1
 80006e2:	f150 0000 	adcs.w	r0, r0, #0
 80006e6:	eb41 5104 	adc.w	r1, r1, r4, lsl #20
 80006ea:	bd70      	pop	{r4, r5, r6, pc}
 80006ec:	f006 4600 	and.w	r6, r6, #2147483648	@ 0x80000000
 80006f0:	ea46 0101 	orr.w	r1, r6, r1
 80006f4:	ea40 0002 	orr.w	r0, r0, r2
 80006f8:	ea81 0103 	eor.w	r1, r1, r3
 80006fc:	ebb4 045c 	subs.w	r4, r4, ip, lsr #1
 8000700:	bfc2      	ittt	gt
 8000702:	ebd4 050c 	rsbsgt	r5, r4, ip
 8000706:	ea41 5104 	orrgt.w	r1, r1, r4, lsl #20
 800070a:	bd70      	popgt	{r4, r5, r6, pc}
 800070c:	f441 1180 	orr.w	r1, r1, #1048576	@ 0x100000
 8000710:	f04f 0e00 	mov.w	lr, #0
 8000714:	3c01      	subs	r4, #1
 8000716:	f300 80ab 	bgt.w	8000870 <__aeabi_dmul+0x238>
 800071a:	f114 0f36 	cmn.w	r4, #54	@ 0x36
 800071e:	bfde      	ittt	le
 8000720:	2000      	movle	r0, #0
 8000722:	f001 4100 	andle.w	r1, r1, #2147483648	@ 0x80000000
 8000726:	bd70      	pople	{r4, r5, r6, pc}
 8000728:	f1c4 0400 	rsb	r4, r4, #0
 800072c:	3c20      	subs	r4, #32
 800072e:	da35      	bge.n	800079c <__aeabi_dmul+0x164>
 8000730:	340c      	adds	r4, #12
 8000732:	dc1b      	bgt.n	800076c <__aeabi_dmul+0x134>
 8000734:	f104 0414 	add.w	r4, r4, #20
 8000738:	f1c4 0520 	rsb	r5, r4, #32
 800073c:	fa00 f305 	lsl.w	r3, r0, r5
 8000740:	fa20 f004 	lsr.w	r0, r0, r4
 8000744:	fa01 f205 	lsl.w	r2, r1, r5
 8000748:	ea40 0002 	orr.w	r0, r0, r2
 800074c:	f001 4200 	and.w	r2, r1, #2147483648	@ 0x80000000
 8000750:	f021 4100 	bic.w	r1, r1, #2147483648	@ 0x80000000
 8000754:	eb10 70d3 	adds.w	r0, r0, r3, lsr #31
 8000758:	fa21 f604 	lsr.w	r6, r1, r4
 800075c:	eb42 0106 	adc.w	r1, r2, r6
 8000760:	ea5e 0e43 	orrs.w	lr, lr, r3, lsl #1
 8000764:	bf08      	it	eq
 8000766:	ea20 70d3 	biceq.w	r0, r0, r3, lsr #31
 800076a:	bd70      	pop	{r4, r5, r6, pc}
 800076c:	f1c4 040c 	rsb	r4, r4, #12
 8000770:	f1c4 0520 	rsb	r5, r4, #32
 8000774:	fa00 f304 	lsl.w	r3, r0, r4
 8000778:	fa20 f005 	lsr.w	r0, r0, r5
 800077c:	fa01 f204 	lsl.w	r2, r1, r4
 8000780:	ea40 0002 	orr.w	r0, r0, r2
 8000784:	f001 4100 	and.w	r1, r1, #2147483648	@ 0x80000000
 8000788:	eb10 70d3 	adds.w	r0, r0, r3, lsr #31
 800078c:	f141 0100 	adc.w	r1, r1, #0
 8000790:	ea5e 0e43 	orrs.w	lr, lr, r3, lsl #1
 8000794:	bf08      	it	eq
 8000796:	ea20 70d3 	biceq.w	r0, r0, r3, lsr #31
 800079a:	bd70      	pop	{r4, r5, r6, pc}
 800079c:	f1c4 0520 	rsb	r5, r4, #32
 80007a0:	fa00 f205 	lsl.w	r2, r0, r5
 80007a4:	ea4e 0e02 	orr.w	lr, lr, r2
 80007a8:	fa20 f304 	lsr.w	r3, r0, r4
 80007ac:	fa01 f205 	lsl.w	r2, r1, r5
 80007b0:	ea43 0302 	orr.w	r3, r3, r2
 80007b4:	fa21 f004 	lsr.w	r0, r1, r4
 80007b8:	f001 4100 	and.w	r1, r1, #2147483648	@ 0x80000000
 80007bc:	fa21 f204 	lsr.w	r2, r1, r4
 80007c0:	ea20 0002 	bic.w	r0, r0, r2
 80007c4:	eb00 70d3 	add.w	r0, r0, r3, lsr #31
 80007c8:	ea5e 0e43 	orrs.w	lr, lr, r3, lsl #1
 80007cc:	bf08      	it	eq
 80007ce:	ea20 70d3 	biceq.w	r0, r0, r3, lsr #31
 80007d2:	bd70      	pop	{r4, r5, r6, pc}
 80007d4:	f094 0f00 	teq	r4, #0
 80007d8:	d10f      	bne.n	80007fa <__aeabi_dmul+0x1c2>
 80007da:	f001 4600 	and.w	r6, r1, #2147483648	@ 0x80000000
 80007de:	0040      	lsls	r0, r0, #1
 80007e0:	eb41 0101 	adc.w	r1, r1, r1
 80007e4:	f411 1f80 	tst.w	r1, #1048576	@ 0x100000
 80007e8:	bf08      	it	eq
 80007ea:	3c01      	subeq	r4, #1
 80007ec:	d0f7      	beq.n	80007de <__aeabi_dmul+0x1a6>
 80007ee:	ea41 0106 	orr.w	r1, r1, r6
 80007f2:	f095 0f00 	teq	r5, #0
 80007f6:	bf18      	it	ne
 80007f8:	4770      	bxne	lr
 80007fa:	f003 4600 	and.w	r6, r3, #2147483648	@ 0x80000000
 80007fe:	0052      	lsls	r2, r2, #1
 8000800:	eb43 0303 	adc.w	r3, r3, r3
 8000804:	f413 1f80 	tst.w	r3, #1048576	@ 0x100000
 8000808:	bf08      	it	eq
 800080a:	3d01      	subeq	r5, #1
 800080c:	d0f7      	beq.n	80007fe <__aeabi_dmul+0x1c6>
 800080e:	ea43 0306 	orr.w	r3, r3, r6
 8000812:	4770      	bx	lr
 8000814:	ea94 0f0c 	teq	r4, ip
 8000818:	ea0c 5513 	and.w	r5, ip, r3, lsr #20
 800081c:	bf18      	it	ne
 800081e:	ea95 0f0c 	teqne	r5, ip
 8000822:	d00c      	beq.n	800083e <__aeabi_dmul+0x206>
 8000824:	ea50 0641 	orrs.w	r6, r0, r1, lsl #1
 8000828:	bf18      	it	ne
 800082a:	ea52 0643 	orrsne.w	r6, r2, r3, lsl #1
 800082e:	d1d1      	bne.n	80007d4 <__aeabi_dmul+0x19c>
 8000830:	ea81 0103 	eor.w	r1, r1, r3
 8000834:	f001 4100 	and.w	r1, r1, #2147483648	@ 0x80000000
 8000838:	f04f 0000 	mov.w	r0, #0
 800083c:	bd70      	pop	{r4, r5, r6, pc}
 800083e:	ea50 0641 	orrs.w	r6, r0, r1, lsl #1
 8000842:	bf06      	itte	eq
 8000844:	4610      	moveq	r0, r2
 8000846:	4619      	moveq	r1, r3
 8000848:	ea52 0643 	orrsne.w	r6, r2, r3, lsl #1
 800084c:	d019      	beq.n	8000882 <__aeabi_dmul+0x24a>
 800084e:	ea94 0f0c 	teq	r4, ip
 8000852:	d102      	bne.n	800085a <__aeabi_dmul+0x222>
 8000854:	ea50 3601 	orrs.w	r6, r0, r1, lsl #12
 8000858:	d113      	bne.n	8000882 <__aeabi_dmul+0x24a>
 800085a:	ea95 0f0c 	teq	r5, ip
 800085e:	d105      	bne.n	800086c <__aeabi_dmul+0x234>
 8000860:	ea52 3603 	orrs.w	r6, r2, r3, lsl #12
 8000864:	bf1c      	itt	ne
 8000866:	4610      	movne	r0, r2
 8000868:	4619      	movne	r1, r3
 800086a:	d10a      	bne.n	8000882 <__aeabi_dmul+0x24a>
 800086c:	ea81 0103 	eor.w	r1, r1, r3
 8000870:	f001 4100 	and.w	r1, r1, #2147483648	@ 0x80000000
 8000874:	f041 41fe 	orr.w	r1, r1, #2130706432	@ 0x7f000000
 8000878:	f441 0170 	orr.w	r1, r1, #15728640	@ 0xf00000
 800087c:	f04f 0000 	mov.w	r0, #0
 8000880:	bd70      	pop	{r4, r5, r6, pc}
 8000882:	f041 41fe 	orr.w	r1, r1, #2130706432	@ 0x7f000000
 8000886:	f441 0178 	orr.w	r1, r1, #16252928	@ 0xf80000
 800088a:	bd70      	pop	{r4, r5, r6, pc}

0800088c <__aeabi_ddiv>:
 800088c:	b570      	push	{r4, r5, r6, lr}
 800088e:	f04f 0cff 	mov.w	ip, #255	@ 0xff
 8000892:	f44c 6ce0 	orr.w	ip, ip, #1792	@ 0x700
 8000896:	ea1c 5411 	ands.w	r4, ip, r1, lsr #20
 800089a:	bf1d      	ittte	ne
 800089c:	ea1c 5513 	andsne.w	r5, ip, r3, lsr #20
 80008a0:	ea94 0f0c 	teqne	r4, ip
 80008a4:	ea95 0f0c 	teqne	r5, ip
 80008a8:	f000 f8a7 	bleq	80009fa <__aeabi_ddiv+0x16e>
 80008ac:	eba4 0405 	sub.w	r4, r4, r5
 80008b0:	ea81 0e03 	eor.w	lr, r1, r3
 80008b4:	ea52 3503 	orrs.w	r5, r2, r3, lsl #12
 80008b8:	ea4f 3101 	mov.w	r1, r1, lsl #12
 80008bc:	f000 8088 	beq.w	80009d0 <__aeabi_ddiv+0x144>
 80008c0:	ea4f 3303 	mov.w	r3, r3, lsl #12
 80008c4:	f04f 5580 	mov.w	r5, #268435456	@ 0x10000000
 80008c8:	ea45 1313 	orr.w	r3, r5, r3, lsr #4
 80008cc:	ea43 6312 	orr.w	r3, r3, r2, lsr #24
 80008d0:	ea4f 2202 	mov.w	r2, r2, lsl #8
 80008d4:	ea45 1511 	orr.w	r5, r5, r1, lsr #4
 80008d8:	ea45 6510 	orr.w	r5, r5, r0, lsr #24
 80008dc:	ea4f 2600 	mov.w	r6, r0, lsl #8
 80008e0:	f00e 4100 	and.w	r1, lr, #2147483648	@ 0x80000000
 80008e4:	429d      	cmp	r5, r3
 80008e6:	bf08      	it	eq
 80008e8:	4296      	cmpeq	r6, r2
 80008ea:	f144 04fd 	adc.w	r4, r4, #253	@ 0xfd
 80008ee:	f504 7440 	add.w	r4, r4, #768	@ 0x300
 80008f2:	d202      	bcs.n	80008fa <__aeabi_ddiv+0x6e>
 80008f4:	085b      	lsrs	r3, r3, #1
 80008f6:	ea4f 0232 	mov.w	r2, r2, rrx
 80008fa:	1ab6      	subs	r6, r6, r2
 80008fc:	eb65 0503 	sbc.w	r5, r5, r3
 8000900:	085b      	lsrs	r3, r3, #1
 8000902:	ea4f 0232 	mov.w	r2, r2, rrx
 8000906:	f44f 1080 	mov.w	r0, #1048576	@ 0x100000
 800090a:	f44f 2c00 	mov.w	ip, #524288	@ 0x80000
 800090e:	ebb6 0e02 	subs.w	lr, r6, r2
 8000912:	eb75 0e03 	sbcs.w	lr, r5, r3
 8000916:	bf22      	ittt	cs
 8000918:	1ab6      	subcs	r6, r6, r2
 800091a:	4675      	movcs	r5, lr
 800091c:	ea40 000c 	orrcs.w	r0, r0, ip
 8000920:	085b      	lsrs	r3, r3, #1
 8000922:	ea4f 0232 	mov.w	r2, r2, rrx
 8000926:	ebb6 0e02 	subs.w	lr, r6, r2
 800092a:	eb75 0e03 	sbcs.w	lr, r5, r3
 800092e:	bf22      	ittt	cs
 8000930:	1ab6      	subcs	r6, r6, r2
 8000932:	4675      	movcs	r5, lr
 8000934:	ea40 005c 	orrcs.w	r0, r0, ip, lsr #1
 8000938:	085b      	lsrs	r3, r3, #1
 800093a:	ea4f 0232 	mov.w	r2, r2, rrx
 800093e:	ebb6 0e02 	subs.w	lr, r6, r2
 8000942:	eb75 0e03 	sbcs.w	lr, r5, r3
 8000946:	bf22      	ittt	cs
 8000948:	1ab6      	subcs	r6, r6, r2
 800094a:	4675      	movcs	r5, lr
 800094c:	ea40 009c 	orrcs.w	r0, r0, ip, lsr #2
 8000950:	085b      	lsrs	r3, r3, #1
 8000952:	ea4f 0232 	mov.w	r2, r2, rrx
 8000956:	ebb6 0e02 	subs.w	lr, r6, r2
 800095a:	eb75 0e03 	sbcs.w	lr, r5, r3
 800095e:	bf22      	ittt	cs
 8000960:	1ab6      	subcs	r6, r6, r2
 8000962:	4675      	movcs	r5, lr
 8000964:	ea40 00dc 	orrcs.w	r0, r0, ip, lsr #3
 8000968:	ea55 0e06 	orrs.w	lr, r5, r6
 800096c:	d018      	beq.n	80009a0 <__aeabi_ddiv+0x114>
 800096e:	ea4f 1505 	mov.w	r5, r5, lsl #4
 8000972:	ea45 7516 	orr.w	r5, r5, r6, lsr #28
 8000976:	ea4f 1606 	mov.w	r6, r6, lsl #4
 800097a:	ea4f 03c3 	mov.w	r3, r3, lsl #3
 800097e:	ea43 7352 	orr.w	r3, r3, r2, lsr #29
 8000982:	ea4f 02c2 	mov.w	r2, r2, lsl #3
 8000986:	ea5f 1c1c 	movs.w	ip, ip, lsr #4
 800098a:	d1c0      	bne.n	800090e <__aeabi_ddiv+0x82>
 800098c:	f411 1f80 	tst.w	r1, #1048576	@ 0x100000
 8000990:	d10b      	bne.n	80009aa <__aeabi_ddiv+0x11e>
 8000992:	ea41 0100 	orr.w	r1, r1, r0
 8000996:	f04f 0000 	mov.w	r0, #0
 800099a:	f04f 4c00 	mov.w	ip, #2147483648	@ 0x80000000
 800099e:	e7b6      	b.n	800090e <__aeabi_ddiv+0x82>
 80009a0:	f411 1f80 	tst.w	r1, #1048576	@ 0x100000
 80009a4:	bf04      	itt	eq
 80009a6:	4301      	orreq	r1, r0
 80009a8:	2000      	moveq	r0, #0
 80009aa:	f1b4 0cfd 	subs.w	ip, r4, #253	@ 0xfd
 80009ae:	bf88      	it	hi
 80009b0:	f5bc 6fe0 	cmphi.w	ip, #1792	@ 0x700
 80009b4:	f63f aeaf 	bhi.w	8000716 <__aeabi_dmul+0xde>
 80009b8:	ebb5 0c03 	subs.w	ip, r5, r3
 80009bc:	bf04      	itt	eq
 80009be:	ebb6 0c02 	subseq.w	ip, r6, r2
 80009c2:	ea5f 0c50 	movseq.w	ip, r0, lsr #1
 80009c6:	f150 0000 	adcs.w	r0, r0, #0
 80009ca:	eb41 5104 	adc.w	r1, r1, r4, lsl #20
 80009ce:	bd70      	pop	{r4, r5, r6, pc}
 80009d0:	f00e 4e00 	and.w	lr, lr, #2147483648	@ 0x80000000
 80009d4:	ea4e 3111 	orr.w	r1, lr, r1, lsr #12
 80009d8:	eb14 045c 	adds.w	r4, r4, ip, lsr #1
 80009dc:	bfc2      	ittt	gt
 80009de:	ebd4 050c 	rsbsgt	r5, r4, ip
 80009e2:	ea41 5104 	orrgt.w	r1, r1, r4, lsl #20
 80009e6:	bd70      	popgt	{r4, r5, r6, pc}
 80009e8:	f441 1180 	orr.w	r1, r1, #1048576	@ 0x100000
 80009ec:	f04f 0e00 	mov.w	lr, #0
 80009f0:	3c01      	subs	r4, #1
 80009f2:	e690      	b.n	8000716 <__aeabi_dmul+0xde>
 80009f4:	ea45 0e06 	orr.w	lr, r5, r6
 80009f8:	e68d      	b.n	8000716 <__aeabi_dmul+0xde>
 80009fa:	ea0c 5513 	and.w	r5, ip, r3, lsr #20
 80009fe:	ea94 0f0c 	teq	r4, ip
 8000a02:	bf08      	it	eq
 8000a04:	ea95 0f0c 	teqeq	r5, ip
 8000a08:	f43f af3b 	beq.w	8000882 <__aeabi_dmul+0x24a>
 8000a0c:	ea94 0f0c 	teq	r4, ip
 8000a10:	d10a      	bne.n	8000a28 <__aeabi_ddiv+0x19c>
 8000a12:	ea50 3401 	orrs.w	r4, r0, r1, lsl #12
 8000a16:	f47f af34 	bne.w	8000882 <__aeabi_dmul+0x24a>
 8000a1a:	ea95 0f0c 	teq	r5, ip
 8000a1e:	f47f af25 	bne.w	800086c <__aeabi_dmul+0x234>
 8000a22:	4610      	mov	r0, r2
 8000a24:	4619      	mov	r1, r3
 8000a26:	e72c      	b.n	8000882 <__aeabi_dmul+0x24a>
 8000a28:	ea95 0f0c 	teq	r5, ip
 8000a2c:	d106      	bne.n	8000a3c <__aeabi_ddiv+0x1b0>
 8000a2e:	ea52 3503 	orrs.w	r5, r2, r3, lsl #12
 8000a32:	f43f aefd 	beq.w	8000830 <__aeabi_dmul+0x1f8>
 8000a36:	4610      	mov	r0, r2
 8000a38:	4619      	mov	r1, r3
 8000a3a:	e722      	b.n	8000882 <__aeabi_dmul+0x24a>
 8000a3c:	ea50 0641 	orrs.w	r6, r0, r1, lsl #1
 8000a40:	bf18      	it	ne
 8000a42:	ea52 0643 	orrsne.w	r6, r2, r3, lsl #1
 8000a46:	f47f aec5 	bne.w	80007d4 <__aeabi_dmul+0x19c>
 8000a4a:	ea50 0441 	orrs.w	r4, r0, r1, lsl #1
 8000a4e:	f47f af0d 	bne.w	800086c <__aeabi_dmul+0x234>
 8000a52:	ea52 0543 	orrs.w	r5, r2, r3, lsl #1
 8000a56:	f47f aeeb 	bne.w	8000830 <__aeabi_dmul+0x1f8>
 8000a5a:	e712      	b.n	8000882 <__aeabi_dmul+0x24a>

08000a5c <__gedf2>:
 8000a5c:	f04f 3cff 	mov.w	ip, #4294967295
 8000a60:	e006      	b.n	8000a70 <__cmpdf2+0x4>
 8000a62:	bf00      	nop

08000a64 <__ledf2>:
 8000a64:	f04f 0c01 	mov.w	ip, #1
 8000a68:	e002      	b.n	8000a70 <__cmpdf2+0x4>
 8000a6a:	bf00      	nop

08000a6c <__cmpdf2>:
 8000a6c:	f04f 0c01 	mov.w	ip, #1
 8000a70:	f84d cd04 	str.w	ip, [sp, #-4]!
 8000a74:	ea4f 0c41 	mov.w	ip, r1, lsl #1
 8000a78:	ea7f 5c6c 	mvns.w	ip, ip, asr #21
 8000a7c:	ea4f 0c43 	mov.w	ip, r3, lsl #1
 8000a80:	bf18      	it	ne
 8000a82:	ea7f 5c6c 	mvnsne.w	ip, ip, asr #21
 8000a86:	d01b      	beq.n	8000ac0 <__cmpdf2+0x54>
 8000a88:	b001      	add	sp, #4
 8000a8a:	ea50 0c41 	orrs.w	ip, r0, r1, lsl #1
 8000a8e:	bf0c      	ite	eq
 8000a90:	ea52 0c43 	orrseq.w	ip, r2, r3, lsl #1
 8000a94:	ea91 0f03 	teqne	r1, r3
 8000a98:	bf02      	ittt	eq
 8000a9a:	ea90 0f02 	teqeq	r0, r2
 8000a9e:	2000      	moveq	r0, #0
 8000aa0:	4770      	bxeq	lr
 8000aa2:	f110 0f00 	cmn.w	r0, #0
 8000aa6:	ea91 0f03 	teq	r1, r3
 8000aaa:	bf58      	it	pl
 8000aac:	4299      	cmppl	r1, r3
 8000aae:	bf08      	it	eq
 8000ab0:	4290      	cmpeq	r0, r2
 8000ab2:	bf2c      	ite	cs
 8000ab4:	17d8      	asrcs	r0, r3, #31
 8000ab6:	ea6f 70e3 	mvncc.w	r0, r3, asr #31
 8000aba:	f040 0001 	orr.w	r0, r0, #1
 8000abe:	4770      	bx	lr
 8000ac0:	ea4f 0c41 	mov.w	ip, r1, lsl #1
 8000ac4:	ea7f 5c6c 	mvns.w	ip, ip, asr #21
 8000ac8:	d102      	bne.n	8000ad0 <__cmpdf2+0x64>
 8000aca:	ea50 3c01 	orrs.w	ip, r0, r1, lsl #12
 8000ace:	d107      	bne.n	8000ae0 <__cmpdf2+0x74>
 8000ad0:	ea4f 0c43 	mov.w	ip, r3, lsl #1
 8000ad4:	ea7f 5c6c 	mvns.w	ip, ip, asr #21
 8000ad8:	d1d6      	bne.n	8000a88 <__cmpdf2+0x1c>
 8000ada:	ea52 3c03 	orrs.w	ip, r2, r3, lsl #12
 8000ade:	d0d3      	beq.n	8000a88 <__cmpdf2+0x1c>
 8000ae0:	f85d 0b04 	ldr.w	r0, [sp], #4
 8000ae4:	4770      	bx	lr
 8000ae6:	bf00      	nop

08000ae8 <__aeabi_cdrcmple>:
 8000ae8:	4684      	mov	ip, r0
 8000aea:	4610      	mov	r0, r2
 8000aec:	4662      	mov	r2, ip
 8000aee:	468c      	mov	ip, r1
 8000af0:	4619      	mov	r1, r3
 8000af2:	4663      	mov	r3, ip
 8000af4:	e000      	b.n	8000af8 <__aeabi_cdcmpeq>
 8000af6:	bf00      	nop

08000af8 <__aeabi_cdcmpeq>:
 8000af8:	b501      	push	{r0, lr}
 8000afa:	f7ff ffb7 	bl	8000a6c <__cmpdf2>
 8000afe:	2800      	cmp	r0, #0
 8000b00:	bf48      	it	mi
 8000b02:	f110 0f00 	cmnmi.w	r0, #0
 8000b06:	bd01      	pop	{r0, pc}

08000b08 <__aeabi_dcmpeq>:
 8000b08:	f84d ed08 	str.w	lr, [sp, #-8]!
 8000b0c:	f7ff fff4 	bl	8000af8 <__aeabi_cdcmpeq>
 8000b10:	bf0c      	ite	eq
 8000b12:	2001      	moveq	r0, #1
 8000b14:	2000      	movne	r0, #0
 8000b16:	f85d fb08 	ldr.w	pc, [sp], #8
 8000b1a:	bf00      	nop

08000b1c <__aeabi_dcmplt>:
 8000b1c:	f84d ed08 	str.w	lr, [sp, #-8]!
 8000b20:	f7ff ffea 	bl	8000af8 <__aeabi_cdcmpeq>
 8000b24:	bf34      	ite	cc
 8000b26:	2001      	movcc	r0, #1
 8000b28:	2000      	movcs	r0, #0
 8000b2a:	f85d fb08 	ldr.w	pc, [sp], #8
 8000b2e:	bf00      	nop

08000b30 <__aeabi_dcmple>:
 8000b30:	f84d ed08 	str.w	lr, [sp, #-8]!
 8000b34:	f7ff ffe0 	bl	8000af8 <__aeabi_cdcmpeq>
 8000b38:	bf94      	ite	ls
 8000b3a:	2001      	movls	r0, #1
 8000b3c:	2000      	movhi	r0, #0
 8000b3e:	f85d fb08 	ldr.w	pc, [sp], #8
 8000b42:	bf00      	nop

08000b44 <__aeabi_dcmpge>:
 8000b44:	f84d ed08 	str.w	lr, [sp, #-8]!
 8000b48:	f7ff ffce 	bl	8000ae8 <__aeabi_cdrcmple>
 8000b4c:	bf94      	ite	ls
 8000b4e:	2001      	movls	r0, #1
 8000b50:	2000      	movhi	r0, #0
 8000b52:	f85d fb08 	ldr.w	pc, [sp], #8
 8000b56:	bf00      	nop

08000b58 <__aeabi_dcmpgt>:
 8000b58:	f84d ed08 	str.w	lr, [sp, #-8]!
 8000b5c:	f7ff ffc4 	bl	8000ae8 <__aeabi_cdrcmple>
 8000b60:	bf34      	ite	cc
 8000b62:	2001      	movcc	r0, #1
 8000b64:	2000      	movcs	r0, #0
 8000b66:	f85d fb08 	ldr.w	pc, [sp], #8
 8000b6a:	bf00      	nop

08000b6c <__aeabi_dcmpun>:
 8000b6c:	ea4f 0c41 	mov.w	ip, r1, lsl #1
 8000b70:	ea7f 5c6c 	mvns.w	ip, ip, asr #21
 8000b74:	d102      	bne.n	8000b7c <__aeabi_dcmpun+0x10>
 8000b76:	ea50 3c01 	orrs.w	ip, r0, r1, lsl #12
 8000b7a:	d10a      	bne.n	8000b92 <__aeabi_dcmpun+0x26>
 8000b7c:	ea4f 0c43 	mov.w	ip, r3, lsl #1
 8000b80:	ea7f 5c6c 	mvns.w	ip, ip, asr #21
 8000b84:	d102      	bne.n	8000b8c <__aeabi_dcmpun+0x20>
 8000b86:	ea52 3c03 	orrs.w	ip, r2, r3, lsl #12
 8000b8a:	d102      	bne.n	8000b92 <__aeabi_dcmpun+0x26>
 8000b8c:	f04f 0000 	mov.w	r0, #0
 8000b90:	4770      	bx	lr
 8000b92:	f04f 0001 	mov.w	r0, #1
 8000b96:	4770      	bx	lr

08000b98 <__aeabi_d2iz>:
 8000b98:	ea4f 0241 	mov.w	r2, r1, lsl #1
 8000b9c:	f512 1200 	adds.w	r2, r2, #2097152	@ 0x200000
 8000ba0:	d215      	bcs.n	8000bce <__aeabi_d2iz+0x36>
 8000ba2:	d511      	bpl.n	8000bc8 <__aeabi_d2iz+0x30>
 8000ba4:	f46f 7378 	mvn.w	r3, #992	@ 0x3e0
 8000ba8:	ebb3 5262 	subs.w	r2, r3, r2, asr #21
 8000bac:	d912      	bls.n	8000bd4 <__aeabi_d2iz+0x3c>
 8000bae:	ea4f 23c1 	mov.w	r3, r1, lsl #11
 8000bb2:	f043 4300 	orr.w	r3, r3, #2147483648	@ 0x80000000
 8000bb6:	ea43 5350 	orr.w	r3, r3, r0, lsr #21
 8000bba:	f011 4f00 	tst.w	r1, #2147483648	@ 0x80000000
 8000bbe:	fa23 f002 	lsr.w	r0, r3, r2
 8000bc2:	bf18      	it	ne
 8000bc4:	4240      	negne	r0, r0
 8000bc6:	4770      	bx	lr
 8000bc8:	f04f 0000 	mov.w	r0, #0
 8000bcc:	4770      	bx	lr
 8000bce:	ea50 3001 	orrs.w	r0, r0, r1, lsl #12
 8000bd2:	d105      	bne.n	8000be0 <__aeabi_d2iz+0x48>
 8000bd4:	f011 4000 	ands.w	r0, r1, #2147483648	@ 0x80000000
 8000bd8:	bf08      	it	eq
 8000bda:	f06f 4000 	mvneq.w	r0, #2147483648	@ 0x80000000
 8000bde:	4770      	bx	lr
 8000be0:	f04f 0000 	mov.w	r0, #0
 8000be4:	4770      	bx	lr
 8000be6:	bf00      	nop

08000be8 <__aeabi_uldivmod>:
 8000be8:	b953      	cbnz	r3, 8000c00 <__aeabi_uldivmod+0x18>
 8000bea:	b94a      	cbnz	r2, 8000c00 <__aeabi_uldivmod+0x18>
 8000bec:	2900      	cmp	r1, #0
 8000bee:	bf08      	it	eq
 8000bf0:	2800      	cmpeq	r0, #0
 8000bf2:	bf1c      	itt	ne
 8000bf4:	f04f 31ff 	movne.w	r1, #4294967295
 8000bf8:	f04f 30ff 	movne.w	r0, #4294967295
 8000bfc:	f000 b988 	b.w	8000f10 <__aeabi_idiv0>
 8000c00:	f1ad 0c08 	sub.w	ip, sp, #8
 8000c04:	e96d ce04 	strd	ip, lr, [sp, #-16]!
 8000c08:	f000 f806 	bl	8000c18 <__udivmoddi4>
 8000c0c:	f8dd e004 	ldr.w	lr, [sp, #4]
 8000c10:	e9dd 2302 	ldrd	r2, r3, [sp, #8]
 8000c14:	b004      	add	sp, #16
 8000c16:	4770      	bx	lr

08000c18 <__udivmoddi4>:
 8000c18:	e92d 47f0 	stmdb	sp!, {r4, r5, r6, r7, r8, r9, sl, lr}
 8000c1c:	9d08      	ldr	r5, [sp, #32]
 8000c1e:	468e      	mov	lr, r1
 8000c20:	4604      	mov	r4, r0
 8000c22:	4688      	mov	r8, r1
 8000c24:	2b00      	cmp	r3, #0
 8000c26:	d14a      	bne.n	8000cbe <__udivmoddi4+0xa6>
 8000c28:	428a      	cmp	r2, r1
 8000c2a:	4617      	mov	r7, r2
 8000c2c:	d962      	bls.n	8000cf4 <__udivmoddi4+0xdc>
 8000c2e:	fab2 f682 	clz	r6, r2
 8000c32:	b14e      	cbz	r6, 8000c48 <__udivmoddi4+0x30>
 8000c34:	f1c6 0320 	rsb	r3, r6, #32
 8000c38:	fa01 f806 	lsl.w	r8, r1, r6
 8000c3c:	fa20 f303 	lsr.w	r3, r0, r3
 8000c40:	40b7      	lsls	r7, r6
 8000c42:	ea43 0808 	orr.w	r8, r3, r8
 8000c46:	40b4      	lsls	r4, r6
 8000c48:	ea4f 4e17 	mov.w	lr, r7, lsr #16
 8000c4c:	fa1f fc87 	uxth.w	ip, r7
 8000c50:	fbb8 f1fe 	udiv	r1, r8, lr
 8000c54:	0c23      	lsrs	r3, r4, #16
 8000c56:	fb0e 8811 	mls	r8, lr, r1, r8
 8000c5a:	ea43 4308 	orr.w	r3, r3, r8, lsl #16
 8000c5e:	fb01 f20c 	mul.w	r2, r1, ip
 8000c62:	429a      	cmp	r2, r3
 8000c64:	d909      	bls.n	8000c7a <__udivmoddi4+0x62>
 8000c66:	18fb      	adds	r3, r7, r3
 8000c68:	f101 30ff 	add.w	r0, r1, #4294967295
 8000c6c:	f080 80ea 	bcs.w	8000e44 <__udivmoddi4+0x22c>
 8000c70:	429a      	cmp	r2, r3
 8000c72:	f240 80e7 	bls.w	8000e44 <__udivmoddi4+0x22c>
 8000c76:	3902      	subs	r1, #2
 8000c78:	443b      	add	r3, r7
 8000c7a:	1a9a      	subs	r2, r3, r2
 8000c7c:	b2a3      	uxth	r3, r4
 8000c7e:	fbb2 f0fe 	udiv	r0, r2, lr
 8000c82:	fb0e 2210 	mls	r2, lr, r0, r2
 8000c86:	ea43 4302 	orr.w	r3, r3, r2, lsl #16
 8000c8a:	fb00 fc0c 	mul.w	ip, r0, ip
 8000c8e:	459c      	cmp	ip, r3
 8000c90:	d909      	bls.n	8000ca6 <__udivmoddi4+0x8e>
 8000c92:	18fb      	adds	r3, r7, r3
 8000c94:	f100 32ff 	add.w	r2, r0, #4294967295
 8000c98:	f080 80d6 	bcs.w	8000e48 <__udivmoddi4+0x230>
 8000c9c:	459c      	cmp	ip, r3
 8000c9e:	f240 80d3 	bls.w	8000e48 <__udivmoddi4+0x230>
 8000ca2:	443b      	add	r3, r7
 8000ca4:	3802      	subs	r0, #2
 8000ca6:	ea40 4001 	orr.w	r0, r0, r1, lsl #16
 8000caa:	eba3 030c 	sub.w	r3, r3, ip
 8000cae:	2100      	movs	r1, #0
 8000cb0:	b11d      	cbz	r5, 8000cba <__udivmoddi4+0xa2>
 8000cb2:	40f3      	lsrs	r3, r6
 8000cb4:	2200      	movs	r2, #0
 8000cb6:	e9c5 3200 	strd	r3, r2, [r5]
 8000cba:	e8bd 87f0 	ldmia.w	sp!, {r4, r5, r6, r7, r8, r9, sl, pc}
 8000cbe:	428b      	cmp	r3, r1
 8000cc0:	d905      	bls.n	8000cce <__udivmoddi4+0xb6>
 8000cc2:	b10d      	cbz	r5, 8000cc8 <__udivmoddi4+0xb0>
 8000cc4:	e9c5 0100 	strd	r0, r1, [r5]
 8000cc8:	2100      	movs	r1, #0
 8000cca:	4608      	mov	r0, r1
 8000ccc:	e7f5      	b.n	8000cba <__udivmoddi4+0xa2>
 8000cce:	fab3 f183 	clz	r1, r3
 8000cd2:	2900      	cmp	r1, #0
 8000cd4:	d146      	bne.n	8000d64 <__udivmoddi4+0x14c>
 8000cd6:	4573      	cmp	r3, lr
 8000cd8:	d302      	bcc.n	8000ce0 <__udivmoddi4+0xc8>
 8000cda:	4282      	cmp	r2, r0
 8000cdc:	f200 8105 	bhi.w	8000eea <__udivmoddi4+0x2d2>
 8000ce0:	1a84      	subs	r4, r0, r2
 8000ce2:	eb6e 0203 	sbc.w	r2, lr, r3
 8000ce6:	2001      	movs	r0, #1
 8000ce8:	4690      	mov	r8, r2
 8000cea:	2d00      	cmp	r5, #0
 8000cec:	d0e5      	beq.n	8000cba <__udivmoddi4+0xa2>
 8000cee:	e9c5 4800 	strd	r4, r8, [r5]
 8000cf2:	e7e2      	b.n	8000cba <__udivmoddi4+0xa2>
 8000cf4:	2a00      	cmp	r2, #0
 8000cf6:	f000 8090 	beq.w	8000e1a <__udivmoddi4+0x202>
 8000cfa:	fab2 f682 	clz	r6, r2
 8000cfe:	2e00      	cmp	r6, #0
 8000d00:	f040 80a4 	bne.w	8000e4c <__udivmoddi4+0x234>
 8000d04:	1a8a      	subs	r2, r1, r2
 8000d06:	0c03      	lsrs	r3, r0, #16
 8000d08:	ea4f 4e17 	mov.w	lr, r7, lsr #16
 8000d0c:	b280      	uxth	r0, r0
 8000d0e:	b2bc      	uxth	r4, r7
 8000d10:	2101      	movs	r1, #1
 8000d12:	fbb2 fcfe 	udiv	ip, r2, lr
 8000d16:	fb0e 221c 	mls	r2, lr, ip, r2
 8000d1a:	ea43 4302 	orr.w	r3, r3, r2, lsl #16
 8000d1e:	fb04 f20c 	mul.w	r2, r4, ip
 8000d22:	429a      	cmp	r2, r3
 8000d24:	d907      	bls.n	8000d36 <__udivmoddi4+0x11e>
 8000d26:	18fb      	adds	r3, r7, r3
 8000d28:	f10c 38ff 	add.w	r8, ip, #4294967295
 8000d2c:	d202      	bcs.n	8000d34 <__udivmoddi4+0x11c>
 8000d2e:	429a      	cmp	r2, r3
 8000d30:	f200 80e0 	bhi.w	8000ef4 <__udivmoddi4+0x2dc>
 8000d34:	46c4      	mov	ip, r8
 8000d36:	1a9b      	subs	r3, r3, r2
 8000d38:	fbb3 f2fe 	udiv	r2, r3, lr
 8000d3c:	fb0e 3312 	mls	r3, lr, r2, r3
 8000d40:	ea40 4303 	orr.w	r3, r0, r3, lsl #16
 8000d44:	fb02 f404 	mul.w	r4, r2, r4
 8000d48:	429c      	cmp	r4, r3
 8000d4a:	d907      	bls.n	8000d5c <__udivmoddi4+0x144>
 8000d4c:	18fb      	adds	r3, r7, r3
 8000d4e:	f102 30ff 	add.w	r0, r2, #4294967295
 8000d52:	d202      	bcs.n	8000d5a <__udivmoddi4+0x142>
 8000d54:	429c      	cmp	r4, r3
 8000d56:	f200 80ca 	bhi.w	8000eee <__udivmoddi4+0x2d6>
 8000d5a:	4602      	mov	r2, r0
 8000d5c:	1b1b      	subs	r3, r3, r4
 8000d5e:	ea42 400c 	orr.w	r0, r2, ip, lsl #16
 8000d62:	e7a5      	b.n	8000cb0 <__udivmoddi4+0x98>
 8000d64:	f1c1 0620 	rsb	r6, r1, #32
 8000d68:	408b      	lsls	r3, r1
 8000d6a:	fa22 f706 	lsr.w	r7, r2, r6
 8000d6e:	431f      	orrs	r7, r3
 8000d70:	fa0e f401 	lsl.w	r4, lr, r1
 8000d74:	fa20 f306 	lsr.w	r3, r0, r6
 8000d78:	fa2e fe06 	lsr.w	lr, lr, r6
 8000d7c:	ea4f 4917 	mov.w	r9, r7, lsr #16
 8000d80:	4323      	orrs	r3, r4
 8000d82:	fa00 f801 	lsl.w	r8, r0, r1
 8000d86:	fa1f fc87 	uxth.w	ip, r7
 8000d8a:	fbbe f0f9 	udiv	r0, lr, r9
 8000d8e:	0c1c      	lsrs	r4, r3, #16
 8000d90:	fb09 ee10 	mls	lr, r9, r0, lr
 8000d94:	ea44 440e 	orr.w	r4, r4, lr, lsl #16
 8000d98:	fb00 fe0c 	mul.w	lr, r0, ip
 8000d9c:	45a6      	cmp	lr, r4
 8000d9e:	fa02 f201 	lsl.w	r2, r2, r1
 8000da2:	d909      	bls.n	8000db8 <__udivmoddi4+0x1a0>
 8000da4:	193c      	adds	r4, r7, r4
 8000da6:	f100 3aff 	add.w	sl, r0, #4294967295
 8000daa:	f080 809c 	bcs.w	8000ee6 <__udivmoddi4+0x2ce>
 8000dae:	45a6      	cmp	lr, r4
 8000db0:	f240 8099 	bls.w	8000ee6 <__udivmoddi4+0x2ce>
 8000db4:	3802      	subs	r0, #2
 8000db6:	443c      	add	r4, r7
 8000db8:	eba4 040e 	sub.w	r4, r4, lr
 8000dbc:	fa1f fe83 	uxth.w	lr, r3
 8000dc0:	fbb4 f3f9 	udiv	r3, r4, r9
 8000dc4:	fb09 4413 	mls	r4, r9, r3, r4
 8000dc8:	ea4e 4404 	orr.w	r4, lr, r4, lsl #16
 8000dcc:	fb03 fc0c 	mul.w	ip, r3, ip
 8000dd0:	45a4      	cmp	ip, r4
 8000dd2:	d908      	bls.n	8000de6 <__udivmoddi4+0x1ce>
 8000dd4:	193c      	adds	r4, r7, r4
 8000dd6:	f103 3eff 	add.w	lr, r3, #4294967295
 8000dda:	f080 8082 	bcs.w	8000ee2 <__udivmoddi4+0x2ca>
 8000dde:	45a4      	cmp	ip, r4
 8000de0:	d97f      	bls.n	8000ee2 <__udivmoddi4+0x2ca>
 8000de2:	3b02      	subs	r3, #2
 8000de4:	443c      	add	r4, r7
 8000de6:	ea43 4000 	orr.w	r0, r3, r0, lsl #16
 8000dea:	eba4 040c 	sub.w	r4, r4, ip
 8000dee:	fba0 ec02 	umull	lr, ip, r0, r2
 8000df2:	4564      	cmp	r4, ip
 8000df4:	4673      	mov	r3, lr
 8000df6:	46e1      	mov	r9, ip
 8000df8:	d362      	bcc.n	8000ec0 <__udivmoddi4+0x2a8>
 8000dfa:	d05f      	beq.n	8000ebc <__udivmoddi4+0x2a4>
 8000dfc:	b15d      	cbz	r5, 8000e16 <__udivmoddi4+0x1fe>
 8000dfe:	ebb8 0203 	subs.w	r2, r8, r3
 8000e02:	eb64 0409 	sbc.w	r4, r4, r9
 8000e06:	fa04 f606 	lsl.w	r6, r4, r6
 8000e0a:	fa22 f301 	lsr.w	r3, r2, r1
 8000e0e:	431e      	orrs	r6, r3
 8000e10:	40cc      	lsrs	r4, r1
 8000e12:	e9c5 6400 	strd	r6, r4, [r5]
 8000e16:	2100      	movs	r1, #0
 8000e18:	e74f      	b.n	8000cba <__udivmoddi4+0xa2>
 8000e1a:	fbb1 fcf2 	udiv	ip, r1, r2
 8000e1e:	0c01      	lsrs	r1, r0, #16
 8000e20:	ea41 410e 	orr.w	r1, r1, lr, lsl #16
 8000e24:	b280      	uxth	r0, r0
 8000e26:	ea40 4201 	orr.w	r2, r0, r1, lsl #16
 8000e2a:	463b      	mov	r3, r7
 8000e2c:	4638      	mov	r0, r7
 8000e2e:	463c      	mov	r4, r7
 8000e30:	46b8      	mov	r8, r7
 8000e32:	46be      	mov	lr, r7
 8000e34:	2620      	movs	r6, #32
 8000e36:	fbb1 f1f7 	udiv	r1, r1, r7
 8000e3a:	eba2 0208 	sub.w	r2, r2, r8
 8000e3e:	ea41 410c 	orr.w	r1, r1, ip, lsl #16
 8000e42:	e766      	b.n	8000d12 <__udivmoddi4+0xfa>
 8000e44:	4601      	mov	r1, r0
 8000e46:	e718      	b.n	8000c7a <__udivmoddi4+0x62>
 8000e48:	4610      	mov	r0, r2
 8000e4a:	e72c      	b.n	8000ca6 <__udivmoddi4+0x8e>
 8000e4c:	f1c6 0220 	rsb	r2, r6, #32
 8000e50:	fa2e f302 	lsr.w	r3, lr, r2
 8000e54:	40b7      	lsls	r7, r6
 8000e56:	40b1      	lsls	r1, r6
 8000e58:	fa20 f202 	lsr.w	r2, r0, r2
 8000e5c:	ea4f 4e17 	mov.w	lr, r7, lsr #16
 8000e60:	430a      	orrs	r2, r1
 8000e62:	fbb3 f8fe 	udiv	r8, r3, lr
 8000e66:	b2bc      	uxth	r4, r7
 8000e68:	fb0e 3318 	mls	r3, lr, r8, r3
 8000e6c:	0c11      	lsrs	r1, r2, #16
 8000e6e:	ea41 4103 	orr.w	r1, r1, r3, lsl #16
 8000e72:	fb08 f904 	mul.w	r9, r8, r4
 8000e76:	40b0      	lsls	r0, r6
 8000e78:	4589      	cmp	r9, r1
 8000e7a:	ea4f 4310 	mov.w	r3, r0, lsr #16
 8000e7e:	b280      	uxth	r0, r0
 8000e80:	d93e      	bls.n	8000f00 <__udivmoddi4+0x2e8>
 8000e82:	1879      	adds	r1, r7, r1
 8000e84:	f108 3cff 	add.w	ip, r8, #4294967295
 8000e88:	d201      	bcs.n	8000e8e <__udivmoddi4+0x276>
 8000e8a:	4589      	cmp	r9, r1
 8000e8c:	d81f      	bhi.n	8000ece <__udivmoddi4+0x2b6>
 8000e8e:	eba1 0109 	sub.w	r1, r1, r9
 8000e92:	fbb1 f9fe 	udiv	r9, r1, lr
 8000e96:	fb09 f804 	mul.w	r8, r9, r4
 8000e9a:	fb0e 1119 	mls	r1, lr, r9, r1
 8000e9e:	b292      	uxth	r2, r2
 8000ea0:	ea42 4201 	orr.w	r2, r2, r1, lsl #16
 8000ea4:	4542      	cmp	r2, r8
 8000ea6:	d229      	bcs.n	8000efc <__udivmoddi4+0x2e4>
 8000ea8:	18ba      	adds	r2, r7, r2
 8000eaa:	f109 31ff 	add.w	r1, r9, #4294967295
 8000eae:	d2c4      	bcs.n	8000e3a <__udivmoddi4+0x222>
 8000eb0:	4542      	cmp	r2, r8
 8000eb2:	d2c2      	bcs.n	8000e3a <__udivmoddi4+0x222>
 8000eb4:	f1a9 0102 	sub.w	r1, r9, #2
 8000eb8:	443a      	add	r2, r7
 8000eba:	e7be      	b.n	8000e3a <__udivmoddi4+0x222>
 8000ebc:	45f0      	cmp	r8, lr
 8000ebe:	d29d      	bcs.n	8000dfc <__udivmoddi4+0x1e4>
 8000ec0:	ebbe 0302 	subs.w	r3, lr, r2
 8000ec4:	eb6c 0c07 	sbc.w	ip, ip, r7
 8000ec8:	3801      	subs	r0, #1
 8000eca:	46e1      	mov	r9, ip
 8000ecc:	e796      	b.n	8000dfc <__udivmoddi4+0x1e4>
 8000ece:	eba7 0909 	sub.w	r9, r7, r9
 8000ed2:	4449      	add	r1, r9
 8000ed4:	f1a8 0c02 	sub.w	ip, r8, #2
 8000ed8:	fbb1 f9fe 	udiv	r9, r1, lr
 8000edc:	fb09 f804 	mul.w	r8, r9, r4
 8000ee0:	e7db      	b.n	8000e9a <__udivmoddi4+0x282>
 8000ee2:	4673      	mov	r3, lr
 8000ee4:	e77f      	b.n	8000de6 <__udivmoddi4+0x1ce>
 8000ee6:	4650      	mov	r0, sl
 8000ee8:	e766      	b.n	8000db8 <__udivmoddi4+0x1a0>
 8000eea:	4608      	mov	r0, r1
 8000eec:	e6fd      	b.n	8000cea <__udivmoddi4+0xd2>
 8000eee:	443b      	add	r3, r7
 8000ef0:	3a02      	subs	r2, #2
 8000ef2:	e733      	b.n	8000d5c <__udivmoddi4+0x144>
 8000ef4:	f1ac 0c02 	sub.w	ip, ip, #2
 8000ef8:	443b      	add	r3, r7
 8000efa:	e71c      	b.n	8000d36 <__udivmoddi4+0x11e>
 8000efc:	4649      	mov	r1, r9
 8000efe:	e79c      	b.n	8000e3a <__udivmoddi4+0x222>
 8000f00:	eba1 0109 	sub.w	r1, r1, r9
 8000f04:	46c4      	mov	ip, r8
 8000f06:	fbb1 f9fe 	udiv	r9, r1, lr
 8000f0a:	fb09 f804 	mul.w	r8, r9, r4
 8000f0e:	e7c4      	b.n	8000e9a <__udivmoddi4+0x282>

08000f10 <__aeabi_idiv0>:
 8000f10:	4770      	bx	lr
 8000f12:	bf00      	nop

08000f14 <setMotorSpeed>:

int16_t prevRPM = 0;
uint32_t pc = 0;
uint32_t startTime;

void setMotorSpeed(int16_t rpm, servo_t servo) {
 8000f14:	b084      	sub	sp, #16
 8000f16:	b590      	push	{r4, r7, lr}
 8000f18:	b087      	sub	sp, #28
 8000f1a:	af00      	add	r7, sp, #0
 8000f1c:	4604      	mov	r4, r0
 8000f1e:	f107 002c 	add.w	r0, r7, #44	@ 0x2c
 8000f22:	e880 000e 	stmia.w	r0, {r1, r2, r3}
 8000f26:	4623      	mov	r3, r4
 8000f28:	80fb      	strh	r3, [r7, #6]
	int16_t rpmChange = rpm-prevRPM;
 8000f2a:	88fa      	ldrh	r2, [r7, #6]
 8000f2c:	4b71      	ldr	r3, [pc, #452]	@ (80010f4 <setMotorSpeed+0x1e0>)
 8000f2e:	f9b3 3000 	ldrsh.w	r3, [r3]
 8000f32:	b29b      	uxth	r3, r3
 8000f34:	1ad3      	subs	r3, r2, r3
 8000f36:	b29b      	uxth	r3, r3
 8000f38:	823b      	strh	r3, [r7, #16]
	if (abs(rpmChange) > maxRPMchange) {				// Gradual speed change
 8000f3a:	f9b7 3010 	ldrsh.w	r3, [r7, #16]
 8000f3e:	2b00      	cmp	r3, #0
 8000f40:	bfb8      	it	lt
 8000f42:	425b      	neglt	r3, r3
 8000f44:	b29b      	uxth	r3, r3
 8000f46:	f5b3 7ffa 	cmp.w	r3, #500	@ 0x1f4
 8000f4a:	d918      	bls.n	8000f7e <setMotorSpeed+0x6a>
		if (rpmChange > 0) {
 8000f4c:	f9b7 3010 	ldrsh.w	r3, [r7, #16]
 8000f50:	2b00      	cmp	r3, #0
 8000f52:	dd08      	ble.n	8000f66 <setMotorSpeed+0x52>
			rpm = prevRPM + maxRPMchange;
 8000f54:	4b67      	ldr	r3, [pc, #412]	@ (80010f4 <setMotorSpeed+0x1e0>)
 8000f56:	f9b3 3000 	ldrsh.w	r3, [r3]
 8000f5a:	b29b      	uxth	r3, r3
 8000f5c:	f503 73fa 	add.w	r3, r3, #500	@ 0x1f4
 8000f60:	b29b      	uxth	r3, r3
 8000f62:	80fb      	strh	r3, [r7, #6]
 8000f64:	e00b      	b.n	8000f7e <setMotorSpeed+0x6a>
		} else if (rpmChange < 0) {
 8000f66:	f9b7 3010 	ldrsh.w	r3, [r7, #16]
 8000f6a:	2b00      	cmp	r3, #0
 8000f6c:	da07      	bge.n	8000f7e <setMotorSpeed+0x6a>
			rpm = prevRPM - maxRPMchange;
 8000f6e:	4b61      	ldr	r3, [pc, #388]	@ (80010f4 <setMotorSpeed+0x1e0>)
 8000f70:	f9b3 3000 	ldrsh.w	r3, [r3]
 8000f74:	b29b      	uxth	r3, r3
 8000f76:	f5a3 73fa 	sub.w	r3, r3, #500	@ 0x1f4
 8000f7a:	b29b      	uxth	r3, r3
 8000f7c:	80fb      	strh	r3, [r7, #6]
		}
	}
	prevRPM = rpm;
 8000f7e:	4a5d      	ldr	r2, [pc, #372]	@ (80010f4 <setMotorSpeed+0x1e0>)
 8000f80:	88fb      	ldrh	r3, [r7, #6]
 8000f82:	8013      	strh	r3, [r2, #0]

	if (rpm == 0) {
 8000f84:	f9b7 3006 	ldrsh.w	r3, [r7, #6]
 8000f88:	2b00      	cmp	r3, #0
 8000f8a:	d106      	bne.n	8000f9a <setMotorSpeed+0x86>
		HAL_TIM_OC_Stop(servo.pulseTimerGP, servo.TIM_CH_GP);
 8000f8c:	6e3b      	ldr	r3, [r7, #96]	@ 0x60
 8000f8e:	6e7a      	ldr	r2, [r7, #100]	@ 0x64
 8000f90:	4611      	mov	r1, r2
 8000f92:	4618      	mov	r0, r3
 8000f94:	f005 f936 	bl	8006204 <HAL_TIM_OC_Stop>
		return;
 8000f98:	e0a5      	b.n	80010e6 <setMotorSpeed+0x1d2>
	}
	int32_t ARR;
	int32_t freqTarget;
	GPIO_PinState direction = GPIO_PIN_RESET;
 8000f9a:	2300      	movs	r3, #0
 8000f9c:	74fb      	strb	r3, [r7, #19]

	if (rpm < 0) {
 8000f9e:	f9b7 3006 	ldrsh.w	r3, [r7, #6]
 8000fa2:	2b00      	cmp	r3, #0
 8000fa4:	da08      	bge.n	8000fb8 <setMotorSpeed+0xa4>
		direction = GPIO_PIN_SET;
 8000fa6:	2301      	movs	r3, #1
 8000fa8:	74fb      	strb	r3, [r7, #19]
		rpm = abs(rpm);
 8000faa:	f9b7 3006 	ldrsh.w	r3, [r7, #6]
 8000fae:	2b00      	cmp	r3, #0
 8000fb0:	bfb8      	it	lt
 8000fb2:	425b      	neglt	r3, r3
 8000fb4:	b29b      	uxth	r3, r3
 8000fb6:	80fb      	strh	r3, [r7, #6]
	}
	if (rpm > 3000) { rpm = 3000; }
 8000fb8:	f9b7 3006 	ldrsh.w	r3, [r7, #6]
 8000fbc:	f640 32b8 	movw	r2, #3000	@ 0xbb8
 8000fc0:	4293      	cmp	r3, r2
 8000fc2:	dd02      	ble.n	8000fca <setMotorSpeed+0xb6>
 8000fc4:	f640 33b8 	movw	r3, #3000	@ 0xbb8
 8000fc8:	80fb      	strh	r3, [r7, #6]


	freqTarget = rpm*RPM2FREQ;
 8000fca:	f9b7 2006 	ldrsh.w	r2, [r7, #6]
 8000fce:	4613      	mov	r3, r2
 8000fd0:	009b      	lsls	r3, r3, #2
 8000fd2:	4413      	add	r3, r2
 8000fd4:	009a      	lsls	r2, r3, #2
 8000fd6:	4413      	add	r3, r2
 8000fd8:	4a47      	ldr	r2, [pc, #284]	@ (80010f8 <setMotorSpeed+0x1e4>)
 8000fda:	fb82 1203 	smull	r1, r2, r2, r3
 8000fde:	17db      	asrs	r3, r3, #31
 8000fe0:	1ad3      	subs	r3, r2, r3
 8000fe2:	60fb      	str	r3, [r7, #12]
	ARR = CLOCKFREQ/freqTarget;
 8000fe4:	4a45      	ldr	r2, [pc, #276]	@ (80010fc <setMotorSpeed+0x1e8>)
 8000fe6:	68fb      	ldr	r3, [r7, #12]
 8000fe8:	fb92 f3f3 	sdiv	r3, r2, r3
 8000fec:	617b      	str	r3, [r7, #20]
	if (ARR > 65535) {			// Max ARR (min speed)
 8000fee:	697b      	ldr	r3, [r7, #20]
 8000ff0:	f5b3 3f80 	cmp.w	r3, #65536	@ 0x10000
 8000ff4:	db03      	blt.n	8000ffe <setMotorSpeed+0xea>
		ARR = 65535;
 8000ff6:	f64f 73ff 	movw	r3, #65535	@ 0xffff
 8000ffa:	617b      	str	r3, [r7, #20]
 8000ffc:	e004      	b.n	8001008 <setMotorSpeed+0xf4>
	} else if (ARR < 1) {	// Min ARR (max speed)
 8000ffe:	697b      	ldr	r3, [r7, #20]
 8001000:	2b00      	cmp	r3, #0
 8001002:	dc01      	bgt.n	8001008 <setMotorSpeed+0xf4>
		ARR = 1;
 8001004:	2301      	movs	r3, #1
 8001006:	617b      	str	r3, [r7, #20]
	}
	HAL_TIM_OC_Stop(servo.pulseTimerGP, servo.TIM_CH_GP);
 8001008:	6e3b      	ldr	r3, [r7, #96]	@ 0x60
 800100a:	6e7a      	ldr	r2, [r7, #100]	@ 0x64
 800100c:	4611      	mov	r1, r2
 800100e:	4618      	mov	r0, r3
 8001010:	f005 f8f8 	bl	8006204 <HAL_TIM_OC_Stop>
	setGPIO(servo.directionPin, direction);
 8001014:	7cfb      	ldrb	r3, [r7, #19]
 8001016:	461a      	mov	r2, r3
 8001018:	f107 0354 	add.w	r3, r7, #84	@ 0x54
 800101c:	e893 0003 	ldmia.w	r3, {r0, r1}
 8001020:	f000 f9de 	bl	80013e0 <setGPIO>
	__HAL_TIM_SET_AUTORELOAD(servo.pulseTimerGP, ARR);
 8001024:	6e3b      	ldr	r3, [r7, #96]	@ 0x60
 8001026:	681b      	ldr	r3, [r3, #0]
 8001028:	697a      	ldr	r2, [r7, #20]
 800102a:	62da      	str	r2, [r3, #44]	@ 0x2c
 800102c:	6e3b      	ldr	r3, [r7, #96]	@ 0x60
 800102e:	697a      	ldr	r2, [r7, #20]
 8001030:	60da      	str	r2, [r3, #12]
	__HAL_TIM_SET_COMPARE(servo.pulseTimerGP, servo.TIM_CH_GP,ARR/2);
 8001032:	6e7b      	ldr	r3, [r7, #100]	@ 0x64
 8001034:	2b00      	cmp	r3, #0
 8001036:	d109      	bne.n	800104c <setMotorSpeed+0x138>
 8001038:	697b      	ldr	r3, [r7, #20]
 800103a:	2b00      	cmp	r3, #0
 800103c:	da00      	bge.n	8001040 <setMotorSpeed+0x12c>
 800103e:	3301      	adds	r3, #1
 8001040:	105b      	asrs	r3, r3, #1
 8001042:	461a      	mov	r2, r3
 8001044:	6e3b      	ldr	r3, [r7, #96]	@ 0x60
 8001046:	681b      	ldr	r3, [r3, #0]
 8001048:	635a      	str	r2, [r3, #52]	@ 0x34
 800104a:	e041      	b.n	80010d0 <setMotorSpeed+0x1bc>
 800104c:	6e7b      	ldr	r3, [r7, #100]	@ 0x64
 800104e:	2b04      	cmp	r3, #4
 8001050:	d10a      	bne.n	8001068 <setMotorSpeed+0x154>
 8001052:	697b      	ldr	r3, [r7, #20]
 8001054:	2b00      	cmp	r3, #0
 8001056:	da00      	bge.n	800105a <setMotorSpeed+0x146>
 8001058:	3301      	adds	r3, #1
 800105a:	105b      	asrs	r3, r3, #1
 800105c:	4619      	mov	r1, r3
 800105e:	6e3b      	ldr	r3, [r7, #96]	@ 0x60
 8001060:	681a      	ldr	r2, [r3, #0]
 8001062:	460b      	mov	r3, r1
 8001064:	6393      	str	r3, [r2, #56]	@ 0x38
 8001066:	e033      	b.n	80010d0 <setMotorSpeed+0x1bc>
 8001068:	6e7b      	ldr	r3, [r7, #100]	@ 0x64
 800106a:	2b08      	cmp	r3, #8
 800106c:	d10a      	bne.n	8001084 <setMotorSpeed+0x170>
 800106e:	697b      	ldr	r3, [r7, #20]
 8001070:	2b00      	cmp	r3, #0
 8001072:	da00      	bge.n	8001076 <setMotorSpeed+0x162>
 8001074:	3301      	adds	r3, #1
 8001076:	105b      	asrs	r3, r3, #1
 8001078:	4619      	mov	r1, r3
 800107a:	6e3b      	ldr	r3, [r7, #96]	@ 0x60
 800107c:	681a      	ldr	r2, [r3, #0]
 800107e:	460b      	mov	r3, r1
 8001080:	63d3      	str	r3, [r2, #60]	@ 0x3c
 8001082:	e025      	b.n	80010d0 <setMotorSpeed+0x1bc>
 8001084:	6e7b      	ldr	r3, [r7, #100]	@ 0x64
 8001086:	2b0c      	cmp	r3, #12
 8001088:	d10a      	bne.n	80010a0 <setMotorSpeed+0x18c>
 800108a:	697b      	ldr	r3, [r7, #20]
 800108c:	2b00      	cmp	r3, #0
 800108e:	da00      	bge.n	8001092 <setMotorSpeed+0x17e>
 8001090:	3301      	adds	r3, #1
 8001092:	105b      	asrs	r3, r3, #1
 8001094:	4619      	mov	r1, r3
 8001096:	6e3b      	ldr	r3, [r7, #96]	@ 0x60
 8001098:	681a      	ldr	r2, [r3, #0]
 800109a:	460b      	mov	r3, r1
 800109c:	6413      	str	r3, [r2, #64]	@ 0x40
 800109e:	e017      	b.n	80010d0 <setMotorSpeed+0x1bc>
 80010a0:	6e7b      	ldr	r3, [r7, #100]	@ 0x64
 80010a2:	2b10      	cmp	r3, #16
 80010a4:	d10a      	bne.n	80010bc <setMotorSpeed+0x1a8>
 80010a6:	697b      	ldr	r3, [r7, #20]
 80010a8:	2b00      	cmp	r3, #0
 80010aa:	da00      	bge.n	80010ae <setMotorSpeed+0x19a>
 80010ac:	3301      	adds	r3, #1
 80010ae:	105b      	asrs	r3, r3, #1
 80010b0:	4619      	mov	r1, r3
 80010b2:	6e3b      	ldr	r3, [r7, #96]	@ 0x60
 80010b4:	681a      	ldr	r2, [r3, #0]
 80010b6:	460b      	mov	r3, r1
 80010b8:	6593      	str	r3, [r2, #88]	@ 0x58
 80010ba:	e009      	b.n	80010d0 <setMotorSpeed+0x1bc>
 80010bc:	697b      	ldr	r3, [r7, #20]
 80010be:	2b00      	cmp	r3, #0
 80010c0:	da00      	bge.n	80010c4 <setMotorSpeed+0x1b0>
 80010c2:	3301      	adds	r3, #1
 80010c4:	105b      	asrs	r3, r3, #1
 80010c6:	4619      	mov	r1, r3
 80010c8:	6e3b      	ldr	r3, [r7, #96]	@ 0x60
 80010ca:	681a      	ldr	r2, [r3, #0]
 80010cc:	460b      	mov	r3, r1
 80010ce:	65d3      	str	r3, [r2, #92]	@ 0x5c
	HAL_TIM_OC_Start(servo.pulseTimerGP, servo.TIM_CH_GP);
 80010d0:	6e3b      	ldr	r3, [r7, #96]	@ 0x60
 80010d2:	6e7a      	ldr	r2, [r7, #100]	@ 0x64
 80010d4:	4611      	mov	r1, r2
 80010d6:	4618      	mov	r0, r3
 80010d8:	f004 ff9a 	bl	8006010 <HAL_TIM_OC_Start>
	startTime = HAL_GetTick();
 80010dc:	f002 f82a 	bl	8003134 <HAL_GetTick>
 80010e0:	4603      	mov	r3, r0
 80010e2:	4a07      	ldr	r2, [pc, #28]	@ (8001100 <setMotorSpeed+0x1ec>)
 80010e4:	6013      	str	r3, [r2, #0]
	//HAL_TIM_PWM_Start(&htim3, TIM_CHANNEL_2);
}
 80010e6:	371c      	adds	r7, #28
 80010e8:	46bd      	mov	sp, r7
 80010ea:	e8bd 4090 	ldmia.w	sp!, {r4, r7, lr}
 80010ee:	b004      	add	sp, #16
 80010f0:	4770      	bx	lr
 80010f2:	bf00      	nop
 80010f4:	20000484 	.word	0x20000484
 80010f8:	55555556 	.word	0x55555556
 80010fc:	00a4cb80 	.word	0x00a4cb80
 8001100:	20000488 	.word	0x20000488

08001104 <userInit>:
uint8_t ledIdx = 0;

//GPIO_t configs[5] = {{GPIOE, Config_0_Pin},{GPIOE, Config_1_Pin},{GPIOE, Config_2_Pin},{GPIOE, Config_3_Pin},{GPIOE, Config_4_Pin}};
//GPIO_t OE_pin = {GPIOB,LogicShifter_OE_Pin};

void userInit(void) {
 8001104:	b580      	push	{r7, lr}
 8001106:	af00      	add	r7, sp, #0
	oledInit();
 8001108:	f000 fa5e 	bl	80015c8 <oledInit>
	interfaceInit();
 800110c:	f000 fa34 	bl	8001578 <interfaceInit>

	timer = HAL_GetTick();
 8001110:	f002 f810 	bl	8003134 <HAL_GetTick>
 8001114:	4603      	mov	r3, r0
 8001116:	4a02      	ldr	r2, [pc, #8]	@ (8001120 <userInit+0x1c>)
 8001118:	6013      	str	r3, [r2, #0]
	//__HAL_RCC_TIM3_CLK_ENABLE();
	//HAL_TIM_Base_Start(&htim3);
	//oledCheck();
	//timer = HAL_GetTick();
	//btnTimer = HAL_GetTick();
}
 800111a:	bf00      	nop
 800111c:	bd80      	pop	{r7, pc}
 800111e:	bf00      	nop
 8001120:	2000048c 	.word	0x2000048c

08001124 <userLoop>:

void userLoop(void) {														// Lowest priority code, handles updating oled display (user inputs are interrupt based)
 8001124:	b5f0      	push	{r4, r5, r6, r7, lr}
 8001126:	b09b      	sub	sp, #108	@ 0x6c
 8001128:	af10      	add	r7, sp, #64	@ 0x40
	// Some commonly used helper variables
	SSD1306_COLOR optionColor[5];
	uint8_t colorToggle = 1;
 800112a:	2301      	movs	r3, #1
 800112c:	f887 3027 	strb.w	r3, [r7, #39]	@ 0x27
	const SSD1306_Font_t *fontSelect;
	uint8_t fontHeight;
	//setGPIO(OE_pin,GPIO_PIN_SET);
	while (1) {
		if ((HAL_GetTick()-timer) > millisecondsPerFrame) {
 8001130:	f002 f800 	bl	8003134 <HAL_GetTick>
 8001134:	4602      	mov	r2, r0
 8001136:	4b9d      	ldr	r3, [pc, #628]	@ (80013ac <userLoop+0x288>)
 8001138:	681b      	ldr	r3, [r3, #0]
 800113a:	1ad2      	subs	r2, r2, r3
 800113c:	4b9c      	ldr	r3, [pc, #624]	@ (80013b0 <userLoop+0x28c>)
 800113e:	681b      	ldr	r3, [r3, #0]
 8001140:	429a      	cmp	r2, r3
 8001142:	d9f5      	bls.n	8001130 <userLoop+0xc>
			timer = HAL_GetTick();
 8001144:	f001 fff6 	bl	8003134 <HAL_GetTick>
 8001148:	4603      	mov	r3, r0
 800114a:	4a98      	ldr	r2, [pc, #608]	@ (80013ac <userLoop+0x288>)
 800114c:	6013      	str	r3, [r2, #0]
			ssd1306_Fill(Black);
 800114e:	2000      	movs	r0, #0
 8001150:	f001 fdb0 	bl	8002cb4 <ssd1306_Fill>
			int16_t newEncoderValue = __HAL_TIM_GET_COUNTER(&htim4);
 8001154:	4b97      	ldr	r3, [pc, #604]	@ (80013b4 <userLoop+0x290>)
 8001156:	681b      	ldr	r3, [r3, #0]
 8001158:	6a5b      	ldr	r3, [r3, #36]	@ 0x24
 800115a:	81fb      	strh	r3, [r7, #14]
			int16_t difference = newEncoderValue - encoderValue;
 800115c:	89fa      	ldrh	r2, [r7, #14]
 800115e:	4b96      	ldr	r3, [pc, #600]	@ (80013b8 <userLoop+0x294>)
 8001160:	681b      	ldr	r3, [r3, #0]
 8001162:	b29b      	uxth	r3, r3
 8001164:	1ad3      	subs	r3, r2, r3
 8001166:	b29b      	uxth	r3, r3
 8001168:	81bb      	strh	r3, [r7, #12]
			encoderValue = newEncoderValue;
 800116a:	f9b7 300e 	ldrsh.w	r3, [r7, #14]
 800116e:	4a92      	ldr	r2, [pc, #584]	@ (80013b8 <userLoop+0x294>)
 8001170:	6013      	str	r3, [r2, #0]
			switch (menuState.current_menu->type) {
 8001172:	4b92      	ldr	r3, [pc, #584]	@ (80013bc <userLoop+0x298>)
 8001174:	681b      	ldr	r3, [r3, #0]
 8001176:	795b      	ldrb	r3, [r3, #5]
 8001178:	2b00      	cmp	r3, #0
 800117a:	d003      	beq.n	8001184 <userLoop+0x60>
 800117c:	2b01      	cmp	r3, #1
 800117e:	f000 808e 	beq.w	800129e <userLoop+0x17a>
 8001182:	e0f3      	b.n	800136c <userLoop+0x248>
			case Node:
				// Changes selected option if encoder value changed
				if (difference != 0) { colorToggle = 1; }
 8001184:	f9b7 300c 	ldrsh.w	r3, [r7, #12]
 8001188:	2b00      	cmp	r3, #0
 800118a:	d002      	beq.n	8001192 <userLoop+0x6e>
 800118c:	2301      	movs	r3, #1
 800118e:	f887 3027 	strb.w	r3, [r7, #39]	@ 0x27
				if (difference > 0) {
 8001192:	f9b7 300c 	ldrsh.w	r3, [r7, #12]
 8001196:	2b00      	cmp	r3, #0
 8001198:	dd0f      	ble.n	80011ba <userLoop+0x96>
					if (menuState.selected_index < (menuState.current_menu->num_items - 1)) {
 800119a:	4b88      	ldr	r3, [pc, #544]	@ (80013bc <userLoop+0x298>)
 800119c:	791b      	ldrb	r3, [r3, #4]
 800119e:	461a      	mov	r2, r3
 80011a0:	4b86      	ldr	r3, [pc, #536]	@ (80013bc <userLoop+0x298>)
 80011a2:	681b      	ldr	r3, [r3, #0]
 80011a4:	791b      	ldrb	r3, [r3, #4]
 80011a6:	3b01      	subs	r3, #1
 80011a8:	429a      	cmp	r2, r3
 80011aa:	da14      	bge.n	80011d6 <userLoop+0xb2>
						menuState.selected_index += 1;
 80011ac:	4b83      	ldr	r3, [pc, #524]	@ (80013bc <userLoop+0x298>)
 80011ae:	791b      	ldrb	r3, [r3, #4]
 80011b0:	3301      	adds	r3, #1
 80011b2:	b2da      	uxtb	r2, r3
 80011b4:	4b81      	ldr	r3, [pc, #516]	@ (80013bc <userLoop+0x298>)
 80011b6:	711a      	strb	r2, [r3, #4]
 80011b8:	e00d      	b.n	80011d6 <userLoop+0xb2>
					}
				}
				else if (difference < 0) {
 80011ba:	f9b7 300c 	ldrsh.w	r3, [r7, #12]
 80011be:	2b00      	cmp	r3, #0
 80011c0:	da09      	bge.n	80011d6 <userLoop+0xb2>
					if (menuState.selected_index > 0) {
 80011c2:	4b7e      	ldr	r3, [pc, #504]	@ (80013bc <userLoop+0x298>)
 80011c4:	791b      	ldrb	r3, [r3, #4]
 80011c6:	2b00      	cmp	r3, #0
 80011c8:	d005      	beq.n	80011d6 <userLoop+0xb2>
						menuState.selected_index -= 1;
 80011ca:	4b7c      	ldr	r3, [pc, #496]	@ (80013bc <userLoop+0x298>)
 80011cc:	791b      	ldrb	r3, [r3, #4]
 80011ce:	3b01      	subs	r3, #1
 80011d0:	b2da      	uxtb	r2, r3
 80011d2:	4b7a      	ldr	r3, [pc, #488]	@ (80013bc <userLoop+0x298>)
 80011d4:	711a      	strb	r2, [r3, #4]
					}
				}

				// Set font size based on menu options
				if (menuState.current_menu->num_items < 4) {
 80011d6:	4b79      	ldr	r3, [pc, #484]	@ (80013bc <userLoop+0x298>)
 80011d8:	681b      	ldr	r3, [r3, #0]
 80011da:	791b      	ldrb	r3, [r3, #4]
 80011dc:	2b03      	cmp	r3, #3
 80011de:	d804      	bhi.n	80011ea <userLoop+0xc6>
					fontSelect = &Font_11x18;
 80011e0:	4b77      	ldr	r3, [pc, #476]	@ (80013c0 <userLoop+0x29c>)
 80011e2:	623b      	str	r3, [r7, #32]
					fontHeight = 20;
 80011e4:	2314      	movs	r3, #20
 80011e6:	77fb      	strb	r3, [r7, #31]
 80011e8:	e00d      	b.n	8001206 <userLoop+0xe2>
				} else if (menuState.current_menu->num_items < 6) {
 80011ea:	4b74      	ldr	r3, [pc, #464]	@ (80013bc <userLoop+0x298>)
 80011ec:	681b      	ldr	r3, [r3, #0]
 80011ee:	791b      	ldrb	r3, [r3, #4]
 80011f0:	2b05      	cmp	r3, #5
 80011f2:	d804      	bhi.n	80011fe <userLoop+0xda>
					fontSelect = &Font_7x10;
 80011f4:	4b73      	ldr	r3, [pc, #460]	@ (80013c4 <userLoop+0x2a0>)
 80011f6:	623b      	str	r3, [r7, #32]
					fontHeight = 12;
 80011f8:	230c      	movs	r3, #12
 80011fa:	77fb      	strb	r3, [r7, #31]
 80011fc:	e003      	b.n	8001206 <userLoop+0xe2>
				} else {
					fontSelect = &Font_6x8;
 80011fe:	4b72      	ldr	r3, [pc, #456]	@ (80013c8 <userLoop+0x2a4>)
 8001200:	623b      	str	r3, [r7, #32]
					fontHeight = 10;
 8001202:	230a      	movs	r3, #10
 8001204:	77fb      	strb	r3, [r7, #31]
				}

				// Reset colors and toggle color of selected option
				for (int i = 0; i < 5; i++) {
 8001206:	2300      	movs	r3, #0
 8001208:	61bb      	str	r3, [r7, #24]
 800120a:	e007      	b.n	800121c <userLoop+0xf8>
					optionColor[i] = White;
 800120c:	1d3a      	adds	r2, r7, #4
 800120e:	69bb      	ldr	r3, [r7, #24]
 8001210:	4413      	add	r3, r2
 8001212:	2201      	movs	r2, #1
 8001214:	701a      	strb	r2, [r3, #0]
				for (int i = 0; i < 5; i++) {
 8001216:	69bb      	ldr	r3, [r7, #24]
 8001218:	3301      	adds	r3, #1
 800121a:	61bb      	str	r3, [r7, #24]
 800121c:	69bb      	ldr	r3, [r7, #24]
 800121e:	2b04      	cmp	r3, #4
 8001220:	ddf4      	ble.n	800120c <userLoop+0xe8>
				}
				if (colorToggle) {
 8001222:	f897 3027 	ldrb.w	r3, [r7, #39]	@ 0x27
 8001226:	2b00      	cmp	r3, #0
 8001228:	d00a      	beq.n	8001240 <userLoop+0x11c>
					optionColor[menuState.selected_index] = Black;
 800122a:	4b64      	ldr	r3, [pc, #400]	@ (80013bc <userLoop+0x298>)
 800122c:	791b      	ldrb	r3, [r3, #4]
 800122e:	3328      	adds	r3, #40	@ 0x28
 8001230:	443b      	add	r3, r7
 8001232:	2200      	movs	r2, #0
 8001234:	f803 2c24 	strb.w	r2, [r3, #-36]
					colorToggle = 0;
 8001238:	2300      	movs	r3, #0
 800123a:	f887 3027 	strb.w	r3, [r7, #39]	@ 0x27
 800123e:	e002      	b.n	8001246 <userLoop+0x122>
				} else {colorToggle = 1;}
 8001240:	2301      	movs	r3, #1
 8001242:	f887 3027 	strb.w	r3, [r7, #39]	@ 0x27

				// Prints options
				for (int i=0; i < menuState.current_menu->num_items; i++) {
 8001246:	2300      	movs	r3, #0
 8001248:	617b      	str	r3, [r7, #20]
 800124a:	e020      	b.n	800128e <userLoop+0x16a>
					ssd1306_SetCursor(2, i*fontHeight);
 800124c:	697b      	ldr	r3, [r7, #20]
 800124e:	b2db      	uxtb	r3, r3
 8001250:	7ffa      	ldrb	r2, [r7, #31]
 8001252:	fb12 f303 	smulbb	r3, r2, r3
 8001256:	b2db      	uxtb	r3, r3
 8001258:	4619      	mov	r1, r3
 800125a:	2002      	movs	r0, #2
 800125c:	f001 fe74 	bl	8002f48 <ssd1306_SetCursor>
					oledPrintLinef(*fontSelect, optionColor[i], menuState.current_menu->items[i].label);
 8001260:	1d3a      	adds	r2, r7, #4
 8001262:	697b      	ldr	r3, [r7, #20]
 8001264:	4413      	add	r3, r2
 8001266:	7818      	ldrb	r0, [r3, #0]
 8001268:	4b54      	ldr	r3, [pc, #336]	@ (80013bc <userLoop+0x298>)
 800126a:	681b      	ldr	r3, [r3, #0]
 800126c:	6819      	ldr	r1, [r3, #0]
 800126e:	697a      	ldr	r2, [r7, #20]
 8001270:	4613      	mov	r3, r2
 8001272:	005b      	lsls	r3, r3, #1
 8001274:	4413      	add	r3, r2
 8001276:	009b      	lsls	r3, r3, #2
 8001278:	440b      	add	r3, r1
 800127a:	681b      	ldr	r3, [r3, #0]
 800127c:	6a3a      	ldr	r2, [r7, #32]
 800127e:	9300      	str	r3, [sp, #0]
 8001280:	4603      	mov	r3, r0
 8001282:	ca07      	ldmia	r2, {r0, r1, r2}
 8001284:	f000 fa04 	bl	8001690 <oledPrintLinef>
				for (int i=0; i < menuState.current_menu->num_items; i++) {
 8001288:	697b      	ldr	r3, [r7, #20]
 800128a:	3301      	adds	r3, #1
 800128c:	617b      	str	r3, [r7, #20]
 800128e:	4b4b      	ldr	r3, [pc, #300]	@ (80013bc <userLoop+0x298>)
 8001290:	681b      	ldr	r3, [r3, #0]
 8001292:	791b      	ldrb	r3, [r3, #4]
 8001294:	461a      	mov	r2, r3
 8001296:	697b      	ldr	r3, [r7, #20]
 8001298:	4293      	cmp	r3, r2
 800129a:	dbd7      	blt.n	800124c <userLoop+0x128>
				}
				break;
 800129c:	e066      	b.n	800136c <userLoop+0x248>
				 * Action menu (like speed control) Prints label of (only) item as well as the encodervalue*(Enc->Rpm gain)
				 * Currently there is control types:
				 * Step, where the item has an action (sets rpm)
				 * Speed, pulses are set each frame for enabled servos (no action on item)
				*/
				ssd1306_SetCursor(2, 0);
 800129e:	2100      	movs	r1, #0
 80012a0:	2002      	movs	r0, #2
 80012a2:	f001 fe51 	bl	8002f48 <ssd1306_SetCursor>
				oledPrintLinef(Font_11x18, White, menuState.current_menu->items[0].label);
 80012a6:	4b45      	ldr	r3, [pc, #276]	@ (80013bc <userLoop+0x298>)
 80012a8:	681b      	ldr	r3, [r3, #0]
 80012aa:	681b      	ldr	r3, [r3, #0]
 80012ac:	681b      	ldr	r3, [r3, #0]
 80012ae:	4a44      	ldr	r2, [pc, #272]	@ (80013c0 <userLoop+0x29c>)
 80012b0:	9300      	str	r3, [sp, #0]
 80012b2:	2301      	movs	r3, #1
 80012b4:	ca07      	ldmia	r2, {r0, r1, r2}
 80012b6:	f000 f9eb 	bl	8001690 <oledPrintLinef>
				ssd1306_SetCursor(2, 20);
 80012ba:	2114      	movs	r1, #20
 80012bc:	2002      	movs	r0, #2
 80012be:	f001 fe43 	bl	8002f48 <ssd1306_SetCursor>
				oledPrintLinef(Font_11x18, White, "%d", encoderValue*ENCRPMGAIN);
 80012c2:	4b3d      	ldr	r3, [pc, #244]	@ (80013b8 <userLoop+0x294>)
 80012c4:	681a      	ldr	r2, [r3, #0]
 80012c6:	4613      	mov	r3, r2
 80012c8:	009b      	lsls	r3, r3, #2
 80012ca:	4413      	add	r3, r2
 80012cc:	005b      	lsls	r3, r3, #1
 80012ce:	4a3c      	ldr	r2, [pc, #240]	@ (80013c0 <userLoop+0x29c>)
 80012d0:	9301      	str	r3, [sp, #4]
 80012d2:	4b3e      	ldr	r3, [pc, #248]	@ (80013cc <userLoop+0x2a8>)
 80012d4:	9300      	str	r3, [sp, #0]
 80012d6:	2301      	movs	r3, #1
 80012d8:	ca07      	ldmia	r2, {r0, r1, r2}
 80012da:	f000 f9d9 	bl	8001690 <oledPrintLinef>
				uint16_t servoEnc = __HAL_TIM_GET_COUNTER(&htim3);
 80012de:	4b3c      	ldr	r3, [pc, #240]	@ (80013d0 <userLoop+0x2ac>)
 80012e0:	681b      	ldr	r3, [r3, #0]
 80012e2:	6a5b      	ldr	r3, [r3, #36]	@ 0x24
 80012e4:	817b      	strh	r3, [r7, #10]
				ssd1306_SetCursor(2, 40);
 80012e6:	2128      	movs	r1, #40	@ 0x28
 80012e8:	2002      	movs	r0, #2
 80012ea:	f001 fe2d 	bl	8002f48 <ssd1306_SetCursor>
				oledPrintLinef(Font_11x18, White, "%d", servoEnc);
 80012ee:	897b      	ldrh	r3, [r7, #10]
 80012f0:	4a33      	ldr	r2, [pc, #204]	@ (80013c0 <userLoop+0x29c>)
 80012f2:	9301      	str	r3, [sp, #4]
 80012f4:	4b35      	ldr	r3, [pc, #212]	@ (80013cc <userLoop+0x2a8>)
 80012f6:	9300      	str	r3, [sp, #0]
 80012f8:	2301      	movs	r3, #1
 80012fa:	ca07      	ldmia	r2, {r0, r1, r2}
 80012fc:	f000 f9c8 	bl	8001690 <oledPrintLinef>
				if (menuState.current_menu->items[0].action == NULL) {
 8001300:	4b2e      	ldr	r3, [pc, #184]	@ (80013bc <userLoop+0x298>)
 8001302:	681b      	ldr	r3, [r3, #0]
 8001304:	681b      	ldr	r3, [r3, #0]
 8001306:	685b      	ldr	r3, [r3, #4]
 8001308:	2b00      	cmp	r3, #0
 800130a:	d12f      	bne.n	800136c <userLoop+0x248>
					for (int i = 0; i < 4; i++) {
 800130c:	2300      	movs	r3, #0
 800130e:	613b      	str	r3, [r7, #16]
 8001310:	e029      	b.n	8001366 <userLoop+0x242>
						if (servo[i].enableFlag) {
 8001312:	4a30      	ldr	r2, [pc, #192]	@ (80013d4 <userLoop+0x2b0>)
 8001314:	693b      	ldr	r3, [r7, #16]
 8001316:	214c      	movs	r1, #76	@ 0x4c
 8001318:	fb01 f303 	mul.w	r3, r1, r3
 800131c:	4413      	add	r3, r2
 800131e:	3318      	adds	r3, #24
 8001320:	781b      	ldrb	r3, [r3, #0]
 8001322:	2b00      	cmp	r3, #0
 8001324:	d01c      	beq.n	8001360 <userLoop+0x23c>
							setMotorSpeed(encoderValue*ENCRPMGAIN, servo[0]);
 8001326:	4b24      	ldr	r3, [pc, #144]	@ (80013b8 <userLoop+0x294>)
 8001328:	681b      	ldr	r3, [r3, #0]
 800132a:	b29b      	uxth	r3, r3
 800132c:	461a      	mov	r2, r3
 800132e:	0092      	lsls	r2, r2, #2
 8001330:	4413      	add	r3, r2
 8001332:	005b      	lsls	r3, r3, #1
 8001334:	b29b      	uxth	r3, r3
 8001336:	fa0f fc83 	sxth.w	ip, r3
 800133a:	4e26      	ldr	r6, [pc, #152]	@ (80013d4 <userLoop+0x2b0>)
 800133c:	466d      	mov	r5, sp
 800133e:	f106 040c 	add.w	r4, r6, #12
 8001342:	cc0f      	ldmia	r4!, {r0, r1, r2, r3}
 8001344:	c50f      	stmia	r5!, {r0, r1, r2, r3}
 8001346:	cc0f      	ldmia	r4!, {r0, r1, r2, r3}
 8001348:	c50f      	stmia	r5!, {r0, r1, r2, r3}
 800134a:	cc0f      	ldmia	r4!, {r0, r1, r2, r3}
 800134c:	c50f      	stmia	r5!, {r0, r1, r2, r3}
 800134e:	e894 000f 	ldmia.w	r4, {r0, r1, r2, r3}
 8001352:	e885 000f 	stmia.w	r5, {r0, r1, r2, r3}
 8001356:	e896 000e 	ldmia.w	r6, {r1, r2, r3}
 800135a:	4660      	mov	r0, ip
 800135c:	f7ff fdda 	bl	8000f14 <setMotorSpeed>
					for (int i = 0; i < 4; i++) {
 8001360:	693b      	ldr	r3, [r7, #16]
 8001362:	3301      	adds	r3, #1
 8001364:	613b      	str	r3, [r7, #16]
 8001366:	693b      	ldr	r3, [r7, #16]
 8001368:	2b03      	cmp	r3, #3
 800136a:	ddd2      	ble.n	8001312 <userLoop+0x1ee>
						}
					}
				}

			}
			if (menuState.current_menu->type == Action) {
 800136c:	4b13      	ldr	r3, [pc, #76]	@ (80013bc <userLoop+0x298>)
 800136e:	681b      	ldr	r3, [r3, #0]
 8001370:	795b      	ldrb	r3, [r3, #5]
 8001372:	2b01      	cmp	r3, #1

			} else if (menuState.current_menu->type == Node) {


			}
			if (menuState.current_menu->parent != NULL) {
 8001374:	4b11      	ldr	r3, [pc, #68]	@ (80013bc <userLoop+0x298>)
 8001376:	681b      	ldr	r3, [r3, #0]
 8001378:	689b      	ldr	r3, [r3, #8]
 800137a:	2b00      	cmp	r3, #0
 800137c:	d009      	beq.n	8001392 <userLoop+0x26e>
				ssd1306_DrawBitmap(110,2,Return_16x8,16,8,White);
 800137e:	2301      	movs	r3, #1
 8001380:	9301      	str	r3, [sp, #4]
 8001382:	2308      	movs	r3, #8
 8001384:	9300      	str	r3, [sp, #0]
 8001386:	2310      	movs	r3, #16
 8001388:	4a13      	ldr	r2, [pc, #76]	@ (80013d8 <userLoop+0x2b4>)
 800138a:	2102      	movs	r1, #2
 800138c:	206e      	movs	r0, #110	@ 0x6e
 800138e:	f001 fdf3 	bl	8002f78 <ssd1306_DrawBitmap>
			}
			ssd1306_DrawBitmap(116,54,Help_16x8,16,8,White);
 8001392:	2301      	movs	r3, #1
 8001394:	9301      	str	r3, [sp, #4]
 8001396:	2308      	movs	r3, #8
 8001398:	9300      	str	r3, [sp, #0]
 800139a:	2310      	movs	r3, #16
 800139c:	4a0f      	ldr	r2, [pc, #60]	@ (80013dc <userLoop+0x2b8>)
 800139e:	2136      	movs	r1, #54	@ 0x36
 80013a0:	2074      	movs	r0, #116	@ 0x74
 80013a2:	f001 fde9 	bl	8002f78 <ssd1306_DrawBitmap>
			ssd1306_UpdateScreen();
 80013a6:	f001 fc9d 	bl	8002ce4 <ssd1306_UpdateScreen>
		if ((HAL_GetTick()-timer) > millisecondsPerFrame) {
 80013aa:	e6c1      	b.n	8001130 <userLoop+0xc>
 80013ac:	2000048c 	.word	0x2000048c
 80013b0:	20000000 	.word	0x20000000
 80013b4:	200006cc 	.word	0x200006cc
 80013b8:	200004a0 	.word	0x200004a0
 80013bc:	200000c0 	.word	0x200000c0
 80013c0:	0800ca4c 	.word	0x0800ca4c
 80013c4:	0800ca40 	.word	0x0800ca40
 80013c8:	0800ca34 	.word	0x0800ca34
 80013cc:	0800af10 	.word	0x0800af10
 80013d0:	20000680 	.word	0x20000680
 80013d4:	200000c8 	.word	0x200000c8
 80013d8:	0800ca58 	.word	0x0800ca58
 80013dc:	0800ca68 	.word	0x0800ca68

080013e0 <setGPIO>:
uint8_t getConfig(void) {
	uint8_t config = 0;//getGPIO(configs[0]) + (getGPIO(configs[1]) << 1) + (getGPIO(configs[2]) << 2) + (getGPIO(configs[3]) << 3) + (getGPIO(configs[4]) << 4);
	return config;
}

void setGPIO(GPIO_t gpio, GPIO_PinState state) {
 80013e0:	b580      	push	{r7, lr}
 80013e2:	b084      	sub	sp, #16
 80013e4:	af00      	add	r7, sp, #0
 80013e6:	f107 0308 	add.w	r3, r7, #8
 80013ea:	e883 0003 	stmia.w	r3, {r0, r1}
 80013ee:	4613      	mov	r3, r2
 80013f0:	71fb      	strb	r3, [r7, #7]
	HAL_GPIO_WritePin(gpio.port, gpio.pin, state);
 80013f2:	68bb      	ldr	r3, [r7, #8]
 80013f4:	89b9      	ldrh	r1, [r7, #12]
 80013f6:	79fa      	ldrb	r2, [r7, #7]
 80013f8:	4618      	mov	r0, r3
 80013fa:	f002 fcef 	bl	8003ddc <HAL_GPIO_WritePin>
}
 80013fe:	bf00      	nop
 8001400:	3710      	adds	r7, #16
 8001402:	46bd      	mov	sp, r7
 8001404:	bd80      	pop	{r7, pc}

08001406 <getGPIO>:

GPIO_PinState getGPIO(GPIO_t gpio) {
 8001406:	b580      	push	{r7, lr}
 8001408:	b082      	sub	sp, #8
 800140a:	af00      	add	r7, sp, #0
 800140c:	463b      	mov	r3, r7
 800140e:	e883 0003 	stmia.w	r3, {r0, r1}
	return HAL_GPIO_ReadPin(gpio.port, gpio.pin);
 8001412:	683b      	ldr	r3, [r7, #0]
 8001414:	88ba      	ldrh	r2, [r7, #4]
 8001416:	4611      	mov	r1, r2
 8001418:	4618      	mov	r0, r3
 800141a:	f002 fcc7 	bl	8003dac <HAL_GPIO_ReadPin>
 800141e:	4603      	mov	r3, r0
}
 8001420:	4618      	mov	r0, r3
 8001422:	3708      	adds	r7, #8
 8001424:	46bd      	mov	sp, r7
 8001426:	bd80      	pop	{r7, pc}

08001428 <btnCallbackB>:
		btnATimer = HAL_GetTick();
	}
}

// Main use is return on oled menu
void btnCallbackB(void) {
 8001428:	b580      	push	{r7, lr}
 800142a:	af00      	add	r7, sp, #0
	if (HAL_GetTick() - btnBTimer > DELAY) {
 800142c:	f001 fe82 	bl	8003134 <HAL_GetTick>
 8001430:	4602      	mov	r2, r0
 8001432:	4b0b      	ldr	r3, [pc, #44]	@ (8001460 <btnCallbackB+0x38>)
 8001434:	681b      	ldr	r3, [r3, #0]
 8001436:	1ad3      	subs	r3, r2, r3
 8001438:	2bc8      	cmp	r3, #200	@ 0xc8
 800143a:	d90e      	bls.n	800145a <btnCallbackB+0x32>
			*/
		#else
			if (menuState.current_menu->type == Action) {
				// Slowdown before disabling servo
			}
			if (menuState.current_menu->parent != NULL) {
 800143c:	4b09      	ldr	r3, [pc, #36]	@ (8001464 <btnCallbackB+0x3c>)
 800143e:	681b      	ldr	r3, [r3, #0]
 8001440:	689b      	ldr	r3, [r3, #8]
 8001442:	2b00      	cmp	r3, #0
 8001444:	d004      	beq.n	8001450 <btnCallbackB+0x28>
				menuState.current_menu = menuState.current_menu->parent;
 8001446:	4b07      	ldr	r3, [pc, #28]	@ (8001464 <btnCallbackB+0x3c>)
 8001448:	681b      	ldr	r3, [r3, #0]
 800144a:	689b      	ldr	r3, [r3, #8]
 800144c:	4a05      	ldr	r2, [pc, #20]	@ (8001464 <btnCallbackB+0x3c>)
 800144e:	6013      	str	r3, [r2, #0]
			}
		#endif
		btnBTimer = HAL_GetTick();
 8001450:	f001 fe70 	bl	8003134 <HAL_GetTick>
 8001454:	4603      	mov	r3, r0
 8001456:	4a02      	ldr	r2, [pc, #8]	@ (8001460 <btnCallbackB+0x38>)
 8001458:	6013      	str	r3, [r2, #0]
	}
}
 800145a:	bf00      	nop
 800145c:	bd80      	pop	{r7, pc}
 800145e:	bf00      	nop
 8001460:	20000498 	.word	0x20000498
 8001464:	200000c0 	.word	0x200000c0

08001468 <btnCallbackEnc>:

void btnCallbackEnc(void) {
 8001468:	b580      	push	{r7, lr}
 800146a:	b082      	sub	sp, #8
 800146c:	af00      	add	r7, sp, #0
	if (HAL_GetTick() - btnEncTimer > DELAY) {
 800146e:	f001 fe61 	bl	8003134 <HAL_GetTick>
 8001472:	4602      	mov	r2, r0
 8001474:	4b3b      	ldr	r3, [pc, #236]	@ (8001564 <btnCallbackEnc+0xfc>)
 8001476:	681b      	ldr	r3, [r3, #0]
 8001478:	1ad3      	subs	r3, r2, r3
 800147a:	2bc8      	cmp	r3, #200	@ 0xc8
 800147c:	d96d      	bls.n	800155a <btnCallbackEnc+0xf2>
			case Node:

				break;
			case Action:
			}*/
			if (menuState.current_menu->type == Node) {
 800147e:	4b3a      	ldr	r3, [pc, #232]	@ (8001568 <btnCallbackEnc+0x100>)
 8001480:	681b      	ldr	r3, [r3, #0]
 8001482:	795b      	ldrb	r3, [r3, #5]
 8001484:	2b00      	cmp	r3, #0
 8001486:	d158      	bne.n	800153a <btnCallbackEnc+0xd2>
				if (menuState.current_menu->items[menuState.selected_index].submenu != NULL) {
 8001488:	4b37      	ldr	r3, [pc, #220]	@ (8001568 <btnCallbackEnc+0x100>)
 800148a:	681b      	ldr	r3, [r3, #0]
 800148c:	681a      	ldr	r2, [r3, #0]
 800148e:	4b36      	ldr	r3, [pc, #216]	@ (8001568 <btnCallbackEnc+0x100>)
 8001490:	791b      	ldrb	r3, [r3, #4]
 8001492:	4619      	mov	r1, r3
 8001494:	460b      	mov	r3, r1
 8001496:	005b      	lsls	r3, r3, #1
 8001498:	440b      	add	r3, r1
 800149a:	009b      	lsls	r3, r3, #2
 800149c:	4413      	add	r3, r2
 800149e:	689b      	ldr	r3, [r3, #8]
 80014a0:	2b00      	cmp	r3, #0
 80014a2:	d055      	beq.n	8001550 <btnCallbackEnc+0xe8>
					menuState.current_menu = menuState.current_menu->items[menuState.selected_index].submenu;
 80014a4:	4b30      	ldr	r3, [pc, #192]	@ (8001568 <btnCallbackEnc+0x100>)
 80014a6:	681b      	ldr	r3, [r3, #0]
 80014a8:	681a      	ldr	r2, [r3, #0]
 80014aa:	4b2f      	ldr	r3, [pc, #188]	@ (8001568 <btnCallbackEnc+0x100>)
 80014ac:	791b      	ldrb	r3, [r3, #4]
 80014ae:	4619      	mov	r1, r3
 80014b0:	460b      	mov	r3, r1
 80014b2:	005b      	lsls	r3, r3, #1
 80014b4:	440b      	add	r3, r1
 80014b6:	009b      	lsls	r3, r3, #2
 80014b8:	4413      	add	r3, r2
 80014ba:	689b      	ldr	r3, [r3, #8]
 80014bc:	4a2a      	ldr	r2, [pc, #168]	@ (8001568 <btnCallbackEnc+0x100>)
 80014be:	6013      	str	r3, [r2, #0]
					menuState.selected_index = 0;
 80014c0:	4b29      	ldr	r3, [pc, #164]	@ (8001568 <btnCallbackEnc+0x100>)
 80014c2:	2200      	movs	r2, #0
 80014c4:	711a      	strb	r2, [r3, #4]
					encoderValue = 0;
 80014c6:	4b29      	ldr	r3, [pc, #164]	@ (800156c <btnCallbackEnc+0x104>)
 80014c8:	2200      	movs	r2, #0
 80014ca:	601a      	str	r2, [r3, #0]
					__HAL_TIM_SET_COUNTER(&htim4, 0);
 80014cc:	4b28      	ldr	r3, [pc, #160]	@ (8001570 <btnCallbackEnc+0x108>)
 80014ce:	681b      	ldr	r3, [r3, #0]
 80014d0:	2200      	movs	r2, #0
 80014d2:	625a      	str	r2, [r3, #36]	@ 0x24
					if (menuState.current_menu->type == Action) {
 80014d4:	4b24      	ldr	r3, [pc, #144]	@ (8001568 <btnCallbackEnc+0x100>)
 80014d6:	681b      	ldr	r3, [r3, #0]
 80014d8:	795b      	ldrb	r3, [r3, #5]
 80014da:	2b01      	cmp	r3, #1
 80014dc:	d138      	bne.n	8001550 <btnCallbackEnc+0xe8>
						for (int i = 0; i < 4; i++) {
 80014de:	2300      	movs	r3, #0
 80014e0:	607b      	str	r3, [r7, #4]
 80014e2:	e026      	b.n	8001532 <btnCallbackEnc+0xca>
							if (getGPIO(servo[i].readyPin) == GPIO_PIN_RESET) {
 80014e4:	4a23      	ldr	r2, [pc, #140]	@ (8001574 <btnCallbackEnc+0x10c>)
 80014e6:	687b      	ldr	r3, [r7, #4]
 80014e8:	214c      	movs	r1, #76	@ 0x4c
 80014ea:	fb01 f303 	mul.w	r3, r1, r3
 80014ee:	4413      	add	r3, r2
 80014f0:	3304      	adds	r3, #4
 80014f2:	e893 0003 	ldmia.w	r3, {r0, r1}
 80014f6:	f7ff ff86 	bl	8001406 <getGPIO>
 80014fa:	4603      	mov	r3, r0
 80014fc:	2b00      	cmp	r3, #0
 80014fe:	d115      	bne.n	800152c <btnCallbackEnc+0xc4>
								setGPIO(servo[i].enablePin, GPIO_PIN_RESET);
 8001500:	4a1c      	ldr	r2, [pc, #112]	@ (8001574 <btnCallbackEnc+0x10c>)
 8001502:	687b      	ldr	r3, [r7, #4]
 8001504:	214c      	movs	r1, #76	@ 0x4c
 8001506:	fb01 f303 	mul.w	r3, r1, r3
 800150a:	4413      	add	r3, r2
 800150c:	3318      	adds	r3, #24
 800150e:	2200      	movs	r2, #0
 8001510:	3304      	adds	r3, #4
 8001512:	e893 0003 	ldmia.w	r3, {r0, r1}
 8001516:	f7ff ff63 	bl	80013e0 <setGPIO>
								servo[i].enableFlag = 1;
 800151a:	4a16      	ldr	r2, [pc, #88]	@ (8001574 <btnCallbackEnc+0x10c>)
 800151c:	687b      	ldr	r3, [r7, #4]
 800151e:	214c      	movs	r1, #76	@ 0x4c
 8001520:	fb01 f303 	mul.w	r3, r1, r3
 8001524:	4413      	add	r3, r2
 8001526:	3318      	adds	r3, #24
 8001528:	2201      	movs	r2, #1
 800152a:	701a      	strb	r2, [r3, #0]
						for (int i = 0; i < 4; i++) {
 800152c:	687b      	ldr	r3, [r7, #4]
 800152e:	3301      	adds	r3, #1
 8001530:	607b      	str	r3, [r7, #4]
 8001532:	687b      	ldr	r3, [r7, #4]
 8001534:	2b03      	cmp	r3, #3
 8001536:	ddd5      	ble.n	80014e4 <btnCallbackEnc+0x7c>
 8001538:	e00a      	b.n	8001550 <btnCallbackEnc+0xe8>
							}
						}
					}
				}

			} else if (menuState.current_menu->items[0].action != NULL) {
 800153a:	4b0b      	ldr	r3, [pc, #44]	@ (8001568 <btnCallbackEnc+0x100>)
 800153c:	681b      	ldr	r3, [r3, #0]
 800153e:	681b      	ldr	r3, [r3, #0]
 8001540:	685b      	ldr	r3, [r3, #4]
 8001542:	2b00      	cmp	r3, #0
 8001544:	d004      	beq.n	8001550 <btnCallbackEnc+0xe8>
				menuState.current_menu->items[0].action();
 8001546:	4b08      	ldr	r3, [pc, #32]	@ (8001568 <btnCallbackEnc+0x100>)
 8001548:	681b      	ldr	r3, [r3, #0]
 800154a:	681b      	ldr	r3, [r3, #0]
 800154c:	685b      	ldr	r3, [r3, #4]
 800154e:	4798      	blx	r3
			}

		#endif
		btnEncTimer = HAL_GetTick();
 8001550:	f001 fdf0 	bl	8003134 <HAL_GetTick>
 8001554:	4603      	mov	r3, r0
 8001556:	4a03      	ldr	r2, [pc, #12]	@ (8001564 <btnCallbackEnc+0xfc>)
 8001558:	6013      	str	r3, [r2, #0]
	}
}
 800155a:	bf00      	nop
 800155c:	3708      	adds	r7, #8
 800155e:	46bd      	mov	sp, r7
 8001560:	bd80      	pop	{r7, pc}
 8001562:	bf00      	nop
 8001564:	2000049c 	.word	0x2000049c
 8001568:	200000c0 	.word	0x200000c0
 800156c:	200004a0 	.word	0x200004a0
 8001570:	200006cc 	.word	0x200006cc
 8001574:	200000c8 	.word	0x200000c8

08001578 <interfaceInit>:

void interfaceInit(void) {
 8001578:	b580      	push	{r7, lr}
 800157a:	b082      	sub	sp, #8
 800157c:	af00      	add	r7, sp, #0
	uint32_t initTime = HAL_GetTick();					// button timers for debouncing
 800157e:	f001 fdd9 	bl	8003134 <HAL_GetTick>
 8001582:	6078      	str	r0, [r7, #4]
	btnATimer = initTime;
 8001584:	4a0b      	ldr	r2, [pc, #44]	@ (80015b4 <interfaceInit+0x3c>)
 8001586:	687b      	ldr	r3, [r7, #4]
 8001588:	6013      	str	r3, [r2, #0]
	btnBTimer = initTime;
 800158a:	4a0b      	ldr	r2, [pc, #44]	@ (80015b8 <interfaceInit+0x40>)
 800158c:	687b      	ldr	r3, [r7, #4]
 800158e:	6013      	str	r3, [r2, #0]
	btnEncTimer = initTime;
 8001590:	4a0a      	ldr	r2, [pc, #40]	@ (80015bc <interfaceInit+0x44>)
 8001592:	687b      	ldr	r3, [r7, #4]
 8001594:	6013      	str	r3, [r2, #0]
	HAL_TIM_Encoder_Start(&htim4, TIM_CHANNEL_ALL);		// User encoder
 8001596:	213c      	movs	r1, #60	@ 0x3c
 8001598:	4809      	ldr	r0, [pc, #36]	@ (80015c0 <interfaceInit+0x48>)
 800159a:	f004 ff59 	bl	8006450 <HAL_TIM_Encoder_Start>
	encoderValue = __HAL_TIM_GET_COUNTER(&htim4);
 800159e:	4b08      	ldr	r3, [pc, #32]	@ (80015c0 <interfaceInit+0x48>)
 80015a0:	681b      	ldr	r3, [r3, #0]
 80015a2:	6a5b      	ldr	r3, [r3, #36]	@ 0x24
 80015a4:	461a      	mov	r2, r3
 80015a6:	4b07      	ldr	r3, [pc, #28]	@ (80015c4 <interfaceInit+0x4c>)
 80015a8:	601a      	str	r2, [r3, #0]
}
 80015aa:	bf00      	nop
 80015ac:	3708      	adds	r7, #8
 80015ae:	46bd      	mov	sp, r7
 80015b0:	bd80      	pop	{r7, pc}
 80015b2:	bf00      	nop
 80015b4:	20000494 	.word	0x20000494
 80015b8:	20000498 	.word	0x20000498
 80015bc:	2000049c 	.word	0x2000049c
 80015c0:	200006cc 	.word	0x200006cc
 80015c4:	200004a0 	.word	0x200004a0

080015c8 <oledInit>:

void oledInit(void) {
 80015c8:	b580      	push	{r7, lr}
 80015ca:	b082      	sub	sp, #8
 80015cc:	af02      	add	r7, sp, #8
	if (!oledCheck()) {
 80015ce:	f000 f845 	bl	800165c <oledCheck>
 80015d2:	4603      	mov	r3, r0
 80015d4:	2b00      	cmp	r3, #0
 80015d6:	d037      	beq.n	8001648 <oledInit+0x80>
		return;
	}
	ssd1306_Init();
 80015d8:	f001 fb02 	bl	8002be0 <ssd1306_Init>
	ssd1306_DrawBitmap(0,0,MAF_128x64,128,64,Black);
	ssd1306_UpdateScreen();
	HAL_Delay(1500);
	*/

	ssd1306_Fill(White);
 80015dc:	2001      	movs	r0, #1
 80015de:	f001 fb69 	bl	8002cb4 <ssd1306_Fill>
	ssd1306_DrawBitmap(0,0,CoopF_128x64,128,64,Black);
 80015e2:	2300      	movs	r3, #0
 80015e4:	9301      	str	r3, [sp, #4]
 80015e6:	2340      	movs	r3, #64	@ 0x40
 80015e8:	9300      	str	r3, [sp, #0]
 80015ea:	2380      	movs	r3, #128	@ 0x80
 80015ec:	4a18      	ldr	r2, [pc, #96]	@ (8001650 <oledInit+0x88>)
 80015ee:	2100      	movs	r1, #0
 80015f0:	2000      	movs	r0, #0
 80015f2:	f001 fcc1 	bl	8002f78 <ssd1306_DrawBitmap>
	ssd1306_UpdateScreen();
 80015f6:	f001 fb75 	bl	8002ce4 <ssd1306_UpdateScreen>
	HAL_Delay(400);
 80015fa:	f44f 70c8 	mov.w	r0, #400	@ 0x190
 80015fe:	f001 fda5 	bl	800314c <HAL_Delay>
	ssd1306_Fill(White);
 8001602:	2001      	movs	r0, #1
 8001604:	f001 fb56 	bl	8002cb4 <ssd1306_Fill>
	ssd1306_DrawBitmap(0,0,CoopR_128x64,128,64,Black);
 8001608:	2300      	movs	r3, #0
 800160a:	9301      	str	r3, [sp, #4]
 800160c:	2340      	movs	r3, #64	@ 0x40
 800160e:	9300      	str	r3, [sp, #0]
 8001610:	2380      	movs	r3, #128	@ 0x80
 8001612:	4a10      	ldr	r2, [pc, #64]	@ (8001654 <oledInit+0x8c>)
 8001614:	2100      	movs	r1, #0
 8001616:	2000      	movs	r0, #0
 8001618:	f001 fcae 	bl	8002f78 <ssd1306_DrawBitmap>
	ssd1306_UpdateScreen();
 800161c:	f001 fb62 	bl	8002ce4 <ssd1306_UpdateScreen>
	HAL_Delay(400);
 8001620:	f44f 70c8 	mov.w	r0, #400	@ 0x190
 8001624:	f001 fd92 	bl	800314c <HAL_Delay>
	ssd1306_Fill(White);
 8001628:	2001      	movs	r0, #1
 800162a:	f001 fb43 	bl	8002cb4 <ssd1306_Fill>
	ssd1306_DrawBitmap(0,0,CoopC_128x64,128,64,Black);
 800162e:	2300      	movs	r3, #0
 8001630:	9301      	str	r3, [sp, #4]
 8001632:	2340      	movs	r3, #64	@ 0x40
 8001634:	9300      	str	r3, [sp, #0]
 8001636:	2380      	movs	r3, #128	@ 0x80
 8001638:	4a07      	ldr	r2, [pc, #28]	@ (8001658 <oledInit+0x90>)
 800163a:	2100      	movs	r1, #0
 800163c:	2000      	movs	r0, #0
 800163e:	f001 fc9b 	bl	8002f78 <ssd1306_DrawBitmap>
	ssd1306_UpdateScreen();
 8001642:	f001 fb4f 	bl	8002ce4 <ssd1306_UpdateScreen>
 8001646:	e000      	b.n	800164a <oledInit+0x82>
		return;
 8001648:	bf00      	nop


}
 800164a:	46bd      	mov	sp, r7
 800164c:	bd80      	pop	{r7, pc}
 800164e:	bf00      	nop
 8001650:	0800ce78 	.word	0x0800ce78
 8001654:	0800d278 	.word	0x0800d278
 8001658:	0800ca78 	.word	0x0800ca78

0800165c <oledCheck>:

uint8_t oledCheck(void) {		// To check if an oled is present
 800165c:	b580      	push	{r7, lr}
 800165e:	af00      	add	r7, sp, #0
	if (HAL_I2C_IsDeviceReady(&hi2c2, SSD1306_I2C_ADDR, 1, 10) == HAL_OK) {
 8001660:	230a      	movs	r3, #10
 8001662:	2201      	movs	r2, #1
 8001664:	2178      	movs	r1, #120	@ 0x78
 8001666:	4808      	ldr	r0, [pc, #32]	@ (8001688 <oledCheck+0x2c>)
 8001668:	f002 fdb4 	bl	80041d4 <HAL_I2C_IsDeviceReady>
 800166c:	4603      	mov	r3, r0
 800166e:	2b00      	cmp	r3, #0
 8001670:	d103      	bne.n	800167a <oledCheck+0x1e>
		oledStatus = 1;
 8001672:	4b06      	ldr	r3, [pc, #24]	@ (800168c <oledCheck+0x30>)
 8001674:	2201      	movs	r2, #1
 8001676:	701a      	strb	r2, [r3, #0]
 8001678:	e002      	b.n	8001680 <oledCheck+0x24>
	} else {
		oledStatus = 0;
 800167a:	4b04      	ldr	r3, [pc, #16]	@ (800168c <oledCheck+0x30>)
 800167c:	2200      	movs	r2, #0
 800167e:	701a      	strb	r2, [r3, #0]
	}
	return oledStatus;
 8001680:	4b02      	ldr	r3, [pc, #8]	@ (800168c <oledCheck+0x30>)
 8001682:	781b      	ldrb	r3, [r3, #0]
}
 8001684:	4618      	mov	r0, r3
 8001686:	bd80      	pop	{r7, pc}
 8001688:	200005e0 	.word	0x200005e0
 800168c:	20000490 	.word	0x20000490

08001690 <oledPrintLinef>:

// Public-facing function
void oledPrintLinef(SSD1306_Font_t font, SSD1306_COLOR color, const char *fmt, ...) {
 8001690:	b590      	push	{r4, r7, lr}
 8001692:	b089      	sub	sp, #36	@ 0x24
 8001694:	af02      	add	r7, sp, #8
 8001696:	1d3c      	adds	r4, r7, #4
 8001698:	e884 0007 	stmia.w	r4, {r0, r1, r2}
 800169c:	70fb      	strb	r3, [r7, #3]
    va_list args;
    va_start(args, fmt);
 800169e:	f107 032c 	add.w	r3, r7, #44	@ 0x2c
 80016a2:	617b      	str	r3, [r7, #20]
    oledPrintLinev(font, color, fmt, args);
 80016a4:	78fa      	ldrb	r2, [r7, #3]
 80016a6:	697b      	ldr	r3, [r7, #20]
 80016a8:	9301      	str	r3, [sp, #4]
 80016aa:	6abb      	ldr	r3, [r7, #40]	@ 0x28
 80016ac:	9300      	str	r3, [sp, #0]
 80016ae:	4613      	mov	r3, r2
 80016b0:	1d3a      	adds	r2, r7, #4
 80016b2:	ca07      	ldmia	r2, {r0, r1, r2}
 80016b4:	f000 f804 	bl	80016c0 <oledPrintLinev>
    va_end(args);
}
 80016b8:	bf00      	nop
 80016ba:	371c      	adds	r7, #28
 80016bc:	46bd      	mov	sp, r7
 80016be:	bd90      	pop	{r4, r7, pc}

080016c0 <oledPrintLinev>:

    ssd1306_UpdateScreen();
}

// New helper that takes a va_list
void oledPrintLinev(SSD1306_Font_t font, SSD1306_COLOR color, const char *fmt, va_list args) {
 80016c0:	b590      	push	{r4, r7, lr}
 80016c2:	b08b      	sub	sp, #44	@ 0x2c
 80016c4:	af02      	add	r7, sp, #8
 80016c6:	1d3c      	adds	r4, r7, #4
 80016c8:	e884 0007 	stmia.w	r4, {r0, r1, r2}
 80016cc:	70fb      	strb	r3, [r7, #3]
    // Determine the length needed for the formatted string
    va_list args_copy;
    va_copy(args_copy, args); // Copy because vsnprintf consumes it
 80016ce:	6b7b      	ldr	r3, [r7, #52]	@ 0x34
 80016d0:	617b      	str	r3, [r7, #20]
    int len = vsnprintf(NULL, 0, fmt, args_copy);
 80016d2:	697b      	ldr	r3, [r7, #20]
 80016d4:	6b3a      	ldr	r2, [r7, #48]	@ 0x30
 80016d6:	2100      	movs	r1, #0
 80016d8:	2000      	movs	r0, #0
 80016da:	f007 fbe5 	bl	8008ea8 <vsniprintf>
 80016de:	61f8      	str	r0, [r7, #28]
    va_end(args_copy);

    if (len < 0) return;
 80016e0:	69fb      	ldr	r3, [r7, #28]
 80016e2:	2b00      	cmp	r3, #0
 80016e4:	db1c      	blt.n	8001720 <oledPrintLinev+0x60>

    char *buffer = malloc(len + 1);
 80016e6:	69fb      	ldr	r3, [r7, #28]
 80016e8:	3301      	adds	r3, #1
 80016ea:	4618      	mov	r0, r3
 80016ec:	f006 fd94 	bl	8008218 <malloc>
 80016f0:	4603      	mov	r3, r0
 80016f2:	61bb      	str	r3, [r7, #24]
    if (!buffer) return;
 80016f4:	69bb      	ldr	r3, [r7, #24]
 80016f6:	2b00      	cmp	r3, #0
 80016f8:	d014      	beq.n	8001724 <oledPrintLinev+0x64>

    vsnprintf(buffer, len + 1, fmt, args);
 80016fa:	69fb      	ldr	r3, [r7, #28]
 80016fc:	3301      	adds	r3, #1
 80016fe:	4619      	mov	r1, r3
 8001700:	6b7b      	ldr	r3, [r7, #52]	@ 0x34
 8001702:	6b3a      	ldr	r2, [r7, #48]	@ 0x30
 8001704:	69b8      	ldr	r0, [r7, #24]
 8001706:	f007 fbcf 	bl	8008ea8 <vsniprintf>
    ssd1306_WriteString(buffer, font, color);
 800170a:	78fb      	ldrb	r3, [r7, #3]
 800170c:	9300      	str	r3, [sp, #0]
 800170e:	1d3b      	adds	r3, r7, #4
 8001710:	cb0e      	ldmia	r3, {r1, r2, r3}
 8001712:	69b8      	ldr	r0, [r7, #24]
 8001714:	f001 fbf2 	bl	8002efc <ssd1306_WriteString>
    free(buffer);
 8001718:	69b8      	ldr	r0, [r7, #24]
 800171a:	f006 fd85 	bl	8008228 <free>
 800171e:	e002      	b.n	8001726 <oledPrintLinev+0x66>
    if (len < 0) return;
 8001720:	bf00      	nop
 8001722:	e000      	b.n	8001726 <oledPrintLinev+0x66>
    if (!buffer) return;
 8001724:	bf00      	nop
}
 8001726:	3724      	adds	r7, #36	@ 0x24
 8001728:	46bd      	mov	sp, r7
 800172a:	bd90      	pop	{r4, r7, pc}

0800172c <main>:
/**
  * @brief  The application entry point.
  * @retval int
  */
int main(void)
{
 800172c:	b580      	push	{r7, lr}
 800172e:	af00      	add	r7, sp, #0
  /* USER CODE END 1 */

  /* MCU Configuration--------------------------------------------------------*/

  /* Reset of all peripherals, Initializes the Flash interface and the Systick. */
  HAL_Init();
 8001730:	f001 fcae 	bl	8003090 <HAL_Init>
  /* USER CODE BEGIN Init */

  /* USER CODE END Init */

  /* Configure the system clock */
  SystemClock_Config();
 8001734:	f000 f81a 	bl	800176c <SystemClock_Config>
  /* USER CODE BEGIN SysInit */

  /* USER CODE END SysInit */

  /* Initialize all configured peripherals */
  MX_GPIO_Init();
 8001738:	f000 fafc 	bl	8001d34 <MX_GPIO_Init>
  MX_ETH_Init();
 800173c:	f000 f884 	bl	8001848 <MX_ETH_Init>
  MX_I2C1_Init();
 8001740:	f000 f8d0 	bl	80018e4 <MX_I2C1_Init>
  MX_USART3_UART_Init();
 8001744:	f000 fa98 	bl	8001c78 <MX_USART3_UART_Init>
  MX_USB_OTG_FS_PCD_Init();
 8001748:	f000 fac6 	bl	8001cd8 <MX_USB_OTG_FS_PCD_Init>
  MX_I2C2_Init();
 800174c:	f000 f90a 	bl	8001964 <MX_I2C2_Init>
  MX_TIM4_Init();
 8001750:	f000 f9ee 	bl	8001b30 <MX_TIM4_Init>
  MX_TIM3_Init();
 8001754:	f000 f99e 	bl	8001a94 <MX_TIM3_Init>
  MX_TIM2_Init();
 8001758:	f000 f946 	bl	80019e8 <MX_TIM2_Init>
  MX_TIM14_Init();
 800175c:	f000 fa3e 	bl	8001bdc <MX_TIM14_Init>
  /* USER CODE BEGIN 2 */
  userInit();
 8001760:	f7ff fcd0 	bl	8001104 <userInit>

  /* Infinite loop */
  /* USER CODE BEGIN WHILE */
  while (1)
  {
	  userLoop();
 8001764:	f7ff fcde 	bl	8001124 <userLoop>
 8001768:	e7fc      	b.n	8001764 <main+0x38>
	...

0800176c <SystemClock_Config>:
/**
  * @brief System Clock Configuration
  * @retval None
  */
void SystemClock_Config(void)
{
 800176c:	b580      	push	{r7, lr}
 800176e:	b094      	sub	sp, #80	@ 0x50
 8001770:	af00      	add	r7, sp, #0
  RCC_OscInitTypeDef RCC_OscInitStruct = {0};
 8001772:	f107 0320 	add.w	r3, r7, #32
 8001776:	2230      	movs	r2, #48	@ 0x30
 8001778:	2100      	movs	r1, #0
 800177a:	4618      	mov	r0, r3
 800177c:	f007 fbbc 	bl	8008ef8 <memset>
  RCC_ClkInitTypeDef RCC_ClkInitStruct = {0};
 8001780:	f107 030c 	add.w	r3, r7, #12
 8001784:	2200      	movs	r2, #0
 8001786:	601a      	str	r2, [r3, #0]
 8001788:	605a      	str	r2, [r3, #4]
 800178a:	609a      	str	r2, [r3, #8]
 800178c:	60da      	str	r2, [r3, #12]
 800178e:	611a      	str	r2, [r3, #16]

  /** Configure LSE Drive Capability
  */
  HAL_PWR_EnableBkUpAccess();
 8001790:	f003 fa6c 	bl	8004c6c <HAL_PWR_EnableBkUpAccess>

  /** Configure the main internal regulator output voltage
  */
  __HAL_RCC_PWR_CLK_ENABLE();
 8001794:	4b2a      	ldr	r3, [pc, #168]	@ (8001840 <SystemClock_Config+0xd4>)
 8001796:	6c1b      	ldr	r3, [r3, #64]	@ 0x40
 8001798:	4a29      	ldr	r2, [pc, #164]	@ (8001840 <SystemClock_Config+0xd4>)
 800179a:	f043 5380 	orr.w	r3, r3, #268435456	@ 0x10000000
 800179e:	6413      	str	r3, [r2, #64]	@ 0x40
 80017a0:	4b27      	ldr	r3, [pc, #156]	@ (8001840 <SystemClock_Config+0xd4>)
 80017a2:	6c1b      	ldr	r3, [r3, #64]	@ 0x40
 80017a4:	f003 5380 	and.w	r3, r3, #268435456	@ 0x10000000
 80017a8:	60bb      	str	r3, [r7, #8]
 80017aa:	68bb      	ldr	r3, [r7, #8]
  __HAL_PWR_VOLTAGESCALING_CONFIG(PWR_REGULATOR_VOLTAGE_SCALE1);
 80017ac:	4b25      	ldr	r3, [pc, #148]	@ (8001844 <SystemClock_Config+0xd8>)
 80017ae:	681b      	ldr	r3, [r3, #0]
 80017b0:	4a24      	ldr	r2, [pc, #144]	@ (8001844 <SystemClock_Config+0xd8>)
 80017b2:	f443 4340 	orr.w	r3, r3, #49152	@ 0xc000
 80017b6:	6013      	str	r3, [r2, #0]
 80017b8:	4b22      	ldr	r3, [pc, #136]	@ (8001844 <SystemClock_Config+0xd8>)
 80017ba:	681b      	ldr	r3, [r3, #0]
 80017bc:	f403 4340 	and.w	r3, r3, #49152	@ 0xc000
 80017c0:	607b      	str	r3, [r7, #4]
 80017c2:	687b      	ldr	r3, [r7, #4]

  /** Initializes the RCC Oscillators according to the specified parameters
  * in the RCC_OscInitTypeDef structure.
  */
  RCC_OscInitStruct.OscillatorType = RCC_OSCILLATORTYPE_HSE;
 80017c4:	2301      	movs	r3, #1
 80017c6:	623b      	str	r3, [r7, #32]
  RCC_OscInitStruct.HSEState = RCC_HSE_BYPASS;
 80017c8:	f44f 23a0 	mov.w	r3, #327680	@ 0x50000
 80017cc:	627b      	str	r3, [r7, #36]	@ 0x24
  RCC_OscInitStruct.PLL.PLLState = RCC_PLL_ON;
 80017ce:	2302      	movs	r3, #2
 80017d0:	63bb      	str	r3, [r7, #56]	@ 0x38
  RCC_OscInitStruct.PLL.PLLSource = RCC_PLLSOURCE_HSE;
 80017d2:	f44f 0380 	mov.w	r3, #4194304	@ 0x400000
 80017d6:	63fb      	str	r3, [r7, #60]	@ 0x3c
  RCC_OscInitStruct.PLL.PLLM = 4;
 80017d8:	2304      	movs	r3, #4
 80017da:	643b      	str	r3, [r7, #64]	@ 0x40
  RCC_OscInitStruct.PLL.PLLN = 216;
 80017dc:	23d8      	movs	r3, #216	@ 0xd8
 80017de:	647b      	str	r3, [r7, #68]	@ 0x44
  RCC_OscInitStruct.PLL.PLLP = RCC_PLLP_DIV2;
 80017e0:	2302      	movs	r3, #2
 80017e2:	64bb      	str	r3, [r7, #72]	@ 0x48
  RCC_OscInitStruct.PLL.PLLQ = 9;
 80017e4:	2309      	movs	r3, #9
 80017e6:	64fb      	str	r3, [r7, #76]	@ 0x4c
  if (HAL_RCC_OscConfig(&RCC_OscInitStruct) != HAL_OK)
 80017e8:	f107 0320 	add.w	r3, r7, #32
 80017ec:	4618      	mov	r0, r3
 80017ee:	f003 fa9d 	bl	8004d2c <HAL_RCC_OscConfig>
 80017f2:	4603      	mov	r3, r0
 80017f4:	2b00      	cmp	r3, #0
 80017f6:	d001      	beq.n	80017fc <SystemClock_Config+0x90>
  {
    Error_Handler();
 80017f8:	f000 fbb4 	bl	8001f64 <Error_Handler>
  }

  /** Activate the Over-Drive mode
  */
  if (HAL_PWREx_EnableOverDrive() != HAL_OK)
 80017fc:	f003 fa46 	bl	8004c8c <HAL_PWREx_EnableOverDrive>
 8001800:	4603      	mov	r3, r0
 8001802:	2b00      	cmp	r3, #0
 8001804:	d001      	beq.n	800180a <SystemClock_Config+0x9e>
  {
    Error_Handler();
 8001806:	f000 fbad 	bl	8001f64 <Error_Handler>
  }

  /** Initializes the CPU, AHB and APB buses clocks
  */
  RCC_ClkInitStruct.ClockType = RCC_CLOCKTYPE_HCLK|RCC_CLOCKTYPE_SYSCLK
 800180a:	230f      	movs	r3, #15
 800180c:	60fb      	str	r3, [r7, #12]
                              |RCC_CLOCKTYPE_PCLK1|RCC_CLOCKTYPE_PCLK2;
  RCC_ClkInitStruct.SYSCLKSource = RCC_SYSCLKSOURCE_PLLCLK;
 800180e:	2302      	movs	r3, #2
 8001810:	613b      	str	r3, [r7, #16]
  RCC_ClkInitStruct.AHBCLKDivider = RCC_SYSCLK_DIV1;
 8001812:	2300      	movs	r3, #0
 8001814:	617b      	str	r3, [r7, #20]
  RCC_ClkInitStruct.APB1CLKDivider = RCC_HCLK_DIV4;
 8001816:	f44f 53a0 	mov.w	r3, #5120	@ 0x1400
 800181a:	61bb      	str	r3, [r7, #24]
  RCC_ClkInitStruct.APB2CLKDivider = RCC_HCLK_DIV2;
 800181c:	f44f 5380 	mov.w	r3, #4096	@ 0x1000
 8001820:	61fb      	str	r3, [r7, #28]

  if (HAL_RCC_ClockConfig(&RCC_ClkInitStruct, FLASH_LATENCY_7) != HAL_OK)
 8001822:	f107 030c 	add.w	r3, r7, #12
 8001826:	2107      	movs	r1, #7
 8001828:	4618      	mov	r0, r3
 800182a:	f003 fd23 	bl	8005274 <HAL_RCC_ClockConfig>
 800182e:	4603      	mov	r3, r0
 8001830:	2b00      	cmp	r3, #0
 8001832:	d001      	beq.n	8001838 <SystemClock_Config+0xcc>
  {
    Error_Handler();
 8001834:	f000 fb96 	bl	8001f64 <Error_Handler>
  }
}
 8001838:	bf00      	nop
 800183a:	3750      	adds	r7, #80	@ 0x50
 800183c:	46bd      	mov	sp, r7
 800183e:	bd80      	pop	{r7, pc}
 8001840:	40023800 	.word	0x40023800
 8001844:	40007000 	.word	0x40007000

08001848 <MX_ETH_Init>:
  * @brief ETH Initialization Function
  * @param None
  * @retval None
  */
static void MX_ETH_Init(void)
{
 8001848:	b580      	push	{r7, lr}
 800184a:	af00      	add	r7, sp, #0
   static uint8_t MACAddr[6];

  /* USER CODE BEGIN ETH_Init 1 */

  /* USER CODE END ETH_Init 1 */
  heth.Instance = ETH;
 800184c:	4b1f      	ldr	r3, [pc, #124]	@ (80018cc <MX_ETH_Init+0x84>)
 800184e:	4a20      	ldr	r2, [pc, #128]	@ (80018d0 <MX_ETH_Init+0x88>)
 8001850:	601a      	str	r2, [r3, #0]
  MACAddr[0] = 0x00;
 8001852:	4b20      	ldr	r3, [pc, #128]	@ (80018d4 <MX_ETH_Init+0x8c>)
 8001854:	2200      	movs	r2, #0
 8001856:	701a      	strb	r2, [r3, #0]
  MACAddr[1] = 0x80;
 8001858:	4b1e      	ldr	r3, [pc, #120]	@ (80018d4 <MX_ETH_Init+0x8c>)
 800185a:	2280      	movs	r2, #128	@ 0x80
 800185c:	705a      	strb	r2, [r3, #1]
  MACAddr[2] = 0xE1;
 800185e:	4b1d      	ldr	r3, [pc, #116]	@ (80018d4 <MX_ETH_Init+0x8c>)
 8001860:	22e1      	movs	r2, #225	@ 0xe1
 8001862:	709a      	strb	r2, [r3, #2]
  MACAddr[3] = 0x00;
 8001864:	4b1b      	ldr	r3, [pc, #108]	@ (80018d4 <MX_ETH_Init+0x8c>)
 8001866:	2200      	movs	r2, #0
 8001868:	70da      	strb	r2, [r3, #3]
  MACAddr[4] = 0x00;
 800186a:	4b1a      	ldr	r3, [pc, #104]	@ (80018d4 <MX_ETH_Init+0x8c>)
 800186c:	2200      	movs	r2, #0
 800186e:	711a      	strb	r2, [r3, #4]
  MACAddr[5] = 0x00;
 8001870:	4b18      	ldr	r3, [pc, #96]	@ (80018d4 <MX_ETH_Init+0x8c>)
 8001872:	2200      	movs	r2, #0
 8001874:	715a      	strb	r2, [r3, #5]
  heth.Init.MACAddr = &MACAddr[0];
 8001876:	4b15      	ldr	r3, [pc, #84]	@ (80018cc <MX_ETH_Init+0x84>)
 8001878:	4a16      	ldr	r2, [pc, #88]	@ (80018d4 <MX_ETH_Init+0x8c>)
 800187a:	605a      	str	r2, [r3, #4]
  heth.Init.MediaInterface = HAL_ETH_RMII_MODE;
 800187c:	4b13      	ldr	r3, [pc, #76]	@ (80018cc <MX_ETH_Init+0x84>)
 800187e:	f44f 0200 	mov.w	r2, #8388608	@ 0x800000
 8001882:	609a      	str	r2, [r3, #8]
  heth.Init.TxDesc = DMATxDscrTab;
 8001884:	4b11      	ldr	r3, [pc, #68]	@ (80018cc <MX_ETH_Init+0x84>)
 8001886:	4a14      	ldr	r2, [pc, #80]	@ (80018d8 <MX_ETH_Init+0x90>)
 8001888:	60da      	str	r2, [r3, #12]
  heth.Init.RxDesc = DMARxDscrTab;
 800188a:	4b10      	ldr	r3, [pc, #64]	@ (80018cc <MX_ETH_Init+0x84>)
 800188c:	4a13      	ldr	r2, [pc, #76]	@ (80018dc <MX_ETH_Init+0x94>)
 800188e:	611a      	str	r2, [r3, #16]
  heth.Init.RxBuffLen = 1524;
 8001890:	4b0e      	ldr	r3, [pc, #56]	@ (80018cc <MX_ETH_Init+0x84>)
 8001892:	f240 52f4 	movw	r2, #1524	@ 0x5f4
 8001896:	615a      	str	r2, [r3, #20]

  /* USER CODE BEGIN MACADDRESS */

  /* USER CODE END MACADDRESS */

  if (HAL_ETH_Init(&heth) != HAL_OK)
 8001898:	480c      	ldr	r0, [pc, #48]	@ (80018cc <MX_ETH_Init+0x84>)
 800189a:	f001 fd8d 	bl	80033b8 <HAL_ETH_Init>
 800189e:	4603      	mov	r3, r0
 80018a0:	2b00      	cmp	r3, #0
 80018a2:	d001      	beq.n	80018a8 <MX_ETH_Init+0x60>
  {
    Error_Handler();
 80018a4:	f000 fb5e 	bl	8001f64 <Error_Handler>
  }

  memset(&TxConfig, 0 , sizeof(ETH_TxPacketConfig));
 80018a8:	2238      	movs	r2, #56	@ 0x38
 80018aa:	2100      	movs	r1, #0
 80018ac:	480c      	ldr	r0, [pc, #48]	@ (80018e0 <MX_ETH_Init+0x98>)
 80018ae:	f007 fb23 	bl	8008ef8 <memset>
  TxConfig.Attributes = ETH_TX_PACKETS_FEATURES_CSUM | ETH_TX_PACKETS_FEATURES_CRCPAD;
 80018b2:	4b0b      	ldr	r3, [pc, #44]	@ (80018e0 <MX_ETH_Init+0x98>)
 80018b4:	2221      	movs	r2, #33	@ 0x21
 80018b6:	601a      	str	r2, [r3, #0]
  TxConfig.ChecksumCtrl = ETH_CHECKSUM_IPHDR_PAYLOAD_INSERT_PHDR_CALC;
 80018b8:	4b09      	ldr	r3, [pc, #36]	@ (80018e0 <MX_ETH_Init+0x98>)
 80018ba:	f44f 0240 	mov.w	r2, #12582912	@ 0xc00000
 80018be:	615a      	str	r2, [r3, #20]
  TxConfig.CRCPadCtrl = ETH_CRC_PAD_INSERT;
 80018c0:	4b07      	ldr	r3, [pc, #28]	@ (80018e0 <MX_ETH_Init+0x98>)
 80018c2:	2200      	movs	r2, #0
 80018c4:	611a      	str	r2, [r3, #16]
  /* USER CODE BEGIN ETH_Init 2 */

  /* USER CODE END ETH_Init 2 */

}
 80018c6:	bf00      	nop
 80018c8:	bd80      	pop	{r7, pc}
 80018ca:	bf00      	nop
 80018cc:	200004dc 	.word	0x200004dc
 80018d0:	40028000 	.word	0x40028000
 80018d4:	20000ccc 	.word	0x20000ccc
 80018d8:	200003c8 	.word	0x200003c8
 80018dc:	20000328 	.word	0x20000328
 80018e0:	200004a4 	.word	0x200004a4

080018e4 <MX_I2C1_Init>:
  * @brief I2C1 Initialization Function
  * @param None
  * @retval None
  */
static void MX_I2C1_Init(void)
{
 80018e4:	b580      	push	{r7, lr}
 80018e6:	af00      	add	r7, sp, #0
  /* USER CODE END I2C1_Init 0 */

  /* USER CODE BEGIN I2C1_Init 1 */

  /* USER CODE END I2C1_Init 1 */
  hi2c1.Instance = I2C1;
 80018e8:	4b1b      	ldr	r3, [pc, #108]	@ (8001958 <MX_I2C1_Init+0x74>)
 80018ea:	4a1c      	ldr	r2, [pc, #112]	@ (800195c <MX_I2C1_Init+0x78>)
 80018ec:	601a      	str	r2, [r3, #0]
  hi2c1.Init.Timing = 0x20404768;
 80018ee:	4b1a      	ldr	r3, [pc, #104]	@ (8001958 <MX_I2C1_Init+0x74>)
 80018f0:	4a1b      	ldr	r2, [pc, #108]	@ (8001960 <MX_I2C1_Init+0x7c>)
 80018f2:	605a      	str	r2, [r3, #4]
  hi2c1.Init.OwnAddress1 = 0;
 80018f4:	4b18      	ldr	r3, [pc, #96]	@ (8001958 <MX_I2C1_Init+0x74>)
 80018f6:	2200      	movs	r2, #0
 80018f8:	609a      	str	r2, [r3, #8]
  hi2c1.Init.AddressingMode = I2C_ADDRESSINGMODE_7BIT;
 80018fa:	4b17      	ldr	r3, [pc, #92]	@ (8001958 <MX_I2C1_Init+0x74>)
 80018fc:	2201      	movs	r2, #1
 80018fe:	60da      	str	r2, [r3, #12]
  hi2c1.Init.DualAddressMode = I2C_DUALADDRESS_DISABLE;
 8001900:	4b15      	ldr	r3, [pc, #84]	@ (8001958 <MX_I2C1_Init+0x74>)
 8001902:	2200      	movs	r2, #0
 8001904:	611a      	str	r2, [r3, #16]
  hi2c1.Init.OwnAddress2 = 0;
 8001906:	4b14      	ldr	r3, [pc, #80]	@ (8001958 <MX_I2C1_Init+0x74>)
 8001908:	2200      	movs	r2, #0
 800190a:	615a      	str	r2, [r3, #20]
  hi2c1.Init.OwnAddress2Masks = I2C_OA2_NOMASK;
 800190c:	4b12      	ldr	r3, [pc, #72]	@ (8001958 <MX_I2C1_Init+0x74>)
 800190e:	2200      	movs	r2, #0
 8001910:	619a      	str	r2, [r3, #24]
  hi2c1.Init.GeneralCallMode = I2C_GENERALCALL_DISABLE;
 8001912:	4b11      	ldr	r3, [pc, #68]	@ (8001958 <MX_I2C1_Init+0x74>)
 8001914:	2200      	movs	r2, #0
 8001916:	61da      	str	r2, [r3, #28]
  hi2c1.Init.NoStretchMode = I2C_NOSTRETCH_DISABLE;
 8001918:	4b0f      	ldr	r3, [pc, #60]	@ (8001958 <MX_I2C1_Init+0x74>)
 800191a:	2200      	movs	r2, #0
 800191c:	621a      	str	r2, [r3, #32]
  if (HAL_I2C_Init(&hi2c1) != HAL_OK)
 800191e:	480e      	ldr	r0, [pc, #56]	@ (8001958 <MX_I2C1_Init+0x74>)
 8001920:	f002 faa8 	bl	8003e74 <HAL_I2C_Init>
 8001924:	4603      	mov	r3, r0
 8001926:	2b00      	cmp	r3, #0
 8001928:	d001      	beq.n	800192e <MX_I2C1_Init+0x4a>
  {
    Error_Handler();
 800192a:	f000 fb1b 	bl	8001f64 <Error_Handler>
  }

  /** Configure Analogue filter
  */
  if (HAL_I2CEx_ConfigAnalogFilter(&hi2c1, I2C_ANALOGFILTER_ENABLE) != HAL_OK)
 800192e:	2100      	movs	r1, #0
 8001930:	4809      	ldr	r0, [pc, #36]	@ (8001958 <MX_I2C1_Init+0x74>)
 8001932:	f002 ffa9 	bl	8004888 <HAL_I2CEx_ConfigAnalogFilter>
 8001936:	4603      	mov	r3, r0
 8001938:	2b00      	cmp	r3, #0
 800193a:	d001      	beq.n	8001940 <MX_I2C1_Init+0x5c>
  {
    Error_Handler();
 800193c:	f000 fb12 	bl	8001f64 <Error_Handler>
  }

  /** Configure Digital filter
  */
  if (HAL_I2CEx_ConfigDigitalFilter(&hi2c1, 0) != HAL_OK)
 8001940:	2100      	movs	r1, #0
 8001942:	4805      	ldr	r0, [pc, #20]	@ (8001958 <MX_I2C1_Init+0x74>)
 8001944:	f002 ffeb 	bl	800491e <HAL_I2CEx_ConfigDigitalFilter>
 8001948:	4603      	mov	r3, r0
 800194a:	2b00      	cmp	r3, #0
 800194c:	d001      	beq.n	8001952 <MX_I2C1_Init+0x6e>
  {
    Error_Handler();
 800194e:	f000 fb09 	bl	8001f64 <Error_Handler>
  }
  /* USER CODE BEGIN I2C1_Init 2 */

  /* USER CODE END I2C1_Init 2 */

}
 8001952:	bf00      	nop
 8001954:	bd80      	pop	{r7, pc}
 8001956:	bf00      	nop
 8001958:	2000058c 	.word	0x2000058c
 800195c:	40005400 	.word	0x40005400
 8001960:	20404768 	.word	0x20404768

08001964 <MX_I2C2_Init>:
  * @brief I2C2 Initialization Function
  * @param None
  * @retval None
  */
static void MX_I2C2_Init(void)
{
 8001964:	b580      	push	{r7, lr}
 8001966:	af00      	add	r7, sp, #0
  /* USER CODE END I2C2_Init 0 */

  /* USER CODE BEGIN I2C2_Init 1 */

  /* USER CODE END I2C2_Init 1 */
  hi2c2.Instance = I2C2;
 8001968:	4b1c      	ldr	r3, [pc, #112]	@ (80019dc <MX_I2C2_Init+0x78>)
 800196a:	4a1d      	ldr	r2, [pc, #116]	@ (80019e0 <MX_I2C2_Init+0x7c>)
 800196c:	601a      	str	r2, [r3, #0]
  hi2c2.Init.Timing = 0x00200922;
 800196e:	4b1b      	ldr	r3, [pc, #108]	@ (80019dc <MX_I2C2_Init+0x78>)
 8001970:	4a1c      	ldr	r2, [pc, #112]	@ (80019e4 <MX_I2C2_Init+0x80>)
 8001972:	605a      	str	r2, [r3, #4]
  hi2c2.Init.OwnAddress1 = 0;
 8001974:	4b19      	ldr	r3, [pc, #100]	@ (80019dc <MX_I2C2_Init+0x78>)
 8001976:	2200      	movs	r2, #0
 8001978:	609a      	str	r2, [r3, #8]
  hi2c2.Init.AddressingMode = I2C_ADDRESSINGMODE_7BIT;
 800197a:	4b18      	ldr	r3, [pc, #96]	@ (80019dc <MX_I2C2_Init+0x78>)
 800197c:	2201      	movs	r2, #1
 800197e:	60da      	str	r2, [r3, #12]
  hi2c2.Init.DualAddressMode = I2C_DUALADDRESS_DISABLE;
 8001980:	4b16      	ldr	r3, [pc, #88]	@ (80019dc <MX_I2C2_Init+0x78>)
 8001982:	2200      	movs	r2, #0
 8001984:	611a      	str	r2, [r3, #16]
  hi2c2.Init.OwnAddress2 = 0;
 8001986:	4b15      	ldr	r3, [pc, #84]	@ (80019dc <MX_I2C2_Init+0x78>)
 8001988:	2200      	movs	r2, #0
 800198a:	615a      	str	r2, [r3, #20]
  hi2c2.Init.OwnAddress2Masks = I2C_OA2_NOMASK;
 800198c:	4b13      	ldr	r3, [pc, #76]	@ (80019dc <MX_I2C2_Init+0x78>)
 800198e:	2200      	movs	r2, #0
 8001990:	619a      	str	r2, [r3, #24]
  hi2c2.Init.GeneralCallMode = I2C_GENERALCALL_DISABLE;
 8001992:	4b12      	ldr	r3, [pc, #72]	@ (80019dc <MX_I2C2_Init+0x78>)
 8001994:	2200      	movs	r2, #0
 8001996:	61da      	str	r2, [r3, #28]
  hi2c2.Init.NoStretchMode = I2C_NOSTRETCH_DISABLE;
 8001998:	4b10      	ldr	r3, [pc, #64]	@ (80019dc <MX_I2C2_Init+0x78>)
 800199a:	2200      	movs	r2, #0
 800199c:	621a      	str	r2, [r3, #32]
  if (HAL_I2C_Init(&hi2c2) != HAL_OK)
 800199e:	480f      	ldr	r0, [pc, #60]	@ (80019dc <MX_I2C2_Init+0x78>)
 80019a0:	f002 fa68 	bl	8003e74 <HAL_I2C_Init>
 80019a4:	4603      	mov	r3, r0
 80019a6:	2b00      	cmp	r3, #0
 80019a8:	d001      	beq.n	80019ae <MX_I2C2_Init+0x4a>
  {
    Error_Handler();
 80019aa:	f000 fadb 	bl	8001f64 <Error_Handler>
  }

  /** Configure Analogue filter
  */
  if (HAL_I2CEx_ConfigAnalogFilter(&hi2c2, I2C_ANALOGFILTER_ENABLE) != HAL_OK)
 80019ae:	2100      	movs	r1, #0
 80019b0:	480a      	ldr	r0, [pc, #40]	@ (80019dc <MX_I2C2_Init+0x78>)
 80019b2:	f002 ff69 	bl	8004888 <HAL_I2CEx_ConfigAnalogFilter>
 80019b6:	4603      	mov	r3, r0
 80019b8:	2b00      	cmp	r3, #0
 80019ba:	d001      	beq.n	80019c0 <MX_I2C2_Init+0x5c>
  {
    Error_Handler();
 80019bc:	f000 fad2 	bl	8001f64 <Error_Handler>
  }

  /** Configure Digital filter
  */
  if (HAL_I2CEx_ConfigDigitalFilter(&hi2c2, 0) != HAL_OK)
 80019c0:	2100      	movs	r1, #0
 80019c2:	4806      	ldr	r0, [pc, #24]	@ (80019dc <MX_I2C2_Init+0x78>)
 80019c4:	f002 ffab 	bl	800491e <HAL_I2CEx_ConfigDigitalFilter>
 80019c8:	4603      	mov	r3, r0
 80019ca:	2b00      	cmp	r3, #0
 80019cc:	d001      	beq.n	80019d2 <MX_I2C2_Init+0x6e>
  {
    Error_Handler();
 80019ce:	f000 fac9 	bl	8001f64 <Error_Handler>
  }

  /** I2C Enable Fast Mode Plus
  */
  HAL_I2CEx_EnableFastModePlus(I2C_FASTMODEPLUS_I2C2);
 80019d2:	2002      	movs	r0, #2
 80019d4:	f002 fff0 	bl	80049b8 <HAL_I2CEx_EnableFastModePlus>
  /* USER CODE BEGIN I2C2_Init 2 */

  /* USER CODE END I2C2_Init 2 */

}
 80019d8:	bf00      	nop
 80019da:	bd80      	pop	{r7, pc}
 80019dc:	200005e0 	.word	0x200005e0
 80019e0:	40005800 	.word	0x40005800
 80019e4:	00200922 	.word	0x00200922

080019e8 <MX_TIM2_Init>:
  * @brief TIM2 Initialization Function
  * @param None
  * @retval None
  */
static void MX_TIM2_Init(void)
{
 80019e8:	b580      	push	{r7, lr}
 80019ea:	b088      	sub	sp, #32
 80019ec:	af00      	add	r7, sp, #0

  /* USER CODE BEGIN TIM2_Init 0 */

  /* USER CODE END TIM2_Init 0 */

  TIM_ClockConfigTypeDef sClockSourceConfig = {0};
 80019ee:	f107 0310 	add.w	r3, r7, #16
 80019f2:	2200      	movs	r2, #0
 80019f4:	601a      	str	r2, [r3, #0]
 80019f6:	605a      	str	r2, [r3, #4]
 80019f8:	609a      	str	r2, [r3, #8]
 80019fa:	60da      	str	r2, [r3, #12]
  TIM_MasterConfigTypeDef sMasterConfig = {0};
 80019fc:	1d3b      	adds	r3, r7, #4
 80019fe:	2200      	movs	r2, #0
 8001a00:	601a      	str	r2, [r3, #0]
 8001a02:	605a      	str	r2, [r3, #4]
 8001a04:	609a      	str	r2, [r3, #8]

  /* USER CODE BEGIN TIM2_Init 1 */

  /* USER CODE END TIM2_Init 1 */
  htim2.Instance = TIM2;
 8001a06:	4b22      	ldr	r3, [pc, #136]	@ (8001a90 <MX_TIM2_Init+0xa8>)
 8001a08:	f04f 4280 	mov.w	r2, #1073741824	@ 0x40000000
 8001a0c:	601a      	str	r2, [r3, #0]
  htim2.Init.Prescaler = 8399;
 8001a0e:	4b20      	ldr	r3, [pc, #128]	@ (8001a90 <MX_TIM2_Init+0xa8>)
 8001a10:	f242 02cf 	movw	r2, #8399	@ 0x20cf
 8001a14:	605a      	str	r2, [r3, #4]
  htim2.Init.CounterMode = TIM_COUNTERMODE_UP;
 8001a16:	4b1e      	ldr	r3, [pc, #120]	@ (8001a90 <MX_TIM2_Init+0xa8>)
 8001a18:	2200      	movs	r2, #0
 8001a1a:	609a      	str	r2, [r3, #8]
  htim2.Init.Period = 166;
 8001a1c:	4b1c      	ldr	r3, [pc, #112]	@ (8001a90 <MX_TIM2_Init+0xa8>)
 8001a1e:	22a6      	movs	r2, #166	@ 0xa6
 8001a20:	60da      	str	r2, [r3, #12]
  htim2.Init.ClockDivision = TIM_CLOCKDIVISION_DIV1;
 8001a22:	4b1b      	ldr	r3, [pc, #108]	@ (8001a90 <MX_TIM2_Init+0xa8>)
 8001a24:	2200      	movs	r2, #0
 8001a26:	611a      	str	r2, [r3, #16]
  htim2.Init.AutoReloadPreload = TIM_AUTORELOAD_PRELOAD_DISABLE;
 8001a28:	4b19      	ldr	r3, [pc, #100]	@ (8001a90 <MX_TIM2_Init+0xa8>)
 8001a2a:	2200      	movs	r2, #0
 8001a2c:	619a      	str	r2, [r3, #24]
  if (HAL_TIM_Base_Init(&htim2) != HAL_OK)
 8001a2e:	4818      	ldr	r0, [pc, #96]	@ (8001a90 <MX_TIM2_Init+0xa8>)
 8001a30:	f004 fa36 	bl	8005ea0 <HAL_TIM_Base_Init>
 8001a34:	4603      	mov	r3, r0
 8001a36:	2b00      	cmp	r3, #0
 8001a38:	d001      	beq.n	8001a3e <MX_TIM2_Init+0x56>
  {
    Error_Handler();
 8001a3a:	f000 fa93 	bl	8001f64 <Error_Handler>
  }
  sClockSourceConfig.ClockSource = TIM_CLOCKSOURCE_INTERNAL;
 8001a3e:	f44f 5380 	mov.w	r3, #4096	@ 0x1000
 8001a42:	613b      	str	r3, [r7, #16]
  if (HAL_TIM_ConfigClockSource(&htim2, &sClockSourceConfig) != HAL_OK)
 8001a44:	f107 0310 	add.w	r3, r7, #16
 8001a48:	4619      	mov	r1, r3
 8001a4a:	4811      	ldr	r0, [pc, #68]	@ (8001a90 <MX_TIM2_Init+0xa8>)
 8001a4c:	f004 ff10 	bl	8006870 <HAL_TIM_ConfigClockSource>
 8001a50:	4603      	mov	r3, r0
 8001a52:	2b00      	cmp	r3, #0
 8001a54:	d001      	beq.n	8001a5a <MX_TIM2_Init+0x72>
  {
    Error_Handler();
 8001a56:	f000 fa85 	bl	8001f64 <Error_Handler>
  }
  sMasterConfig.MasterOutputTrigger = TIM_TRGO_RESET;
 8001a5a:	2300      	movs	r3, #0
 8001a5c:	607b      	str	r3, [r7, #4]
  sMasterConfig.MasterSlaveMode = TIM_MASTERSLAVEMODE_DISABLE;
 8001a5e:	2300      	movs	r3, #0
 8001a60:	60fb      	str	r3, [r7, #12]
  if (HAL_TIMEx_MasterConfigSynchronization(&htim2, &sMasterConfig) != HAL_OK)
 8001a62:	1d3b      	adds	r3, r7, #4
 8001a64:	4619      	mov	r1, r3
 8001a66:	480a      	ldr	r0, [pc, #40]	@ (8001a90 <MX_TIM2_Init+0xa8>)
 8001a68:	f005 fbbe 	bl	80071e8 <HAL_TIMEx_MasterConfigSynchronization>
 8001a6c:	4603      	mov	r3, r0
 8001a6e:	2b00      	cmp	r3, #0
 8001a70:	d001      	beq.n	8001a76 <MX_TIM2_Init+0x8e>
  {
    Error_Handler();
 8001a72:	f000 fa77 	bl	8001f64 <Error_Handler>
  }
  /* USER CODE BEGIN TIM2_Init 2 */
  HAL_NVIC_SetPriority(TIM2_IRQn, 0, 0);
 8001a76:	2200      	movs	r2, #0
 8001a78:	2100      	movs	r1, #0
 8001a7a:	201c      	movs	r0, #28
 8001a7c:	f001 fc65 	bl	800334a <HAL_NVIC_SetPriority>
  HAL_NVIC_EnableIRQ(TIM2_IRQn);
 8001a80:	201c      	movs	r0, #28
 8001a82:	f001 fc7e 	bl	8003382 <HAL_NVIC_EnableIRQ>

  //HAL_NVIC_SetPriority(TIM2_IRQn, 0, 0);
  //HAL_NVIC_EnableIRQ(TIM2_IRQn);
  /* USER CODE END TIM2_Init 2 */

}
 8001a86:	bf00      	nop
 8001a88:	3720      	adds	r7, #32
 8001a8a:	46bd      	mov	sp, r7
 8001a8c:	bd80      	pop	{r7, pc}
 8001a8e:	bf00      	nop
 8001a90:	20000634 	.word	0x20000634

08001a94 <MX_TIM3_Init>:
  * @brief TIM3 Initialization Function
  * @param None
  * @retval None
  */
static void MX_TIM3_Init(void)
{
 8001a94:	b580      	push	{r7, lr}
 8001a96:	b088      	sub	sp, #32
 8001a98:	af00      	add	r7, sp, #0

  /* USER CODE BEGIN TIM3_Init 0 */

  /* USER CODE END TIM3_Init 0 */

  TIM_ClockConfigTypeDef sClockSourceConfig = {0};
 8001a9a:	f107 0310 	add.w	r3, r7, #16
 8001a9e:	2200      	movs	r2, #0
 8001aa0:	601a      	str	r2, [r3, #0]
 8001aa2:	605a      	str	r2, [r3, #4]
 8001aa4:	609a      	str	r2, [r3, #8]
 8001aa6:	60da      	str	r2, [r3, #12]
  TIM_MasterConfigTypeDef sMasterConfig = {0};
 8001aa8:	1d3b      	adds	r3, r7, #4
 8001aaa:	2200      	movs	r2, #0
 8001aac:	601a      	str	r2, [r3, #0]
 8001aae:	605a      	str	r2, [r3, #4]
 8001ab0:	609a      	str	r2, [r3, #8]

  /* USER CODE BEGIN TIM3_Init 1 */

  /* USER CODE END TIM3_Init 1 */
  htim3.Instance = TIM3;
 8001ab2:	4b1d      	ldr	r3, [pc, #116]	@ (8001b28 <MX_TIM3_Init+0x94>)
 8001ab4:	4a1d      	ldr	r2, [pc, #116]	@ (8001b2c <MX_TIM3_Init+0x98>)
 8001ab6:	601a      	str	r2, [r3, #0]
  htim3.Init.Prescaler = 0;
 8001ab8:	4b1b      	ldr	r3, [pc, #108]	@ (8001b28 <MX_TIM3_Init+0x94>)
 8001aba:	2200      	movs	r2, #0
 8001abc:	605a      	str	r2, [r3, #4]
  htim3.Init.CounterMode = TIM_COUNTERMODE_UP;
 8001abe:	4b1a      	ldr	r3, [pc, #104]	@ (8001b28 <MX_TIM3_Init+0x94>)
 8001ac0:	2200      	movs	r2, #0
 8001ac2:	609a      	str	r2, [r3, #8]
  htim3.Init.Period = 65535;
 8001ac4:	4b18      	ldr	r3, [pc, #96]	@ (8001b28 <MX_TIM3_Init+0x94>)
 8001ac6:	f64f 72ff 	movw	r2, #65535	@ 0xffff
 8001aca:	60da      	str	r2, [r3, #12]
  htim3.Init.ClockDivision = TIM_CLOCKDIVISION_DIV1;
 8001acc:	4b16      	ldr	r3, [pc, #88]	@ (8001b28 <MX_TIM3_Init+0x94>)
 8001ace:	2200      	movs	r2, #0
 8001ad0:	611a      	str	r2, [r3, #16]
  htim3.Init.AutoReloadPreload = TIM_AUTORELOAD_PRELOAD_DISABLE;
 8001ad2:	4b15      	ldr	r3, [pc, #84]	@ (8001b28 <MX_TIM3_Init+0x94>)
 8001ad4:	2200      	movs	r2, #0
 8001ad6:	619a      	str	r2, [r3, #24]
  if (HAL_TIM_Base_Init(&htim3) != HAL_OK)
 8001ad8:	4813      	ldr	r0, [pc, #76]	@ (8001b28 <MX_TIM3_Init+0x94>)
 8001ada:	f004 f9e1 	bl	8005ea0 <HAL_TIM_Base_Init>
 8001ade:	4603      	mov	r3, r0
 8001ae0:	2b00      	cmp	r3, #0
 8001ae2:	d001      	beq.n	8001ae8 <MX_TIM3_Init+0x54>
  {
    Error_Handler();
 8001ae4:	f000 fa3e 	bl	8001f64 <Error_Handler>
  }
  sClockSourceConfig.ClockSource = TIM_CLOCKSOURCE_INTERNAL;
 8001ae8:	f44f 5380 	mov.w	r3, #4096	@ 0x1000
 8001aec:	613b      	str	r3, [r7, #16]
  if (HAL_TIM_ConfigClockSource(&htim3, &sClockSourceConfig) != HAL_OK)
 8001aee:	f107 0310 	add.w	r3, r7, #16
 8001af2:	4619      	mov	r1, r3
 8001af4:	480c      	ldr	r0, [pc, #48]	@ (8001b28 <MX_TIM3_Init+0x94>)
 8001af6:	f004 febb 	bl	8006870 <HAL_TIM_ConfigClockSource>
 8001afa:	4603      	mov	r3, r0
 8001afc:	2b00      	cmp	r3, #0
 8001afe:	d001      	beq.n	8001b04 <MX_TIM3_Init+0x70>
  {
    Error_Handler();
 8001b00:	f000 fa30 	bl	8001f64 <Error_Handler>
  }
  sMasterConfig.MasterOutputTrigger = TIM_TRGO_RESET;
 8001b04:	2300      	movs	r3, #0
 8001b06:	607b      	str	r3, [r7, #4]
  sMasterConfig.MasterSlaveMode = TIM_MASTERSLAVEMODE_DISABLE;
 8001b08:	2300      	movs	r3, #0
 8001b0a:	60fb      	str	r3, [r7, #12]
  if (HAL_TIMEx_MasterConfigSynchronization(&htim3, &sMasterConfig) != HAL_OK)
 8001b0c:	1d3b      	adds	r3, r7, #4
 8001b0e:	4619      	mov	r1, r3
 8001b10:	4805      	ldr	r0, [pc, #20]	@ (8001b28 <MX_TIM3_Init+0x94>)
 8001b12:	f005 fb69 	bl	80071e8 <HAL_TIMEx_MasterConfigSynchronization>
 8001b16:	4603      	mov	r3, r0
 8001b18:	2b00      	cmp	r3, #0
 8001b1a:	d001      	beq.n	8001b20 <MX_TIM3_Init+0x8c>
  {
    Error_Handler();
 8001b1c:	f000 fa22 	bl	8001f64 <Error_Handler>
  }
  /* USER CODE BEGIN TIM3_Init 2 */

  /* USER CODE END TIM3_Init 2 */

}
 8001b20:	bf00      	nop
 8001b22:	3720      	adds	r7, #32
 8001b24:	46bd      	mov	sp, r7
 8001b26:	bd80      	pop	{r7, pc}
 8001b28:	20000680 	.word	0x20000680
 8001b2c:	40000400 	.word	0x40000400

08001b30 <MX_TIM4_Init>:
  * @brief TIM4 Initialization Function
  * @param None
  * @retval None
  */
static void MX_TIM4_Init(void)
{
 8001b30:	b580      	push	{r7, lr}
 8001b32:	b08c      	sub	sp, #48	@ 0x30
 8001b34:	af00      	add	r7, sp, #0

  /* USER CODE BEGIN TIM4_Init 0 */

  /* USER CODE END TIM4_Init 0 */

  TIM_Encoder_InitTypeDef sConfig = {0};
 8001b36:	f107 030c 	add.w	r3, r7, #12
 8001b3a:	2224      	movs	r2, #36	@ 0x24
 8001b3c:	2100      	movs	r1, #0
 8001b3e:	4618      	mov	r0, r3
 8001b40:	f007 f9da 	bl	8008ef8 <memset>
  TIM_MasterConfigTypeDef sMasterConfig = {0};
 8001b44:	463b      	mov	r3, r7
 8001b46:	2200      	movs	r2, #0
 8001b48:	601a      	str	r2, [r3, #0]
 8001b4a:	605a      	str	r2, [r3, #4]
 8001b4c:	609a      	str	r2, [r3, #8]

  /* USER CODE BEGIN TIM4_Init 1 */

  /* USER CODE END TIM4_Init 1 */
  htim4.Instance = TIM4;
 8001b4e:	4b21      	ldr	r3, [pc, #132]	@ (8001bd4 <MX_TIM4_Init+0xa4>)
 8001b50:	4a21      	ldr	r2, [pc, #132]	@ (8001bd8 <MX_TIM4_Init+0xa8>)
 8001b52:	601a      	str	r2, [r3, #0]
  htim4.Init.Prescaler = 0;
 8001b54:	4b1f      	ldr	r3, [pc, #124]	@ (8001bd4 <MX_TIM4_Init+0xa4>)
 8001b56:	2200      	movs	r2, #0
 8001b58:	605a      	str	r2, [r3, #4]
  htim4.Init.CounterMode = TIM_COUNTERMODE_UP;
 8001b5a:	4b1e      	ldr	r3, [pc, #120]	@ (8001bd4 <MX_TIM4_Init+0xa4>)
 8001b5c:	2200      	movs	r2, #0
 8001b5e:	609a      	str	r2, [r3, #8]
  htim4.Init.Period = 65535;
 8001b60:	4b1c      	ldr	r3, [pc, #112]	@ (8001bd4 <MX_TIM4_Init+0xa4>)
 8001b62:	f64f 72ff 	movw	r2, #65535	@ 0xffff
 8001b66:	60da      	str	r2, [r3, #12]
  htim4.Init.ClockDivision = TIM_CLOCKDIVISION_DIV1;
 8001b68:	4b1a      	ldr	r3, [pc, #104]	@ (8001bd4 <MX_TIM4_Init+0xa4>)
 8001b6a:	2200      	movs	r2, #0
 8001b6c:	611a      	str	r2, [r3, #16]
  htim4.Init.AutoReloadPreload = TIM_AUTORELOAD_PRELOAD_DISABLE;
 8001b6e:	4b19      	ldr	r3, [pc, #100]	@ (8001bd4 <MX_TIM4_Init+0xa4>)
 8001b70:	2200      	movs	r2, #0
 8001b72:	619a      	str	r2, [r3, #24]
  sConfig.EncoderMode = TIM_ENCODERMODE_TI12;
 8001b74:	2303      	movs	r3, #3
 8001b76:	60fb      	str	r3, [r7, #12]
  sConfig.IC1Polarity = TIM_ICPOLARITY_RISING;
 8001b78:	2300      	movs	r3, #0
 8001b7a:	613b      	str	r3, [r7, #16]
  sConfig.IC1Selection = TIM_ICSELECTION_DIRECTTI;
 8001b7c:	2301      	movs	r3, #1
 8001b7e:	617b      	str	r3, [r7, #20]
  sConfig.IC1Prescaler = TIM_ICPSC_DIV1;
 8001b80:	2300      	movs	r3, #0
 8001b82:	61bb      	str	r3, [r7, #24]
  sConfig.IC1Filter = 0;
 8001b84:	2300      	movs	r3, #0
 8001b86:	61fb      	str	r3, [r7, #28]
  sConfig.IC2Polarity = TIM_ICPOLARITY_RISING;
 8001b88:	2300      	movs	r3, #0
 8001b8a:	623b      	str	r3, [r7, #32]
  sConfig.IC2Selection = TIM_ICSELECTION_DIRECTTI;
 8001b8c:	2301      	movs	r3, #1
 8001b8e:	627b      	str	r3, [r7, #36]	@ 0x24
  sConfig.IC2Prescaler = TIM_ICPSC_DIV1;
 8001b90:	2300      	movs	r3, #0
 8001b92:	62bb      	str	r3, [r7, #40]	@ 0x28
  sConfig.IC2Filter = 0;
 8001b94:	2300      	movs	r3, #0
 8001b96:	62fb      	str	r3, [r7, #44]	@ 0x2c
  if (HAL_TIM_Encoder_Init(&htim4, &sConfig) != HAL_OK)
 8001b98:	f107 030c 	add.w	r3, r7, #12
 8001b9c:	4619      	mov	r1, r3
 8001b9e:	480d      	ldr	r0, [pc, #52]	@ (8001bd4 <MX_TIM4_Init+0xa4>)
 8001ba0:	f004 fbb0 	bl	8006304 <HAL_TIM_Encoder_Init>
 8001ba4:	4603      	mov	r3, r0
 8001ba6:	2b00      	cmp	r3, #0
 8001ba8:	d001      	beq.n	8001bae <MX_TIM4_Init+0x7e>
  {
    Error_Handler();
 8001baa:	f000 f9db 	bl	8001f64 <Error_Handler>
  }
  sMasterConfig.MasterOutputTrigger = TIM_TRGO_RESET;
 8001bae:	2300      	movs	r3, #0
 8001bb0:	603b      	str	r3, [r7, #0]
  sMasterConfig.MasterSlaveMode = TIM_MASTERSLAVEMODE_DISABLE;
 8001bb2:	2300      	movs	r3, #0
 8001bb4:	60bb      	str	r3, [r7, #8]
  if (HAL_TIMEx_MasterConfigSynchronization(&htim4, &sMasterConfig) != HAL_OK)
 8001bb6:	463b      	mov	r3, r7
 8001bb8:	4619      	mov	r1, r3
 8001bba:	4806      	ldr	r0, [pc, #24]	@ (8001bd4 <MX_TIM4_Init+0xa4>)
 8001bbc:	f005 fb14 	bl	80071e8 <HAL_TIMEx_MasterConfigSynchronization>
 8001bc0:	4603      	mov	r3, r0
 8001bc2:	2b00      	cmp	r3, #0
 8001bc4:	d001      	beq.n	8001bca <MX_TIM4_Init+0x9a>
  {
    Error_Handler();
 8001bc6:	f000 f9cd 	bl	8001f64 <Error_Handler>
  }
  /* USER CODE BEGIN TIM4_Init 2 */

  /* USER CODE END TIM4_Init 2 */

}
 8001bca:	bf00      	nop
 8001bcc:	3730      	adds	r7, #48	@ 0x30
 8001bce:	46bd      	mov	sp, r7
 8001bd0:	bd80      	pop	{r7, pc}
 8001bd2:	bf00      	nop
 8001bd4:	200006cc 	.word	0x200006cc
 8001bd8:	40000800 	.word	0x40000800

08001bdc <MX_TIM14_Init>:
  * @brief TIM14 Initialization Function
  * @param None
  * @retval None
  */
static void MX_TIM14_Init(void)
{
 8001bdc:	b580      	push	{r7, lr}
 8001bde:	b088      	sub	sp, #32
 8001be0:	af00      	add	r7, sp, #0

  /* USER CODE BEGIN TIM14_Init 0 */

  /* USER CODE END TIM14_Init 0 */

  TIM_OC_InitTypeDef sConfigOC = {0};
 8001be2:	1d3b      	adds	r3, r7, #4
 8001be4:	2200      	movs	r2, #0
 8001be6:	601a      	str	r2, [r3, #0]
 8001be8:	605a      	str	r2, [r3, #4]
 8001bea:	609a      	str	r2, [r3, #8]
 8001bec:	60da      	str	r2, [r3, #12]
 8001bee:	611a      	str	r2, [r3, #16]
 8001bf0:	615a      	str	r2, [r3, #20]
 8001bf2:	619a      	str	r2, [r3, #24]

  /* USER CODE BEGIN TIM14_Init 1 */

  /* USER CODE END TIM14_Init 1 */
  htim14.Instance = TIM14;
 8001bf4:	4b1e      	ldr	r3, [pc, #120]	@ (8001c70 <MX_TIM14_Init+0x94>)
 8001bf6:	4a1f      	ldr	r2, [pc, #124]	@ (8001c74 <MX_TIM14_Init+0x98>)
 8001bf8:	601a      	str	r2, [r3, #0]
  htim14.Init.Prescaler = 4;
 8001bfa:	4b1d      	ldr	r3, [pc, #116]	@ (8001c70 <MX_TIM14_Init+0x94>)
 8001bfc:	2204      	movs	r2, #4
 8001bfe:	605a      	str	r2, [r3, #4]
  htim14.Init.CounterMode = TIM_COUNTERMODE_UP;
 8001c00:	4b1b      	ldr	r3, [pc, #108]	@ (8001c70 <MX_TIM14_Init+0x94>)
 8001c02:	2200      	movs	r2, #0
 8001c04:	609a      	str	r2, [r3, #8]
  htim14.Init.Period = 65535;
 8001c06:	4b1a      	ldr	r3, [pc, #104]	@ (8001c70 <MX_TIM14_Init+0x94>)
 8001c08:	f64f 72ff 	movw	r2, #65535	@ 0xffff
 8001c0c:	60da      	str	r2, [r3, #12]
  htim14.Init.ClockDivision = TIM_CLOCKDIVISION_DIV1;
 8001c0e:	4b18      	ldr	r3, [pc, #96]	@ (8001c70 <MX_TIM14_Init+0x94>)
 8001c10:	2200      	movs	r2, #0
 8001c12:	611a      	str	r2, [r3, #16]
  htim14.Init.AutoReloadPreload = TIM_AUTORELOAD_PRELOAD_DISABLE;
 8001c14:	4b16      	ldr	r3, [pc, #88]	@ (8001c70 <MX_TIM14_Init+0x94>)
 8001c16:	2200      	movs	r2, #0
 8001c18:	619a      	str	r2, [r3, #24]
  if (HAL_TIM_Base_Init(&htim14) != HAL_OK)
 8001c1a:	4815      	ldr	r0, [pc, #84]	@ (8001c70 <MX_TIM14_Init+0x94>)
 8001c1c:	f004 f940 	bl	8005ea0 <HAL_TIM_Base_Init>
 8001c20:	4603      	mov	r3, r0
 8001c22:	2b00      	cmp	r3, #0
 8001c24:	d001      	beq.n	8001c2a <MX_TIM14_Init+0x4e>
  {
    Error_Handler();
 8001c26:	f000 f99d 	bl	8001f64 <Error_Handler>
  }
  if (HAL_TIM_OC_Init(&htim14) != HAL_OK)
 8001c2a:	4811      	ldr	r0, [pc, #68]	@ (8001c70 <MX_TIM14_Init+0x94>)
 8001c2c:	f004 f98f 	bl	8005f4e <HAL_TIM_OC_Init>
 8001c30:	4603      	mov	r3, r0
 8001c32:	2b00      	cmp	r3, #0
 8001c34:	d001      	beq.n	8001c3a <MX_TIM14_Init+0x5e>
  {
    Error_Handler();
 8001c36:	f000 f995 	bl	8001f64 <Error_Handler>
  }
  sConfigOC.OCMode = TIM_OCMODE_TOGGLE;
 8001c3a:	2330      	movs	r3, #48	@ 0x30
 8001c3c:	607b      	str	r3, [r7, #4]
  sConfigOC.Pulse = 0;
 8001c3e:	2300      	movs	r3, #0
 8001c40:	60bb      	str	r3, [r7, #8]
  sConfigOC.OCPolarity = TIM_OCPOLARITY_HIGH;
 8001c42:	2300      	movs	r3, #0
 8001c44:	60fb      	str	r3, [r7, #12]
  sConfigOC.OCFastMode = TIM_OCFAST_DISABLE;
 8001c46:	2300      	movs	r3, #0
 8001c48:	617b      	str	r3, [r7, #20]
  if (HAL_TIM_OC_ConfigChannel(&htim14, &sConfigOC, TIM_CHANNEL_1) != HAL_OK)
 8001c4a:	1d3b      	adds	r3, r7, #4
 8001c4c:	2200      	movs	r2, #0
 8001c4e:	4619      	mov	r1, r3
 8001c50:	4807      	ldr	r0, [pc, #28]	@ (8001c70 <MX_TIM14_Init+0x94>)
 8001c52:	f004 fd93 	bl	800677c <HAL_TIM_OC_ConfigChannel>
 8001c56:	4603      	mov	r3, r0
 8001c58:	2b00      	cmp	r3, #0
 8001c5a:	d001      	beq.n	8001c60 <MX_TIM14_Init+0x84>
  {
    Error_Handler();
 8001c5c:	f000 f982 	bl	8001f64 <Error_Handler>
  }
  /* USER CODE BEGIN TIM14_Init 2 */

  /* USER CODE END TIM14_Init 2 */
  HAL_TIM_MspPostInit(&htim14);
 8001c60:	4803      	ldr	r0, [pc, #12]	@ (8001c70 <MX_TIM14_Init+0x94>)
 8001c62:	f000 fce1 	bl	8002628 <HAL_TIM_MspPostInit>

}
 8001c66:	bf00      	nop
 8001c68:	3720      	adds	r7, #32
 8001c6a:	46bd      	mov	sp, r7
 8001c6c:	bd80      	pop	{r7, pc}
 8001c6e:	bf00      	nop
 8001c70:	20000718 	.word	0x20000718
 8001c74:	40002000 	.word	0x40002000

08001c78 <MX_USART3_UART_Init>:
  * @brief USART3 Initialization Function
  * @param None
  * @retval None
  */
static void MX_USART3_UART_Init(void)
{
 8001c78:	b580      	push	{r7, lr}
 8001c7a:	af00      	add	r7, sp, #0
  /* USER CODE END USART3_Init 0 */

  /* USER CODE BEGIN USART3_Init 1 */

  /* USER CODE END USART3_Init 1 */
  huart3.Instance = USART3;
 8001c7c:	4b14      	ldr	r3, [pc, #80]	@ (8001cd0 <MX_USART3_UART_Init+0x58>)
 8001c7e:	4a15      	ldr	r2, [pc, #84]	@ (8001cd4 <MX_USART3_UART_Init+0x5c>)
 8001c80:	601a      	str	r2, [r3, #0]
  huart3.Init.BaudRate = 115200;
 8001c82:	4b13      	ldr	r3, [pc, #76]	@ (8001cd0 <MX_USART3_UART_Init+0x58>)
 8001c84:	f44f 32e1 	mov.w	r2, #115200	@ 0x1c200
 8001c88:	605a      	str	r2, [r3, #4]
  huart3.Init.WordLength = UART_WORDLENGTH_8B;
 8001c8a:	4b11      	ldr	r3, [pc, #68]	@ (8001cd0 <MX_USART3_UART_Init+0x58>)
 8001c8c:	2200      	movs	r2, #0
 8001c8e:	609a      	str	r2, [r3, #8]
  huart3.Init.StopBits = UART_STOPBITS_1;
 8001c90:	4b0f      	ldr	r3, [pc, #60]	@ (8001cd0 <MX_USART3_UART_Init+0x58>)
 8001c92:	2200      	movs	r2, #0
 8001c94:	60da      	str	r2, [r3, #12]
  huart3.Init.Parity = UART_PARITY_NONE;
 8001c96:	4b0e      	ldr	r3, [pc, #56]	@ (8001cd0 <MX_USART3_UART_Init+0x58>)
 8001c98:	2200      	movs	r2, #0
 8001c9a:	611a      	str	r2, [r3, #16]
  huart3.Init.Mode = UART_MODE_TX_RX;
 8001c9c:	4b0c      	ldr	r3, [pc, #48]	@ (8001cd0 <MX_USART3_UART_Init+0x58>)
 8001c9e:	220c      	movs	r2, #12
 8001ca0:	615a      	str	r2, [r3, #20]
  huart3.Init.HwFlowCtl = UART_HWCONTROL_NONE;
 8001ca2:	4b0b      	ldr	r3, [pc, #44]	@ (8001cd0 <MX_USART3_UART_Init+0x58>)
 8001ca4:	2200      	movs	r2, #0
 8001ca6:	619a      	str	r2, [r3, #24]
  huart3.Init.OverSampling = UART_OVERSAMPLING_16;
 8001ca8:	4b09      	ldr	r3, [pc, #36]	@ (8001cd0 <MX_USART3_UART_Init+0x58>)
 8001caa:	2200      	movs	r2, #0
 8001cac:	61da      	str	r2, [r3, #28]
  huart3.Init.OneBitSampling = UART_ONE_BIT_SAMPLE_DISABLE;
 8001cae:	4b08      	ldr	r3, [pc, #32]	@ (8001cd0 <MX_USART3_UART_Init+0x58>)
 8001cb0:	2200      	movs	r2, #0
 8001cb2:	621a      	str	r2, [r3, #32]
  huart3.AdvancedInit.AdvFeatureInit = UART_ADVFEATURE_NO_INIT;
 8001cb4:	4b06      	ldr	r3, [pc, #24]	@ (8001cd0 <MX_USART3_UART_Init+0x58>)
 8001cb6:	2200      	movs	r2, #0
 8001cb8:	625a      	str	r2, [r3, #36]	@ 0x24
  if (HAL_UART_Init(&huart3) != HAL_OK)
 8001cba:	4805      	ldr	r0, [pc, #20]	@ (8001cd0 <MX_USART3_UART_Init+0x58>)
 8001cbc:	f005 fb40 	bl	8007340 <HAL_UART_Init>
 8001cc0:	4603      	mov	r3, r0
 8001cc2:	2b00      	cmp	r3, #0
 8001cc4:	d001      	beq.n	8001cca <MX_USART3_UART_Init+0x52>
  {
    Error_Handler();
 8001cc6:	f000 f94d 	bl	8001f64 <Error_Handler>
  }
  /* USER CODE BEGIN USART3_Init 2 */

  /* USER CODE END USART3_Init 2 */

}
 8001cca:	bf00      	nop
 8001ccc:	bd80      	pop	{r7, pc}
 8001cce:	bf00      	nop
 8001cd0:	20000764 	.word	0x20000764
 8001cd4:	40004800 	.word	0x40004800

08001cd8 <MX_USB_OTG_FS_PCD_Init>:
  * @brief USB_OTG_FS Initialization Function
  * @param None
  * @retval None
  */
static void MX_USB_OTG_FS_PCD_Init(void)
{
 8001cd8:	b580      	push	{r7, lr}
 8001cda:	af00      	add	r7, sp, #0
  /* USER CODE END USB_OTG_FS_Init 0 */

  /* USER CODE BEGIN USB_OTG_FS_Init 1 */

  /* USER CODE END USB_OTG_FS_Init 1 */
  hpcd_USB_OTG_FS.Instance = USB_OTG_FS;
 8001cdc:	4b14      	ldr	r3, [pc, #80]	@ (8001d30 <MX_USB_OTG_FS_PCD_Init+0x58>)
 8001cde:	f04f 42a0 	mov.w	r2, #1342177280	@ 0x50000000
 8001ce2:	601a      	str	r2, [r3, #0]
  hpcd_USB_OTG_FS.Init.dev_endpoints = 6;
 8001ce4:	4b12      	ldr	r3, [pc, #72]	@ (8001d30 <MX_USB_OTG_FS_PCD_Init+0x58>)
 8001ce6:	2206      	movs	r2, #6
 8001ce8:	711a      	strb	r2, [r3, #4]
  hpcd_USB_OTG_FS.Init.speed = PCD_SPEED_FULL;
 8001cea:	4b11      	ldr	r3, [pc, #68]	@ (8001d30 <MX_USB_OTG_FS_PCD_Init+0x58>)
 8001cec:	2202      	movs	r2, #2
 8001cee:	71da      	strb	r2, [r3, #7]
  hpcd_USB_OTG_FS.Init.dma_enable = DISABLE;
 8001cf0:	4b0f      	ldr	r3, [pc, #60]	@ (8001d30 <MX_USB_OTG_FS_PCD_Init+0x58>)
 8001cf2:	2200      	movs	r2, #0
 8001cf4:	719a      	strb	r2, [r3, #6]
  hpcd_USB_OTG_FS.Init.phy_itface = PCD_PHY_EMBEDDED;
 8001cf6:	4b0e      	ldr	r3, [pc, #56]	@ (8001d30 <MX_USB_OTG_FS_PCD_Init+0x58>)
 8001cf8:	2202      	movs	r2, #2
 8001cfa:	725a      	strb	r2, [r3, #9]
  hpcd_USB_OTG_FS.Init.Sof_enable = ENABLE;
 8001cfc:	4b0c      	ldr	r3, [pc, #48]	@ (8001d30 <MX_USB_OTG_FS_PCD_Init+0x58>)
 8001cfe:	2201      	movs	r2, #1
 8001d00:	729a      	strb	r2, [r3, #10]
  hpcd_USB_OTG_FS.Init.low_power_enable = DISABLE;
 8001d02:	4b0b      	ldr	r3, [pc, #44]	@ (8001d30 <MX_USB_OTG_FS_PCD_Init+0x58>)
 8001d04:	2200      	movs	r2, #0
 8001d06:	72da      	strb	r2, [r3, #11]
  hpcd_USB_OTG_FS.Init.lpm_enable = DISABLE;
 8001d08:	4b09      	ldr	r3, [pc, #36]	@ (8001d30 <MX_USB_OTG_FS_PCD_Init+0x58>)
 8001d0a:	2200      	movs	r2, #0
 8001d0c:	731a      	strb	r2, [r3, #12]
  hpcd_USB_OTG_FS.Init.vbus_sensing_enable = ENABLE;
 8001d0e:	4b08      	ldr	r3, [pc, #32]	@ (8001d30 <MX_USB_OTG_FS_PCD_Init+0x58>)
 8001d10:	2201      	movs	r2, #1
 8001d12:	739a      	strb	r2, [r3, #14]
  hpcd_USB_OTG_FS.Init.use_dedicated_ep1 = DISABLE;
 8001d14:	4b06      	ldr	r3, [pc, #24]	@ (8001d30 <MX_USB_OTG_FS_PCD_Init+0x58>)
 8001d16:	2200      	movs	r2, #0
 8001d18:	73da      	strb	r2, [r3, #15]
  if (HAL_PCD_Init(&hpcd_USB_OTG_FS) != HAL_OK)
 8001d1a:	4805      	ldr	r0, [pc, #20]	@ (8001d30 <MX_USB_OTG_FS_PCD_Init+0x58>)
 8001d1c:	f002 fe6c 	bl	80049f8 <HAL_PCD_Init>
 8001d20:	4603      	mov	r3, r0
 8001d22:	2b00      	cmp	r3, #0
 8001d24:	d001      	beq.n	8001d2a <MX_USB_OTG_FS_PCD_Init+0x52>
  {
    Error_Handler();
 8001d26:	f000 f91d 	bl	8001f64 <Error_Handler>
  }
  /* USER CODE BEGIN USB_OTG_FS_Init 2 */

  /* USER CODE END USB_OTG_FS_Init 2 */

}
 8001d2a:	bf00      	nop
 8001d2c:	bd80      	pop	{r7, pc}
 8001d2e:	bf00      	nop
 8001d30:	200007ec 	.word	0x200007ec

08001d34 <MX_GPIO_Init>:
  * @brief GPIO Initialization Function
  * @param None
  * @retval None
  */
static void MX_GPIO_Init(void)
{
 8001d34:	b580      	push	{r7, lr}
 8001d36:	b08c      	sub	sp, #48	@ 0x30
 8001d38:	af00      	add	r7, sp, #0
  GPIO_InitTypeDef GPIO_InitStruct = {0};
 8001d3a:	f107 031c 	add.w	r3, r7, #28
 8001d3e:	2200      	movs	r2, #0
 8001d40:	601a      	str	r2, [r3, #0]
 8001d42:	605a      	str	r2, [r3, #4]
 8001d44:	609a      	str	r2, [r3, #8]
 8001d46:	60da      	str	r2, [r3, #12]
 8001d48:	611a      	str	r2, [r3, #16]
  /* USER CODE BEGIN MX_GPIO_Init_1 */

  /* USER CODE END MX_GPIO_Init_1 */

  /* GPIO Ports Clock Enable */
  __HAL_RCC_GPIOC_CLK_ENABLE();
 8001d4a:	4b7f      	ldr	r3, [pc, #508]	@ (8001f48 <MX_GPIO_Init+0x214>)
 8001d4c:	6b1b      	ldr	r3, [r3, #48]	@ 0x30
 8001d4e:	4a7e      	ldr	r2, [pc, #504]	@ (8001f48 <MX_GPIO_Init+0x214>)
 8001d50:	f043 0304 	orr.w	r3, r3, #4
 8001d54:	6313      	str	r3, [r2, #48]	@ 0x30
 8001d56:	4b7c      	ldr	r3, [pc, #496]	@ (8001f48 <MX_GPIO_Init+0x214>)
 8001d58:	6b1b      	ldr	r3, [r3, #48]	@ 0x30
 8001d5a:	f003 0304 	and.w	r3, r3, #4
 8001d5e:	61bb      	str	r3, [r7, #24]
 8001d60:	69bb      	ldr	r3, [r7, #24]
  __HAL_RCC_GPIOF_CLK_ENABLE();
 8001d62:	4b79      	ldr	r3, [pc, #484]	@ (8001f48 <MX_GPIO_Init+0x214>)
 8001d64:	6b1b      	ldr	r3, [r3, #48]	@ 0x30
 8001d66:	4a78      	ldr	r2, [pc, #480]	@ (8001f48 <MX_GPIO_Init+0x214>)
 8001d68:	f043 0320 	orr.w	r3, r3, #32
 8001d6c:	6313      	str	r3, [r2, #48]	@ 0x30
 8001d6e:	4b76      	ldr	r3, [pc, #472]	@ (8001f48 <MX_GPIO_Init+0x214>)
 8001d70:	6b1b      	ldr	r3, [r3, #48]	@ 0x30
 8001d72:	f003 0320 	and.w	r3, r3, #32
 8001d76:	617b      	str	r3, [r7, #20]
 8001d78:	697b      	ldr	r3, [r7, #20]
  __HAL_RCC_GPIOH_CLK_ENABLE();
 8001d7a:	4b73      	ldr	r3, [pc, #460]	@ (8001f48 <MX_GPIO_Init+0x214>)
 8001d7c:	6b1b      	ldr	r3, [r3, #48]	@ 0x30
 8001d7e:	4a72      	ldr	r2, [pc, #456]	@ (8001f48 <MX_GPIO_Init+0x214>)
 8001d80:	f043 0380 	orr.w	r3, r3, #128	@ 0x80
 8001d84:	6313      	str	r3, [r2, #48]	@ 0x30
 8001d86:	4b70      	ldr	r3, [pc, #448]	@ (8001f48 <MX_GPIO_Init+0x214>)
 8001d88:	6b1b      	ldr	r3, [r3, #48]	@ 0x30
 8001d8a:	f003 0380 	and.w	r3, r3, #128	@ 0x80
 8001d8e:	613b      	str	r3, [r7, #16]
 8001d90:	693b      	ldr	r3, [r7, #16]
  __HAL_RCC_GPIOA_CLK_ENABLE();
 8001d92:	4b6d      	ldr	r3, [pc, #436]	@ (8001f48 <MX_GPIO_Init+0x214>)
 8001d94:	6b1b      	ldr	r3, [r3, #48]	@ 0x30
 8001d96:	4a6c      	ldr	r2, [pc, #432]	@ (8001f48 <MX_GPIO_Init+0x214>)
 8001d98:	f043 0301 	orr.w	r3, r3, #1
 8001d9c:	6313      	str	r3, [r2, #48]	@ 0x30
 8001d9e:	4b6a      	ldr	r3, [pc, #424]	@ (8001f48 <MX_GPIO_Init+0x214>)
 8001da0:	6b1b      	ldr	r3, [r3, #48]	@ 0x30
 8001da2:	f003 0301 	and.w	r3, r3, #1
 8001da6:	60fb      	str	r3, [r7, #12]
 8001da8:	68fb      	ldr	r3, [r7, #12]
  __HAL_RCC_GPIOB_CLK_ENABLE();
 8001daa:	4b67      	ldr	r3, [pc, #412]	@ (8001f48 <MX_GPIO_Init+0x214>)
 8001dac:	6b1b      	ldr	r3, [r3, #48]	@ 0x30
 8001dae:	4a66      	ldr	r2, [pc, #408]	@ (8001f48 <MX_GPIO_Init+0x214>)
 8001db0:	f043 0302 	orr.w	r3, r3, #2
 8001db4:	6313      	str	r3, [r2, #48]	@ 0x30
 8001db6:	4b64      	ldr	r3, [pc, #400]	@ (8001f48 <MX_GPIO_Init+0x214>)
 8001db8:	6b1b      	ldr	r3, [r3, #48]	@ 0x30
 8001dba:	f003 0302 	and.w	r3, r3, #2
 8001dbe:	60bb      	str	r3, [r7, #8]
 8001dc0:	68bb      	ldr	r3, [r7, #8]
  __HAL_RCC_GPIOG_CLK_ENABLE();
 8001dc2:	4b61      	ldr	r3, [pc, #388]	@ (8001f48 <MX_GPIO_Init+0x214>)
 8001dc4:	6b1b      	ldr	r3, [r3, #48]	@ 0x30
 8001dc6:	4a60      	ldr	r2, [pc, #384]	@ (8001f48 <MX_GPIO_Init+0x214>)
 8001dc8:	f043 0340 	orr.w	r3, r3, #64	@ 0x40
 8001dcc:	6313      	str	r3, [r2, #48]	@ 0x30
 8001dce:	4b5e      	ldr	r3, [pc, #376]	@ (8001f48 <MX_GPIO_Init+0x214>)
 8001dd0:	6b1b      	ldr	r3, [r3, #48]	@ 0x30
 8001dd2:	f003 0340 	and.w	r3, r3, #64	@ 0x40
 8001dd6:	607b      	str	r3, [r7, #4]
 8001dd8:	687b      	ldr	r3, [r7, #4]
  __HAL_RCC_GPIOD_CLK_ENABLE();
 8001dda:	4b5b      	ldr	r3, [pc, #364]	@ (8001f48 <MX_GPIO_Init+0x214>)
 8001ddc:	6b1b      	ldr	r3, [r3, #48]	@ 0x30
 8001dde:	4a5a      	ldr	r2, [pc, #360]	@ (8001f48 <MX_GPIO_Init+0x214>)
 8001de0:	f043 0308 	orr.w	r3, r3, #8
 8001de4:	6313      	str	r3, [r2, #48]	@ 0x30
 8001de6:	4b58      	ldr	r3, [pc, #352]	@ (8001f48 <MX_GPIO_Init+0x214>)
 8001de8:	6b1b      	ldr	r3, [r3, #48]	@ 0x30
 8001dea:	f003 0308 	and.w	r3, r3, #8
 8001dee:	603b      	str	r3, [r7, #0]
 8001df0:	683b      	ldr	r3, [r7, #0]

  /*Configure GPIO pin Output Level */
  HAL_GPIO_WritePin(GPIOB, LD1_Pin|LD3_Pin|LD2_Pin, GPIO_PIN_RESET);
 8001df2:	2200      	movs	r2, #0
 8001df4:	f244 0181 	movw	r1, #16513	@ 0x4081
 8001df8:	4854      	ldr	r0, [pc, #336]	@ (8001f4c <MX_GPIO_Init+0x218>)
 8001dfa:	f001 ffef 	bl	8003ddc <HAL_GPIO_WritePin>

  /*Configure GPIO pin Output Level */
  HAL_GPIO_WritePin(S1_Enable_GPIO_Port, S1_Enable_Pin, GPIO_PIN_SET);
 8001dfe:	2201      	movs	r2, #1
 8001e00:	2101      	movs	r1, #1
 8001e02:	4853      	ldr	r0, [pc, #332]	@ (8001f50 <MX_GPIO_Init+0x21c>)
 8001e04:	f001 ffea 	bl	8003ddc <HAL_GPIO_WritePin>

  /*Configure GPIO pin Output Level */
  HAL_GPIO_WritePin(GPIOG, S1_Direction_Pin|USB_PowerSwitchOn_Pin, GPIO_PIN_RESET);
 8001e08:	2200      	movs	r2, #0
 8001e0a:	2142      	movs	r1, #66	@ 0x42
 8001e0c:	4850      	ldr	r0, [pc, #320]	@ (8001f50 <MX_GPIO_Init+0x21c>)
 8001e0e:	f001 ffe5 	bl	8003ddc <HAL_GPIO_WritePin>

  /*Configure GPIO pin : USER_Btn_Pin */
  GPIO_InitStruct.Pin = USER_Btn_Pin;
 8001e12:	f44f 5300 	mov.w	r3, #8192	@ 0x2000
 8001e16:	61fb      	str	r3, [r7, #28]
  GPIO_InitStruct.Mode = GPIO_MODE_IT_RISING;
 8001e18:	f44f 1388 	mov.w	r3, #1114112	@ 0x110000
 8001e1c:	623b      	str	r3, [r7, #32]
  GPIO_InitStruct.Pull = GPIO_NOPULL;
 8001e1e:	2300      	movs	r3, #0
 8001e20:	627b      	str	r3, [r7, #36]	@ 0x24
  HAL_GPIO_Init(USER_Btn_GPIO_Port, &GPIO_InitStruct);
 8001e22:	f107 031c 	add.w	r3, r7, #28
 8001e26:	4619      	mov	r1, r3
 8001e28:	484a      	ldr	r0, [pc, #296]	@ (8001f54 <MX_GPIO_Init+0x220>)
 8001e2a:	f001 fe13 	bl	8003a54 <HAL_GPIO_Init>

  /*Configure GPIO pin : PF2 */
  GPIO_InitStruct.Pin = GPIO_PIN_2;
 8001e2e:	2304      	movs	r3, #4
 8001e30:	61fb      	str	r3, [r7, #28]
  GPIO_InitStruct.Mode = GPIO_MODE_IT_RISING;
 8001e32:	f44f 1388 	mov.w	r3, #1114112	@ 0x110000
 8001e36:	623b      	str	r3, [r7, #32]
  GPIO_InitStruct.Pull = GPIO_PULLUP;
 8001e38:	2301      	movs	r3, #1
 8001e3a:	627b      	str	r3, [r7, #36]	@ 0x24
  HAL_GPIO_Init(GPIOF, &GPIO_InitStruct);
 8001e3c:	f107 031c 	add.w	r3, r7, #28
 8001e40:	4619      	mov	r1, r3
 8001e42:	4845      	ldr	r0, [pc, #276]	@ (8001f58 <MX_GPIO_Init+0x224>)
 8001e44:	f001 fe06 	bl	8003a54 <HAL_GPIO_Init>

  /*Configure GPIO pin : Button_Pin */
  GPIO_InitStruct.Pin = Button_Pin;
 8001e48:	2308      	movs	r3, #8
 8001e4a:	61fb      	str	r3, [r7, #28]
  GPIO_InitStruct.Mode = GPIO_MODE_IT_RISING;
 8001e4c:	f44f 1388 	mov.w	r3, #1114112	@ 0x110000
 8001e50:	623b      	str	r3, [r7, #32]
  GPIO_InitStruct.Pull = GPIO_PULLUP;
 8001e52:	2301      	movs	r3, #1
 8001e54:	627b      	str	r3, [r7, #36]	@ 0x24
  HAL_GPIO_Init(Button_GPIO_Port, &GPIO_InitStruct);
 8001e56:	f107 031c 	add.w	r3, r7, #28
 8001e5a:	4619      	mov	r1, r3
 8001e5c:	483f      	ldr	r0, [pc, #252]	@ (8001f5c <MX_GPIO_Init+0x228>)
 8001e5e:	f001 fdf9 	bl	8003a54 <HAL_GPIO_Init>

  /*Configure GPIO pins : LD1_Pin LD3_Pin LD2_Pin */
  GPIO_InitStruct.Pin = LD1_Pin|LD3_Pin|LD2_Pin;
 8001e62:	f244 0381 	movw	r3, #16513	@ 0x4081
 8001e66:	61fb      	str	r3, [r7, #28]
  GPIO_InitStruct.Mode = GPIO_MODE_OUTPUT_PP;
 8001e68:	2301      	movs	r3, #1
 8001e6a:	623b      	str	r3, [r7, #32]
  GPIO_InitStruct.Pull = GPIO_NOPULL;
 8001e6c:	2300      	movs	r3, #0
 8001e6e:	627b      	str	r3, [r7, #36]	@ 0x24
  GPIO_InitStruct.Speed = GPIO_SPEED_FREQ_LOW;
 8001e70:	2300      	movs	r3, #0
 8001e72:	62bb      	str	r3, [r7, #40]	@ 0x28
  HAL_GPIO_Init(GPIOB, &GPIO_InitStruct);
 8001e74:	f107 031c 	add.w	r3, r7, #28
 8001e78:	4619      	mov	r1, r3
 8001e7a:	4834      	ldr	r0, [pc, #208]	@ (8001f4c <MX_GPIO_Init+0x218>)
 8001e7c:	f001 fdea 	bl	8003a54 <HAL_GPIO_Init>

  /*Configure GPIO pins : S1_Enable_Pin S1_Direction_Pin USB_PowerSwitchOn_Pin */
  GPIO_InitStruct.Pin = S1_Enable_Pin|S1_Direction_Pin|USB_PowerSwitchOn_Pin;
 8001e80:	2343      	movs	r3, #67	@ 0x43
 8001e82:	61fb      	str	r3, [r7, #28]
  GPIO_InitStruct.Mode = GPIO_MODE_OUTPUT_PP;
 8001e84:	2301      	movs	r3, #1
 8001e86:	623b      	str	r3, [r7, #32]
  GPIO_InitStruct.Pull = GPIO_NOPULL;
 8001e88:	2300      	movs	r3, #0
 8001e8a:	627b      	str	r3, [r7, #36]	@ 0x24
  GPIO_InitStruct.Speed = GPIO_SPEED_FREQ_LOW;
 8001e8c:	2300      	movs	r3, #0
 8001e8e:	62bb      	str	r3, [r7, #40]	@ 0x28
  HAL_GPIO_Init(GPIOG, &GPIO_InitStruct);
 8001e90:	f107 031c 	add.w	r3, r7, #28
 8001e94:	4619      	mov	r1, r3
 8001e96:	482e      	ldr	r0, [pc, #184]	@ (8001f50 <MX_GPIO_Init+0x21c>)
 8001e98:	f001 fddc 	bl	8003a54 <HAL_GPIO_Init>

  /*Configure GPIO pin : USB_OverCurrent_Pin */
  GPIO_InitStruct.Pin = USB_OverCurrent_Pin;
 8001e9c:	2380      	movs	r3, #128	@ 0x80
 8001e9e:	61fb      	str	r3, [r7, #28]
  GPIO_InitStruct.Mode = GPIO_MODE_INPUT;
 8001ea0:	2300      	movs	r3, #0
 8001ea2:	623b      	str	r3, [r7, #32]
  GPIO_InitStruct.Pull = GPIO_NOPULL;
 8001ea4:	2300      	movs	r3, #0
 8001ea6:	627b      	str	r3, [r7, #36]	@ 0x24
  HAL_GPIO_Init(USB_OverCurrent_GPIO_Port, &GPIO_InitStruct);
 8001ea8:	f107 031c 	add.w	r3, r7, #28
 8001eac:	4619      	mov	r1, r3
 8001eae:	4828      	ldr	r0, [pc, #160]	@ (8001f50 <MX_GPIO_Init+0x21c>)
 8001eb0:	f001 fdd0 	bl	8003a54 <HAL_GPIO_Init>

  /*Configure GPIO pins : S1_Ready_Pin S1_Treach_Pin */
  GPIO_InitStruct.Pin = S1_Ready_Pin|S1_Treach_Pin;
 8001eb4:	2303      	movs	r3, #3
 8001eb6:	61fb      	str	r3, [r7, #28]
  GPIO_InitStruct.Mode = GPIO_MODE_IT_RISING;
 8001eb8:	f44f 1388 	mov.w	r3, #1114112	@ 0x110000
 8001ebc:	623b      	str	r3, [r7, #32]
  GPIO_InitStruct.Pull = GPIO_NOPULL;
 8001ebe:	2300      	movs	r3, #0
 8001ec0:	627b      	str	r3, [r7, #36]	@ 0x24
  HAL_GPIO_Init(GPIOD, &GPIO_InitStruct);
 8001ec2:	f107 031c 	add.w	r3, r7, #28
 8001ec6:	4619      	mov	r1, r3
 8001ec8:	4825      	ldr	r0, [pc, #148]	@ (8001f60 <MX_GPIO_Init+0x22c>)
 8001eca:	f001 fdc3 	bl	8003a54 <HAL_GPIO_Init>

  /* EXTI interrupt init*/
  HAL_NVIC_SetPriority(EXTI0_IRQn, 0, 0);
 8001ece:	2200      	movs	r2, #0
 8001ed0:	2100      	movs	r1, #0
 8001ed2:	2006      	movs	r0, #6
 8001ed4:	f001 fa39 	bl	800334a <HAL_NVIC_SetPriority>
  HAL_NVIC_EnableIRQ(EXTI0_IRQn);
 8001ed8:	2006      	movs	r0, #6
 8001eda:	f001 fa52 	bl	8003382 <HAL_NVIC_EnableIRQ>

  HAL_NVIC_SetPriority(EXTI1_IRQn, 0, 0);
 8001ede:	2200      	movs	r2, #0
 8001ee0:	2100      	movs	r1, #0
 8001ee2:	2007      	movs	r0, #7
 8001ee4:	f001 fa31 	bl	800334a <HAL_NVIC_SetPriority>
  HAL_NVIC_EnableIRQ(EXTI1_IRQn);
 8001ee8:	2007      	movs	r0, #7
 8001eea:	f001 fa4a 	bl	8003382 <HAL_NVIC_EnableIRQ>

  HAL_NVIC_SetPriority(EXTI2_IRQn, 0, 0);
 8001eee:	2200      	movs	r2, #0
 8001ef0:	2100      	movs	r1, #0
 8001ef2:	2008      	movs	r0, #8
 8001ef4:	f001 fa29 	bl	800334a <HAL_NVIC_SetPriority>
  HAL_NVIC_EnableIRQ(EXTI2_IRQn);
 8001ef8:	2008      	movs	r0, #8
 8001efa:	f001 fa42 	bl	8003382 <HAL_NVIC_EnableIRQ>

  HAL_NVIC_SetPriority(EXTI3_IRQn, 1, 0);
 8001efe:	2200      	movs	r2, #0
 8001f00:	2101      	movs	r1, #1
 8001f02:	2009      	movs	r0, #9
 8001f04:	f001 fa21 	bl	800334a <HAL_NVIC_SetPriority>
  HAL_NVIC_EnableIRQ(EXTI3_IRQn);
 8001f08:	2009      	movs	r0, #9
 8001f0a:	f001 fa3a 	bl	8003382 <HAL_NVIC_EnableIRQ>

  HAL_NVIC_SetPriority(EXTI15_10_IRQn, 1, 0);
 8001f0e:	2200      	movs	r2, #0
 8001f10:	2101      	movs	r1, #1
 8001f12:	2028      	movs	r0, #40	@ 0x28
 8001f14:	f001 fa19 	bl	800334a <HAL_NVIC_SetPriority>
  HAL_NVIC_EnableIRQ(EXTI15_10_IRQn);
 8001f18:	2028      	movs	r0, #40	@ 0x28
 8001f1a:	f001 fa32 	bl	8003382 <HAL_NVIC_EnableIRQ>

  /* USER CODE BEGIN MX_GPIO_Init_2 */
  GPIO_InitStruct.Pin = GPIO_PIN_4;  // PB4 for TIM3_CH1
 8001f1e:	2310      	movs	r3, #16
 8001f20:	61fb      	str	r3, [r7, #28]
      GPIO_InitStruct.Mode = GPIO_MODE_AF_PP;  // Alternate function mode
 8001f22:	2302      	movs	r3, #2
 8001f24:	623b      	str	r3, [r7, #32]
      GPIO_InitStruct.Pull = GPIO_NOPULL;
 8001f26:	2300      	movs	r3, #0
 8001f28:	627b      	str	r3, [r7, #36]	@ 0x24
      GPIO_InitStruct.Speed = GPIO_SPEED_FREQ_HIGH;
 8001f2a:	2302      	movs	r3, #2
 8001f2c:	62bb      	str	r3, [r7, #40]	@ 0x28
      GPIO_InitStruct.Alternate = GPIO_AF2_TIM3;  // TIM3_CH1 AF mapping
 8001f2e:	2302      	movs	r3, #2
 8001f30:	62fb      	str	r3, [r7, #44]	@ 0x2c
      HAL_GPIO_Init(GPIOB, &GPIO_InitStruct);
 8001f32:	f107 031c 	add.w	r3, r7, #28
 8001f36:	4619      	mov	r1, r3
 8001f38:	4804      	ldr	r0, [pc, #16]	@ (8001f4c <MX_GPIO_Init+0x218>)
 8001f3a:	f001 fd8b 	bl	8003a54 <HAL_GPIO_Init>
  /* USER CODE END MX_GPIO_Init_2 */
}
 8001f3e:	bf00      	nop
 8001f40:	3730      	adds	r7, #48	@ 0x30
 8001f42:	46bd      	mov	sp, r7
 8001f44:	bd80      	pop	{r7, pc}
 8001f46:	bf00      	nop
 8001f48:	40023800 	.word	0x40023800
 8001f4c:	40020400 	.word	0x40020400
 8001f50:	40021800 	.word	0x40021800
 8001f54:	40020800 	.word	0x40020800
 8001f58:	40021400 	.word	0x40021400
 8001f5c:	40020000 	.word	0x40020000
 8001f60:	40020c00 	.word	0x40020c00

08001f64 <Error_Handler>:
/**
  * @brief  This function is executed in case of error occurrence.
  * @retval None
  */
void Error_Handler(void)
{
 8001f64:	b480      	push	{r7}
 8001f66:	af00      	add	r7, sp, #0
  \details Disables IRQ interrupts by setting the I-bit in the CPSR.
           Can only be executed in Privileged modes.
 */
__STATIC_FORCEINLINE void __disable_irq(void)
{
  __ASM volatile ("cpsid i" : : : "memory");
 8001f68:	b672      	cpsid	i
}
 8001f6a:	bf00      	nop
  /* USER CODE BEGIN Error_Handler_Debug */
  /* User can add his own implementation to report the HAL error return state */
  __disable_irq();
  while (1)
 8001f6c:	bf00      	nop
 8001f6e:	e7fd      	b.n	8001f6c <Error_Handler+0x8>

08001f70 <setRPM>:
	&MainMenu,
	0
};


void setRPM(void) {
 8001f70:	b5f0      	push	{r4, r5, r6, r7, lr}
 8001f72:	b093      	sub	sp, #76	@ 0x4c
 8001f74:	af10      	add	r7, sp, #64	@ 0x40
	int32_t rpm = __HAL_TIM_GET_COUNTER(&htim4);
 8001f76:	4b1c      	ldr	r3, [pc, #112]	@ (8001fe8 <setRPM+0x78>)
 8001f78:	681b      	ldr	r3, [r3, #0]
 8001f7a:	6a5b      	ldr	r3, [r3, #36]	@ 0x24
 8001f7c:	603b      	str	r3, [r7, #0]
	for (int i = 0; i < 4; i++) {
 8001f7e:	2300      	movs	r3, #0
 8001f80:	607b      	str	r3, [r7, #4]
 8001f82:	e028      	b.n	8001fd6 <setRPM+0x66>
		if (servo[i].enableFlag) {
 8001f84:	4a19      	ldr	r2, [pc, #100]	@ (8001fec <setRPM+0x7c>)
 8001f86:	687b      	ldr	r3, [r7, #4]
 8001f88:	214c      	movs	r1, #76	@ 0x4c
 8001f8a:	fb01 f303 	mul.w	r3, r1, r3
 8001f8e:	4413      	add	r3, r2
 8001f90:	3318      	adds	r3, #24
 8001f92:	781b      	ldrb	r3, [r3, #0]
 8001f94:	2b00      	cmp	r3, #0
 8001f96:	d01b      	beq.n	8001fd0 <setRPM+0x60>
			setMotorSpeed(rpm*ENCRPMGAIN, servo[0]);
 8001f98:	683b      	ldr	r3, [r7, #0]
 8001f9a:	b29b      	uxth	r3, r3
 8001f9c:	461a      	mov	r2, r3
 8001f9e:	0092      	lsls	r2, r2, #2
 8001fa0:	4413      	add	r3, r2
 8001fa2:	005b      	lsls	r3, r3, #1
 8001fa4:	b29b      	uxth	r3, r3
 8001fa6:	fa0f fc83 	sxth.w	ip, r3
 8001faa:	4e10      	ldr	r6, [pc, #64]	@ (8001fec <setRPM+0x7c>)
 8001fac:	466d      	mov	r5, sp
 8001fae:	f106 040c 	add.w	r4, r6, #12
 8001fb2:	cc0f      	ldmia	r4!, {r0, r1, r2, r3}
 8001fb4:	c50f      	stmia	r5!, {r0, r1, r2, r3}
 8001fb6:	cc0f      	ldmia	r4!, {r0, r1, r2, r3}
 8001fb8:	c50f      	stmia	r5!, {r0, r1, r2, r3}
 8001fba:	cc0f      	ldmia	r4!, {r0, r1, r2, r3}
 8001fbc:	c50f      	stmia	r5!, {r0, r1, r2, r3}
 8001fbe:	e894 000f 	ldmia.w	r4, {r0, r1, r2, r3}
 8001fc2:	e885 000f 	stmia.w	r5, {r0, r1, r2, r3}
 8001fc6:	e896 000e 	ldmia.w	r6, {r1, r2, r3}
 8001fca:	4660      	mov	r0, ip
 8001fcc:	f7fe ffa2 	bl	8000f14 <setMotorSpeed>
	for (int i = 0; i < 4; i++) {
 8001fd0:	687b      	ldr	r3, [r7, #4]
 8001fd2:	3301      	adds	r3, #1
 8001fd4:	607b      	str	r3, [r7, #4]
 8001fd6:	687b      	ldr	r3, [r7, #4]
 8001fd8:	2b03      	cmp	r3, #3
 8001fda:	ddd3      	ble.n	8001f84 <setRPM+0x14>
		}
	}
}
 8001fdc:	bf00      	nop
 8001fde:	bf00      	nop
 8001fe0:	370c      	adds	r7, #12
 8001fe2:	46bd      	mov	sp, r7
 8001fe4:	bdf0      	pop	{r4, r5, r6, r7, pc}
 8001fe6:	bf00      	nop
 8001fe8:	200006cc 	.word	0x200006cc
 8001fec:	200000c8 	.word	0x200000c8

08001ff0 <ReadyFunc>:

#include <customMain.h>
#include <servos.h>
#include "stdlib.h"

void ReadyFunc(servo_t* s) {
 8001ff0:	b580      	push	{r7, lr}
 8001ff2:	b082      	sub	sp, #8
 8001ff4:	af00      	add	r7, sp, #0
 8001ff6:	6078      	str	r0, [r7, #4]
	s->readyFlag = !HAL_GPIO_ReadPin(s->readyPin.port, s->readyPin.pin);
 8001ff8:	687b      	ldr	r3, [r7, #4]
 8001ffa:	685a      	ldr	r2, [r3, #4]
 8001ffc:	687b      	ldr	r3, [r7, #4]
 8001ffe:	891b      	ldrh	r3, [r3, #8]
 8002000:	4619      	mov	r1, r3
 8002002:	4610      	mov	r0, r2
 8002004:	f001 fed2 	bl	8003dac <HAL_GPIO_ReadPin>
 8002008:	4603      	mov	r3, r0
 800200a:	2b00      	cmp	r3, #0
 800200c:	bf0c      	ite	eq
 800200e:	2301      	moveq	r3, #1
 8002010:	2300      	movne	r3, #0
 8002012:	b2db      	uxtb	r3, r3
 8002014:	461a      	mov	r2, r3
 8002016:	687b      	ldr	r3, [r7, #4]
 8002018:	701a      	strb	r2, [r3, #0]
}
 800201a:	bf00      	nop
 800201c:	3708      	adds	r7, #8
 800201e:	46bd      	mov	sp, r7
 8002020:	bd80      	pop	{r7, pc}

08002022 <TreachFunc>:

void TreachFunc(servo_t* s) {
 8002022:	b580      	push	{r7, lr}
 8002024:	b082      	sub	sp, #8
 8002026:	af00      	add	r7, sp, #0
 8002028:	6078      	str	r0, [r7, #4]
	s->TreachFlag = !HAL_GPIO_ReadPin(s->TreachPin.port, s->TreachPin.pin);
 800202a:	687b      	ldr	r3, [r7, #4]
 800202c:	691a      	ldr	r2, [r3, #16]
 800202e:	687b      	ldr	r3, [r7, #4]
 8002030:	8a9b      	ldrh	r3, [r3, #20]
 8002032:	4619      	mov	r1, r3
 8002034:	4610      	mov	r0, r2
 8002036:	f001 feb9 	bl	8003dac <HAL_GPIO_ReadPin>
 800203a:	4603      	mov	r3, r0
 800203c:	2b00      	cmp	r3, #0
 800203e:	bf0c      	ite	eq
 8002040:	2301      	moveq	r3, #1
 8002042:	2300      	movne	r3, #0
 8002044:	b2db      	uxtb	r3, r3
 8002046:	461a      	mov	r2, r3
 8002048:	687b      	ldr	r3, [r7, #4]
 800204a:	731a      	strb	r2, [r3, #12]
}
 800204c:	bf00      	nop
 800204e:	3708      	adds	r7, #8
 8002050:	46bd      	mov	sp, r7
 8002052:	bd80      	pop	{r7, pc}

08002054 <EncZFunc>:

void EncZFunc(servo_t* s) {
 8002054:	b480      	push	{r7}
 8002056:	b085      	sub	sp, #20
 8002058:	af00      	add	r7, sp, #0
 800205a:	6078      	str	r0, [r7, #4]
	uint32_t encoder_count = __HAL_TIM_GET_COUNTER(s->encoder);
 800205c:	687b      	ldr	r3, [r7, #4]
 800205e:	6c1b      	ldr	r3, [r3, #64]	@ 0x40
 8002060:	681b      	ldr	r3, [r3, #0]
 8002062:	6a5b      	ldr	r3, [r3, #36]	@ 0x24
 8002064:	60fb      	str	r3, [r7, #12]
	uint32_t countDifference = encoder_count - s->lastZ;
 8002066:	687b      	ldr	r3, [r7, #4]
 8002068:	6c9b      	ldr	r3, [r3, #72]	@ 0x48
 800206a:	68fa      	ldr	r2, [r7, #12]
 800206c:	1ad3      	subs	r3, r2, r3
 800206e:	60bb      	str	r3, [r7, #8]
	if ((abs(countDifference) < 5) | (abs(abs(countDifference)- 10000) < 5)) {
 8002070:	68bb      	ldr	r3, [r7, #8]
 8002072:	f113 0f04 	cmn.w	r3, #4
 8002076:	db01      	blt.n	800207c <EncZFunc+0x28>
 8002078:	68bb      	ldr	r3, [r7, #8]
 800207a:	2b04      	cmp	r3, #4
 800207c:	68bb      	ldr	r3, [r7, #8]
 800207e:	ea83 72e3 	eor.w	r2, r3, r3, asr #31
 8002082:	eba2 72e3 	sub.w	r2, r2, r3, asr #31
 8002086:	4b09      	ldr	r3, [pc, #36]	@ (80020ac <EncZFunc+0x58>)
 8002088:	4413      	add	r3, r2
 800208a:	f113 0f04 	cmn.w	r3, #4
 800208e:	db07      	blt.n	80020a0 <EncZFunc+0x4c>
 8002090:	68bb      	ldr	r3, [r7, #8]
 8002092:	ea83 72e3 	eor.w	r2, r3, r3, asr #31
 8002096:	eba2 72e3 	sub.w	r2, r2, r3, asr #31
 800209a:	4b04      	ldr	r3, [pc, #16]	@ (80020ac <EncZFunc+0x58>)
 800209c:	4413      	add	r3, r2
 800209e:	2b04      	cmp	r3, #4
		// Pretty much fine
	} else {
		// Encoder Error handling
	}
}
 80020a0:	bf00      	nop
 80020a2:	3714      	adds	r7, #20
 80020a4:	46bd      	mov	sp, r7
 80020a6:	f85d 7b04 	ldr.w	r7, [sp], #4
 80020aa:	4770      	bx	lr
 80020ac:	ffffd8f0 	.word	0xffffd8f0

080020b0 <Handle_EXTI0>:
	//{0, {GPIOB, S3_Ready_Pin}, 0, {GPIOD, S3_Treach_Pin}, 0, {GPIOD, S3_Enable_Pin}, 0, {GPIOD, S3_Direction_Pin}, 0, &htim14, TIM_CHANNEL_1, HRTIM_TIMERINDEX_TIMER_A, &htim4, 0, 0},
	//{0, {GPIOE, S4_Ready_Pin}, 0, {GPIOB, S4_Treach_Pin}, 0, {GPIOE, S4_Enable_Pin}, 0, {GPIOE, S4_Direction_Pin}, 0, &htim13, TIM_CHANNEL_1, 0, &htim1, 0, 0}
};

// Individual handler functions that call the struct update function
void Handle_EXTI0(void)  { ReadyFunc(&servo[0]); }
 80020b0:	b580      	push	{r7, lr}
 80020b2:	af00      	add	r7, sp, #0
 80020b4:	4802      	ldr	r0, [pc, #8]	@ (80020c0 <Handle_EXTI0+0x10>)
 80020b6:	f7ff ff9b 	bl	8001ff0 <ReadyFunc>
 80020ba:	bf00      	nop
 80020bc:	bd80      	pop	{r7, pc}
 80020be:	bf00      	nop
 80020c0:	200000c8 	.word	0x200000c8

080020c4 <Handle_EXTI1>:
void Handle_EXTI1(void)  { TreachFunc(&servo[0]); }
 80020c4:	b580      	push	{r7, lr}
 80020c6:	af00      	add	r7, sp, #0
 80020c8:	4802      	ldr	r0, [pc, #8]	@ (80020d4 <Handle_EXTI1+0x10>)
 80020ca:	f7ff ffaa 	bl	8002022 <TreachFunc>
 80020ce:	bf00      	nop
 80020d0:	bd80      	pop	{r7, pc}
 80020d2:	bf00      	nop
 80020d4:	200000c8 	.word	0x200000c8

080020d8 <Handle_EXTI2>:
void Handle_EXTI2(void)  { btnCallbackB(); }
 80020d8:	b580      	push	{r7, lr}
 80020da:	af00      	add	r7, sp, #0
 80020dc:	f7ff f9a4 	bl	8001428 <btnCallbackB>
 80020e0:	bf00      	nop
 80020e2:	bd80      	pop	{r7, pc}

080020e4 <Handle_EXTI3>:
void Handle_EXTI3(void) { btnCallbackEnc(); }
 80020e4:	b580      	push	{r7, lr}
 80020e6:	af00      	add	r7, sp, #0
 80020e8:	f7ff f9be 	bl	8001468 <btnCallbackEnc>
 80020ec:	bf00      	nop
 80020ee:	bd80      	pop	{r7, pc}

080020f0 <Handle_EXTI4>:
void Handle_EXTI4(void)  { ReadyFunc(&servo[0]); }
 80020f0:	b580      	push	{r7, lr}
 80020f2:	af00      	add	r7, sp, #0
 80020f4:	4802      	ldr	r0, [pc, #8]	@ (8002100 <Handle_EXTI4+0x10>)
 80020f6:	f7ff ff7b 	bl	8001ff0 <ReadyFunc>
 80020fa:	bf00      	nop
 80020fc:	bd80      	pop	{r7, pc}
 80020fe:	bf00      	nop
 8002100:	200000c8 	.word	0x200000c8

08002104 <Handle_EXTI5>:
void Handle_EXTI5(void)  { btnCallbackEnc(); }
 8002104:	b580      	push	{r7, lr}
 8002106:	af00      	add	r7, sp, #0
 8002108:	f7ff f9ae 	bl	8001468 <btnCallbackEnc>
 800210c:	bf00      	nop
 800210e:	bd80      	pop	{r7, pc}

08002110 <Handle_EXTI7>:
void Handle_EXTI7(void)  { ReadyFunc(&servo[3]); }
 8002110:	b580      	push	{r7, lr}
 8002112:	af00      	add	r7, sp, #0
 8002114:	4802      	ldr	r0, [pc, #8]	@ (8002120 <Handle_EXTI7+0x10>)
 8002116:	f7ff ff6b 	bl	8001ff0 <ReadyFunc>
 800211a:	bf00      	nop
 800211c:	bd80      	pop	{r7, pc}
 800211e:	bf00      	nop
 8002120:	200001ac 	.word	0x200001ac

08002124 <Handle_EXTI8>:
void Handle_EXTI8(void) { ReadyFunc(&servo[1]); }
 8002124:	b580      	push	{r7, lr}
 8002126:	af00      	add	r7, sp, #0
 8002128:	4802      	ldr	r0, [pc, #8]	@ (8002134 <Handle_EXTI8+0x10>)
 800212a:	f7ff ff61 	bl	8001ff0 <ReadyFunc>
 800212e:	bf00      	nop
 8002130:	bd80      	pop	{r7, pc}
 8002132:	bf00      	nop
 8002134:	20000114 	.word	0x20000114

08002138 <Handle_EXTI9>:
void Handle_EXTI9(void)  { TreachFunc(&servo[1]); }
 8002138:	b580      	push	{r7, lr}
 800213a:	af00      	add	r7, sp, #0
 800213c:	4802      	ldr	r0, [pc, #8]	@ (8002148 <Handle_EXTI9+0x10>)
 800213e:	f7ff ff70 	bl	8002022 <TreachFunc>
 8002142:	bf00      	nop
 8002144:	bd80      	pop	{r7, pc}
 8002146:	bf00      	nop
 8002148:	20000114 	.word	0x20000114

0800214c <Handle_EXTI10>:
void Handle_EXTI10(void)  { TreachFunc(&servo[2]); }
 800214c:	b580      	push	{r7, lr}
 800214e:	af00      	add	r7, sp, #0
 8002150:	4802      	ldr	r0, [pc, #8]	@ (800215c <Handle_EXTI10+0x10>)
 8002152:	f7ff ff66 	bl	8002022 <TreachFunc>
 8002156:	bf00      	nop
 8002158:	bd80      	pop	{r7, pc}
 800215a:	bf00      	nop
 800215c:	20000160 	.word	0x20000160

08002160 <Handle_EXTI11>:
void Handle_EXTI11(void)  { EncZFunc(&servo[3]); }
 8002160:	b580      	push	{r7, lr}
 8002162:	af00      	add	r7, sp, #0
 8002164:	4802      	ldr	r0, [pc, #8]	@ (8002170 <Handle_EXTI11+0x10>)
 8002166:	f7ff ff75 	bl	8002054 <EncZFunc>
 800216a:	bf00      	nop
 800216c:	bd80      	pop	{r7, pc}
 800216e:	bf00      	nop
 8002170:	200001ac 	.word	0x200001ac

08002174 <Handle_EXTI12>:
void Handle_EXTI12(void) { EncZFunc(&servo[1]); }
 8002174:	b580      	push	{r7, lr}
 8002176:	af00      	add	r7, sp, #0
 8002178:	4802      	ldr	r0, [pc, #8]	@ (8002184 <Handle_EXTI12+0x10>)
 800217a:	f7ff ff6b 	bl	8002054 <EncZFunc>
 800217e:	bf00      	nop
 8002180:	bd80      	pop	{r7, pc}
 8002182:	bf00      	nop
 8002184:	20000114 	.word	0x20000114

08002188 <Handle_EXTI13>:
void Handle_EXTI13(void)  { TreachFunc(&servo[3]); }
 8002188:	b580      	push	{r7, lr}
 800218a:	af00      	add	r7, sp, #0
 800218c:	4802      	ldr	r0, [pc, #8]	@ (8002198 <Handle_EXTI13+0x10>)
 800218e:	f7ff ff48 	bl	8002022 <TreachFunc>
 8002192:	bf00      	nop
 8002194:	bd80      	pop	{r7, pc}
 8002196:	bf00      	nop
 8002198:	200001ac 	.word	0x200001ac

0800219c <Handle_EXTI14>:
void Handle_EXTI14(void)  { EncZFunc(&servo[2]); }
 800219c:	b580      	push	{r7, lr}
 800219e:	af00      	add	r7, sp, #0
 80021a0:	4802      	ldr	r0, [pc, #8]	@ (80021ac <Handle_EXTI14+0x10>)
 80021a2:	f7ff ff57 	bl	8002054 <EncZFunc>
 80021a6:	bf00      	nop
 80021a8:	bd80      	pop	{r7, pc}
 80021aa:	bf00      	nop
 80021ac:	20000160 	.word	0x20000160

080021b0 <Handle_EXTI15>:
void Handle_EXTI15(void) { ReadyFunc(&servo[2]); }
 80021b0:	b580      	push	{r7, lr}
 80021b2:	af00      	add	r7, sp, #0
 80021b4:	4802      	ldr	r0, [pc, #8]	@ (80021c0 <Handle_EXTI15+0x10>)
 80021b6:	f7ff ff1b 	bl	8001ff0 <ReadyFunc>
 80021ba:	bf00      	nop
 80021bc:	bd80      	pop	{r7, pc}
 80021be:	bf00      	nop
 80021c0:	20000160 	.word	0x20000160

080021c4 <HAL_GPIO_EXTI_Callback>:
	Handle_EXTI0, Handle_EXTI1, Handle_EXTI2, Handle_EXTI3, Handle_EXTI4, Handle_EXTI5, NULL, Handle_EXTI7, Handle_EXTI8,
	Handle_EXTI9, Handle_EXTI10, Handle_EXTI11, Handle_EXTI12, Handle_EXTI13, Handle_EXTI14, Handle_EXTI15
};

// EXTI Callback
void HAL_GPIO_EXTI_Callback(uint16_t GPIO_Pin) {
 80021c4:	b580      	push	{r7, lr}
 80021c6:	b084      	sub	sp, #16
 80021c8:	af00      	add	r7, sp, #0
 80021ca:	4603      	mov	r3, r0
 80021cc:	80fb      	strh	r3, [r7, #6]
    uint8_t pinNumber = __builtin_ctz(GPIO_Pin); // Get bit position of the pin
 80021ce:	88fb      	ldrh	r3, [r7, #6]
 80021d0:	fa93 f3a3 	rbit	r3, r3
 80021d4:	fab3 f383 	clz	r3, r3
 80021d8:	73fb      	strb	r3, [r7, #15]
    if (pinNumber < sizeof(extiHandlers) / sizeof(ExtiHandler) && extiHandlers[pinNumber]) {
 80021da:	7bfb      	ldrb	r3, [r7, #15]
 80021dc:	2b0f      	cmp	r3, #15
 80021de:	d80a      	bhi.n	80021f6 <HAL_GPIO_EXTI_Callback+0x32>
 80021e0:	7bfb      	ldrb	r3, [r7, #15]
 80021e2:	4a07      	ldr	r2, [pc, #28]	@ (8002200 <HAL_GPIO_EXTI_Callback+0x3c>)
 80021e4:	f852 3023 	ldr.w	r3, [r2, r3, lsl #2]
 80021e8:	2b00      	cmp	r3, #0
 80021ea:	d004      	beq.n	80021f6 <HAL_GPIO_EXTI_Callback+0x32>
        extiHandlers[pinNumber](); // Call the corresponding handler
 80021ec:	7bfb      	ldrb	r3, [r7, #15]
 80021ee:	4a04      	ldr	r2, [pc, #16]	@ (8002200 <HAL_GPIO_EXTI_Callback+0x3c>)
 80021f0:	f852 3023 	ldr.w	r3, [r2, r3, lsl #2]
 80021f4:	4798      	blx	r3
    }
}
 80021f6:	bf00      	nop
 80021f8:	3710      	adds	r7, #16
 80021fa:	46bd      	mov	sp, r7
 80021fc:	bd80      	pop	{r7, pc}
 80021fe:	bf00      	nop
 8002200:	20000114 	.word	0x20000114

08002204 <HAL_MspInit>:
void HAL_TIM_MspPostInit(TIM_HandleTypeDef *htim);
                    /**
  * Initializes the Global MSP.
  */
void HAL_MspInit(void)
{
 8002204:	b480      	push	{r7}
 8002206:	b083      	sub	sp, #12
 8002208:	af00      	add	r7, sp, #0

  /* USER CODE BEGIN MspInit 0 */

  /* USER CODE END MspInit 0 */

  __HAL_RCC_PWR_CLK_ENABLE();
 800220a:	4b0f      	ldr	r3, [pc, #60]	@ (8002248 <HAL_MspInit+0x44>)
 800220c:	6c1b      	ldr	r3, [r3, #64]	@ 0x40
 800220e:	4a0e      	ldr	r2, [pc, #56]	@ (8002248 <HAL_MspInit+0x44>)
 8002210:	f043 5380 	orr.w	r3, r3, #268435456	@ 0x10000000
 8002214:	6413      	str	r3, [r2, #64]	@ 0x40
 8002216:	4b0c      	ldr	r3, [pc, #48]	@ (8002248 <HAL_MspInit+0x44>)
 8002218:	6c1b      	ldr	r3, [r3, #64]	@ 0x40
 800221a:	f003 5380 	and.w	r3, r3, #268435456	@ 0x10000000
 800221e:	607b      	str	r3, [r7, #4]
 8002220:	687b      	ldr	r3, [r7, #4]
  __HAL_RCC_SYSCFG_CLK_ENABLE();
 8002222:	4b09      	ldr	r3, [pc, #36]	@ (8002248 <HAL_MspInit+0x44>)
 8002224:	6c5b      	ldr	r3, [r3, #68]	@ 0x44
 8002226:	4a08      	ldr	r2, [pc, #32]	@ (8002248 <HAL_MspInit+0x44>)
 8002228:	f443 4380 	orr.w	r3, r3, #16384	@ 0x4000
 800222c:	6453      	str	r3, [r2, #68]	@ 0x44
 800222e:	4b06      	ldr	r3, [pc, #24]	@ (8002248 <HAL_MspInit+0x44>)
 8002230:	6c5b      	ldr	r3, [r3, #68]	@ 0x44
 8002232:	f403 4380 	and.w	r3, r3, #16384	@ 0x4000
 8002236:	603b      	str	r3, [r7, #0]
 8002238:	683b      	ldr	r3, [r7, #0]
  /* System interrupt init*/

  /* USER CODE BEGIN MspInit 1 */

  /* USER CODE END MspInit 1 */
}
 800223a:	bf00      	nop
 800223c:	370c      	adds	r7, #12
 800223e:	46bd      	mov	sp, r7
 8002240:	f85d 7b04 	ldr.w	r7, [sp], #4
 8002244:	4770      	bx	lr
 8002246:	bf00      	nop
 8002248:	40023800 	.word	0x40023800

0800224c <HAL_ETH_MspInit>:
  * This function configures the hardware resources used in this example
  * @param heth: ETH handle pointer
  * @retval None
  */
void HAL_ETH_MspInit(ETH_HandleTypeDef* heth)
{
 800224c:	b580      	push	{r7, lr}
 800224e:	b08e      	sub	sp, #56	@ 0x38
 8002250:	af00      	add	r7, sp, #0
 8002252:	6078      	str	r0, [r7, #4]
  GPIO_InitTypeDef GPIO_InitStruct = {0};
 8002254:	f107 0324 	add.w	r3, r7, #36	@ 0x24
 8002258:	2200      	movs	r2, #0
 800225a:	601a      	str	r2, [r3, #0]
 800225c:	605a      	str	r2, [r3, #4]
 800225e:	609a      	str	r2, [r3, #8]
 8002260:	60da      	str	r2, [r3, #12]
 8002262:	611a      	str	r2, [r3, #16]
  if(heth->Instance==ETH)
 8002264:	687b      	ldr	r3, [r7, #4]
 8002266:	681b      	ldr	r3, [r3, #0]
 8002268:	4a4e      	ldr	r2, [pc, #312]	@ (80023a4 <HAL_ETH_MspInit+0x158>)
 800226a:	4293      	cmp	r3, r2
 800226c:	f040 8096 	bne.w	800239c <HAL_ETH_MspInit+0x150>
  {
    /* USER CODE BEGIN ETH_MspInit 0 */

    /* USER CODE END ETH_MspInit 0 */
    /* Peripheral clock enable */
    __HAL_RCC_ETH_CLK_ENABLE();
 8002270:	4b4d      	ldr	r3, [pc, #308]	@ (80023a8 <HAL_ETH_MspInit+0x15c>)
 8002272:	6b1b      	ldr	r3, [r3, #48]	@ 0x30
 8002274:	4a4c      	ldr	r2, [pc, #304]	@ (80023a8 <HAL_ETH_MspInit+0x15c>)
 8002276:	f043 7300 	orr.w	r3, r3, #33554432	@ 0x2000000
 800227a:	6313      	str	r3, [r2, #48]	@ 0x30
 800227c:	4b4a      	ldr	r3, [pc, #296]	@ (80023a8 <HAL_ETH_MspInit+0x15c>)
 800227e:	6b1b      	ldr	r3, [r3, #48]	@ 0x30
 8002280:	f003 7300 	and.w	r3, r3, #33554432	@ 0x2000000
 8002284:	623b      	str	r3, [r7, #32]
 8002286:	6a3b      	ldr	r3, [r7, #32]
 8002288:	4b47      	ldr	r3, [pc, #284]	@ (80023a8 <HAL_ETH_MspInit+0x15c>)
 800228a:	6b1b      	ldr	r3, [r3, #48]	@ 0x30
 800228c:	4a46      	ldr	r2, [pc, #280]	@ (80023a8 <HAL_ETH_MspInit+0x15c>)
 800228e:	f043 6380 	orr.w	r3, r3, #67108864	@ 0x4000000
 8002292:	6313      	str	r3, [r2, #48]	@ 0x30
 8002294:	4b44      	ldr	r3, [pc, #272]	@ (80023a8 <HAL_ETH_MspInit+0x15c>)
 8002296:	6b1b      	ldr	r3, [r3, #48]	@ 0x30
 8002298:	f003 6380 	and.w	r3, r3, #67108864	@ 0x4000000
 800229c:	61fb      	str	r3, [r7, #28]
 800229e:	69fb      	ldr	r3, [r7, #28]
 80022a0:	4b41      	ldr	r3, [pc, #260]	@ (80023a8 <HAL_ETH_MspInit+0x15c>)
 80022a2:	6b1b      	ldr	r3, [r3, #48]	@ 0x30
 80022a4:	4a40      	ldr	r2, [pc, #256]	@ (80023a8 <HAL_ETH_MspInit+0x15c>)
 80022a6:	f043 6300 	orr.w	r3, r3, #134217728	@ 0x8000000
 80022aa:	6313      	str	r3, [r2, #48]	@ 0x30
 80022ac:	4b3e      	ldr	r3, [pc, #248]	@ (80023a8 <HAL_ETH_MspInit+0x15c>)
 80022ae:	6b1b      	ldr	r3, [r3, #48]	@ 0x30
 80022b0:	f003 6300 	and.w	r3, r3, #134217728	@ 0x8000000
 80022b4:	61bb      	str	r3, [r7, #24]
 80022b6:	69bb      	ldr	r3, [r7, #24]

    __HAL_RCC_GPIOC_CLK_ENABLE();
 80022b8:	4b3b      	ldr	r3, [pc, #236]	@ (80023a8 <HAL_ETH_MspInit+0x15c>)
 80022ba:	6b1b      	ldr	r3, [r3, #48]	@ 0x30
 80022bc:	4a3a      	ldr	r2, [pc, #232]	@ (80023a8 <HAL_ETH_MspInit+0x15c>)
 80022be:	f043 0304 	orr.w	r3, r3, #4
 80022c2:	6313      	str	r3, [r2, #48]	@ 0x30
 80022c4:	4b38      	ldr	r3, [pc, #224]	@ (80023a8 <HAL_ETH_MspInit+0x15c>)
 80022c6:	6b1b      	ldr	r3, [r3, #48]	@ 0x30
 80022c8:	f003 0304 	and.w	r3, r3, #4
 80022cc:	617b      	str	r3, [r7, #20]
 80022ce:	697b      	ldr	r3, [r7, #20]
    __HAL_RCC_GPIOA_CLK_ENABLE();
 80022d0:	4b35      	ldr	r3, [pc, #212]	@ (80023a8 <HAL_ETH_MspInit+0x15c>)
 80022d2:	6b1b      	ldr	r3, [r3, #48]	@ 0x30
 80022d4:	4a34      	ldr	r2, [pc, #208]	@ (80023a8 <HAL_ETH_MspInit+0x15c>)
 80022d6:	f043 0301 	orr.w	r3, r3, #1
 80022da:	6313      	str	r3, [r2, #48]	@ 0x30
 80022dc:	4b32      	ldr	r3, [pc, #200]	@ (80023a8 <HAL_ETH_MspInit+0x15c>)
 80022de:	6b1b      	ldr	r3, [r3, #48]	@ 0x30
 80022e0:	f003 0301 	and.w	r3, r3, #1
 80022e4:	613b      	str	r3, [r7, #16]
 80022e6:	693b      	ldr	r3, [r7, #16]
    __HAL_RCC_GPIOB_CLK_ENABLE();
 80022e8:	4b2f      	ldr	r3, [pc, #188]	@ (80023a8 <HAL_ETH_MspInit+0x15c>)
 80022ea:	6b1b      	ldr	r3, [r3, #48]	@ 0x30
 80022ec:	4a2e      	ldr	r2, [pc, #184]	@ (80023a8 <HAL_ETH_MspInit+0x15c>)
 80022ee:	f043 0302 	orr.w	r3, r3, #2
 80022f2:	6313      	str	r3, [r2, #48]	@ 0x30
 80022f4:	4b2c      	ldr	r3, [pc, #176]	@ (80023a8 <HAL_ETH_MspInit+0x15c>)
 80022f6:	6b1b      	ldr	r3, [r3, #48]	@ 0x30
 80022f8:	f003 0302 	and.w	r3, r3, #2
 80022fc:	60fb      	str	r3, [r7, #12]
 80022fe:	68fb      	ldr	r3, [r7, #12]
    __HAL_RCC_GPIOG_CLK_ENABLE();
 8002300:	4b29      	ldr	r3, [pc, #164]	@ (80023a8 <HAL_ETH_MspInit+0x15c>)
 8002302:	6b1b      	ldr	r3, [r3, #48]	@ 0x30
 8002304:	4a28      	ldr	r2, [pc, #160]	@ (80023a8 <HAL_ETH_MspInit+0x15c>)
 8002306:	f043 0340 	orr.w	r3, r3, #64	@ 0x40
 800230a:	6313      	str	r3, [r2, #48]	@ 0x30
 800230c:	4b26      	ldr	r3, [pc, #152]	@ (80023a8 <HAL_ETH_MspInit+0x15c>)
 800230e:	6b1b      	ldr	r3, [r3, #48]	@ 0x30
 8002310:	f003 0340 	and.w	r3, r3, #64	@ 0x40
 8002314:	60bb      	str	r3, [r7, #8]
 8002316:	68bb      	ldr	r3, [r7, #8]
    PC5     ------> ETH_RXD1
    PB13     ------> ETH_TXD1
    PG11     ------> ETH_TX_EN
    PG13     ------> ETH_TXD0
    */
    GPIO_InitStruct.Pin = RMII_MDC_Pin|RMII_RXD0_Pin|RMII_RXD1_Pin;
 8002318:	2332      	movs	r3, #50	@ 0x32
 800231a:	627b      	str	r3, [r7, #36]	@ 0x24
    GPIO_InitStruct.Mode = GPIO_MODE_AF_PP;
 800231c:	2302      	movs	r3, #2
 800231e:	62bb      	str	r3, [r7, #40]	@ 0x28
    GPIO_InitStruct.Pull = GPIO_NOPULL;
 8002320:	2300      	movs	r3, #0
 8002322:	62fb      	str	r3, [r7, #44]	@ 0x2c
    GPIO_InitStruct.Speed = GPIO_SPEED_FREQ_VERY_HIGH;
 8002324:	2303      	movs	r3, #3
 8002326:	633b      	str	r3, [r7, #48]	@ 0x30
    GPIO_InitStruct.Alternate = GPIO_AF11_ETH;
 8002328:	230b      	movs	r3, #11
 800232a:	637b      	str	r3, [r7, #52]	@ 0x34
    HAL_GPIO_Init(GPIOC, &GPIO_InitStruct);
 800232c:	f107 0324 	add.w	r3, r7, #36	@ 0x24
 8002330:	4619      	mov	r1, r3
 8002332:	481e      	ldr	r0, [pc, #120]	@ (80023ac <HAL_ETH_MspInit+0x160>)
 8002334:	f001 fb8e 	bl	8003a54 <HAL_GPIO_Init>

    GPIO_InitStruct.Pin = RMII_REF_CLK_Pin|RMII_MDIO_Pin|RMII_CRS_DV_Pin;
 8002338:	2386      	movs	r3, #134	@ 0x86
 800233a:	627b      	str	r3, [r7, #36]	@ 0x24
    GPIO_InitStruct.Mode = GPIO_MODE_AF_PP;
 800233c:	2302      	movs	r3, #2
 800233e:	62bb      	str	r3, [r7, #40]	@ 0x28
    GPIO_InitStruct.Pull = GPIO_NOPULL;
 8002340:	2300      	movs	r3, #0
 8002342:	62fb      	str	r3, [r7, #44]	@ 0x2c
    GPIO_InitStruct.Speed = GPIO_SPEED_FREQ_VERY_HIGH;
 8002344:	2303      	movs	r3, #3
 8002346:	633b      	str	r3, [r7, #48]	@ 0x30
    GPIO_InitStruct.Alternate = GPIO_AF11_ETH;
 8002348:	230b      	movs	r3, #11
 800234a:	637b      	str	r3, [r7, #52]	@ 0x34
    HAL_GPIO_Init(GPIOA, &GPIO_InitStruct);
 800234c:	f107 0324 	add.w	r3, r7, #36	@ 0x24
 8002350:	4619      	mov	r1, r3
 8002352:	4817      	ldr	r0, [pc, #92]	@ (80023b0 <HAL_ETH_MspInit+0x164>)
 8002354:	f001 fb7e 	bl	8003a54 <HAL_GPIO_Init>

    GPIO_InitStruct.Pin = RMII_TXD1_Pin;
 8002358:	f44f 5300 	mov.w	r3, #8192	@ 0x2000
 800235c:	627b      	str	r3, [r7, #36]	@ 0x24
    GPIO_InitStruct.Mode = GPIO_MODE_AF_PP;
 800235e:	2302      	movs	r3, #2
 8002360:	62bb      	str	r3, [r7, #40]	@ 0x28
    GPIO_InitStruct.Pull = GPIO_NOPULL;
 8002362:	2300      	movs	r3, #0
 8002364:	62fb      	str	r3, [r7, #44]	@ 0x2c
    GPIO_InitStruct.Speed = GPIO_SPEED_FREQ_VERY_HIGH;
 8002366:	2303      	movs	r3, #3
 8002368:	633b      	str	r3, [r7, #48]	@ 0x30
    GPIO_InitStruct.Alternate = GPIO_AF11_ETH;
 800236a:	230b      	movs	r3, #11
 800236c:	637b      	str	r3, [r7, #52]	@ 0x34
    HAL_GPIO_Init(RMII_TXD1_GPIO_Port, &GPIO_InitStruct);
 800236e:	f107 0324 	add.w	r3, r7, #36	@ 0x24
 8002372:	4619      	mov	r1, r3
 8002374:	480f      	ldr	r0, [pc, #60]	@ (80023b4 <HAL_ETH_MspInit+0x168>)
 8002376:	f001 fb6d 	bl	8003a54 <HAL_GPIO_Init>

    GPIO_InitStruct.Pin = RMII_TX_EN_Pin|RMII_TXD0_Pin;
 800237a:	f44f 5320 	mov.w	r3, #10240	@ 0x2800
 800237e:	627b      	str	r3, [r7, #36]	@ 0x24
    GPIO_InitStruct.Mode = GPIO_MODE_AF_PP;
 8002380:	2302      	movs	r3, #2
 8002382:	62bb      	str	r3, [r7, #40]	@ 0x28
    GPIO_InitStruct.Pull = GPIO_NOPULL;
 8002384:	2300      	movs	r3, #0
 8002386:	62fb      	str	r3, [r7, #44]	@ 0x2c
    GPIO_InitStruct.Speed = GPIO_SPEED_FREQ_VERY_HIGH;
 8002388:	2303      	movs	r3, #3
 800238a:	633b      	str	r3, [r7, #48]	@ 0x30
    GPIO_InitStruct.Alternate = GPIO_AF11_ETH;
 800238c:	230b      	movs	r3, #11
 800238e:	637b      	str	r3, [r7, #52]	@ 0x34
    HAL_GPIO_Init(GPIOG, &GPIO_InitStruct);
 8002390:	f107 0324 	add.w	r3, r7, #36	@ 0x24
 8002394:	4619      	mov	r1, r3
 8002396:	4808      	ldr	r0, [pc, #32]	@ (80023b8 <HAL_ETH_MspInit+0x16c>)
 8002398:	f001 fb5c 	bl	8003a54 <HAL_GPIO_Init>

    /* USER CODE END ETH_MspInit 1 */

  }

}
 800239c:	bf00      	nop
 800239e:	3738      	adds	r7, #56	@ 0x38
 80023a0:	46bd      	mov	sp, r7
 80023a2:	bd80      	pop	{r7, pc}
 80023a4:	40028000 	.word	0x40028000
 80023a8:	40023800 	.word	0x40023800
 80023ac:	40020800 	.word	0x40020800
 80023b0:	40020000 	.word	0x40020000
 80023b4:	40020400 	.word	0x40020400
 80023b8:	40021800 	.word	0x40021800

080023bc <HAL_I2C_MspInit>:
  * This function configures the hardware resources used in this example
  * @param hi2c: I2C handle pointer
  * @retval None
  */
void HAL_I2C_MspInit(I2C_HandleTypeDef* hi2c)
{
 80023bc:	b580      	push	{r7, lr}
 80023be:	b0ac      	sub	sp, #176	@ 0xb0
 80023c0:	af00      	add	r7, sp, #0
 80023c2:	6078      	str	r0, [r7, #4]
  GPIO_InitTypeDef GPIO_InitStruct = {0};
 80023c4:	f107 039c 	add.w	r3, r7, #156	@ 0x9c
 80023c8:	2200      	movs	r2, #0
 80023ca:	601a      	str	r2, [r3, #0]
 80023cc:	605a      	str	r2, [r3, #4]
 80023ce:	609a      	str	r2, [r3, #8]
 80023d0:	60da      	str	r2, [r3, #12]
 80023d2:	611a      	str	r2, [r3, #16]
  RCC_PeriphCLKInitTypeDef PeriphClkInitStruct = {0};
 80023d4:	f107 0318 	add.w	r3, r7, #24
 80023d8:	2284      	movs	r2, #132	@ 0x84
 80023da:	2100      	movs	r1, #0
 80023dc:	4618      	mov	r0, r3
 80023de:	f006 fd8b 	bl	8008ef8 <memset>
  if(hi2c->Instance==I2C1)
 80023e2:	687b      	ldr	r3, [r7, #4]
 80023e4:	681b      	ldr	r3, [r3, #0]
 80023e6:	4a43      	ldr	r2, [pc, #268]	@ (80024f4 <HAL_I2C_MspInit+0x138>)
 80023e8:	4293      	cmp	r3, r2
 80023ea:	d13d      	bne.n	8002468 <HAL_I2C_MspInit+0xac>

    /* USER CODE END I2C1_MspInit 0 */

  /** Initializes the peripherals clock
  */
    PeriphClkInitStruct.PeriphClockSelection = RCC_PERIPHCLK_I2C1;
 80023ec:	f44f 4380 	mov.w	r3, #16384	@ 0x4000
 80023f0:	61bb      	str	r3, [r7, #24]
    PeriphClkInitStruct.I2c1ClockSelection = RCC_I2C1CLKSOURCE_PCLK1;
 80023f2:	2300      	movs	r3, #0
 80023f4:	67fb      	str	r3, [r7, #124]	@ 0x7c
    if (HAL_RCCEx_PeriphCLKConfig(&PeriphClkInitStruct) != HAL_OK)
 80023f6:	f107 0318 	add.w	r3, r7, #24
 80023fa:	4618      	mov	r0, r3
 80023fc:	f003 f960 	bl	80056c0 <HAL_RCCEx_PeriphCLKConfig>
 8002400:	4603      	mov	r3, r0
 8002402:	2b00      	cmp	r3, #0
 8002404:	d001      	beq.n	800240a <HAL_I2C_MspInit+0x4e>
    {
      Error_Handler();
 8002406:	f7ff fdad 	bl	8001f64 <Error_Handler>
    }

    __HAL_RCC_GPIOB_CLK_ENABLE();
 800240a:	4b3b      	ldr	r3, [pc, #236]	@ (80024f8 <HAL_I2C_MspInit+0x13c>)
 800240c:	6b1b      	ldr	r3, [r3, #48]	@ 0x30
 800240e:	4a3a      	ldr	r2, [pc, #232]	@ (80024f8 <HAL_I2C_MspInit+0x13c>)
 8002410:	f043 0302 	orr.w	r3, r3, #2
 8002414:	6313      	str	r3, [r2, #48]	@ 0x30
 8002416:	4b38      	ldr	r3, [pc, #224]	@ (80024f8 <HAL_I2C_MspInit+0x13c>)
 8002418:	6b1b      	ldr	r3, [r3, #48]	@ 0x30
 800241a:	f003 0302 	and.w	r3, r3, #2
 800241e:	617b      	str	r3, [r7, #20]
 8002420:	697b      	ldr	r3, [r7, #20]
    /**I2C1 GPIO Configuration
    PB8     ------> I2C1_SCL
    PB9     ------> I2C1_SDA
    */
    GPIO_InitStruct.Pin = GPIO_PIN_8|GPIO_PIN_9;
 8002422:	f44f 7340 	mov.w	r3, #768	@ 0x300
 8002426:	f8c7 309c 	str.w	r3, [r7, #156]	@ 0x9c
    GPIO_InitStruct.Mode = GPIO_MODE_AF_OD;
 800242a:	2312      	movs	r3, #18
 800242c:	f8c7 30a0 	str.w	r3, [r7, #160]	@ 0xa0
    GPIO_InitStruct.Pull = GPIO_NOPULL;
 8002430:	2300      	movs	r3, #0
 8002432:	f8c7 30a4 	str.w	r3, [r7, #164]	@ 0xa4
    GPIO_InitStruct.Speed = GPIO_SPEED_FREQ_VERY_HIGH;
 8002436:	2303      	movs	r3, #3
 8002438:	f8c7 30a8 	str.w	r3, [r7, #168]	@ 0xa8
    GPIO_InitStruct.Alternate = GPIO_AF4_I2C1;
 800243c:	2304      	movs	r3, #4
 800243e:	f8c7 30ac 	str.w	r3, [r7, #172]	@ 0xac
    HAL_GPIO_Init(GPIOB, &GPIO_InitStruct);
 8002442:	f107 039c 	add.w	r3, r7, #156	@ 0x9c
 8002446:	4619      	mov	r1, r3
 8002448:	482c      	ldr	r0, [pc, #176]	@ (80024fc <HAL_I2C_MspInit+0x140>)
 800244a:	f001 fb03 	bl	8003a54 <HAL_GPIO_Init>

    /* Peripheral clock enable */
    __HAL_RCC_I2C1_CLK_ENABLE();
 800244e:	4b2a      	ldr	r3, [pc, #168]	@ (80024f8 <HAL_I2C_MspInit+0x13c>)
 8002450:	6c1b      	ldr	r3, [r3, #64]	@ 0x40
 8002452:	4a29      	ldr	r2, [pc, #164]	@ (80024f8 <HAL_I2C_MspInit+0x13c>)
 8002454:	f443 1300 	orr.w	r3, r3, #2097152	@ 0x200000
 8002458:	6413      	str	r3, [r2, #64]	@ 0x40
 800245a:	4b27      	ldr	r3, [pc, #156]	@ (80024f8 <HAL_I2C_MspInit+0x13c>)
 800245c:	6c1b      	ldr	r3, [r3, #64]	@ 0x40
 800245e:	f403 1300 	and.w	r3, r3, #2097152	@ 0x200000
 8002462:	613b      	str	r3, [r7, #16]
 8002464:	693b      	ldr	r3, [r7, #16]
    /* USER CODE BEGIN I2C2_MspInit 1 */

    /* USER CODE END I2C2_MspInit 1 */
  }

}
 8002466:	e041      	b.n	80024ec <HAL_I2C_MspInit+0x130>
  else if(hi2c->Instance==I2C2)
 8002468:	687b      	ldr	r3, [r7, #4]
 800246a:	681b      	ldr	r3, [r3, #0]
 800246c:	4a24      	ldr	r2, [pc, #144]	@ (8002500 <HAL_I2C_MspInit+0x144>)
 800246e:	4293      	cmp	r3, r2
 8002470:	d13c      	bne.n	80024ec <HAL_I2C_MspInit+0x130>
    PeriphClkInitStruct.PeriphClockSelection = RCC_PERIPHCLK_I2C2;
 8002472:	f44f 4300 	mov.w	r3, #32768	@ 0x8000
 8002476:	61bb      	str	r3, [r7, #24]
    PeriphClkInitStruct.I2c2ClockSelection = RCC_I2C2CLKSOURCE_PCLK1;
 8002478:	2300      	movs	r3, #0
 800247a:	f8c7 3080 	str.w	r3, [r7, #128]	@ 0x80
    if (HAL_RCCEx_PeriphCLKConfig(&PeriphClkInitStruct) != HAL_OK)
 800247e:	f107 0318 	add.w	r3, r7, #24
 8002482:	4618      	mov	r0, r3
 8002484:	f003 f91c 	bl	80056c0 <HAL_RCCEx_PeriphCLKConfig>
 8002488:	4603      	mov	r3, r0
 800248a:	2b00      	cmp	r3, #0
 800248c:	d001      	beq.n	8002492 <HAL_I2C_MspInit+0xd6>
      Error_Handler();
 800248e:	f7ff fd69 	bl	8001f64 <Error_Handler>
    __HAL_RCC_GPIOF_CLK_ENABLE();
 8002492:	4b19      	ldr	r3, [pc, #100]	@ (80024f8 <HAL_I2C_MspInit+0x13c>)
 8002494:	6b1b      	ldr	r3, [r3, #48]	@ 0x30
 8002496:	4a18      	ldr	r2, [pc, #96]	@ (80024f8 <HAL_I2C_MspInit+0x13c>)
 8002498:	f043 0320 	orr.w	r3, r3, #32
 800249c:	6313      	str	r3, [r2, #48]	@ 0x30
 800249e:	4b16      	ldr	r3, [pc, #88]	@ (80024f8 <HAL_I2C_MspInit+0x13c>)
 80024a0:	6b1b      	ldr	r3, [r3, #48]	@ 0x30
 80024a2:	f003 0320 	and.w	r3, r3, #32
 80024a6:	60fb      	str	r3, [r7, #12]
 80024a8:	68fb      	ldr	r3, [r7, #12]
    GPIO_InitStruct.Pin = GPIO_PIN_0|GPIO_PIN_1;
 80024aa:	2303      	movs	r3, #3
 80024ac:	f8c7 309c 	str.w	r3, [r7, #156]	@ 0x9c
    GPIO_InitStruct.Mode = GPIO_MODE_AF_OD;
 80024b0:	2312      	movs	r3, #18
 80024b2:	f8c7 30a0 	str.w	r3, [r7, #160]	@ 0xa0
    GPIO_InitStruct.Pull = GPIO_NOPULL;
 80024b6:	2300      	movs	r3, #0
 80024b8:	f8c7 30a4 	str.w	r3, [r7, #164]	@ 0xa4
    GPIO_InitStruct.Speed = GPIO_SPEED_FREQ_VERY_HIGH;
 80024bc:	2303      	movs	r3, #3
 80024be:	f8c7 30a8 	str.w	r3, [r7, #168]	@ 0xa8
    GPIO_InitStruct.Alternate = GPIO_AF4_I2C2;
 80024c2:	2304      	movs	r3, #4
 80024c4:	f8c7 30ac 	str.w	r3, [r7, #172]	@ 0xac
    HAL_GPIO_Init(GPIOF, &GPIO_InitStruct);
 80024c8:	f107 039c 	add.w	r3, r7, #156	@ 0x9c
 80024cc:	4619      	mov	r1, r3
 80024ce:	480d      	ldr	r0, [pc, #52]	@ (8002504 <HAL_I2C_MspInit+0x148>)
 80024d0:	f001 fac0 	bl	8003a54 <HAL_GPIO_Init>
    __HAL_RCC_I2C2_CLK_ENABLE();
 80024d4:	4b08      	ldr	r3, [pc, #32]	@ (80024f8 <HAL_I2C_MspInit+0x13c>)
 80024d6:	6c1b      	ldr	r3, [r3, #64]	@ 0x40
 80024d8:	4a07      	ldr	r2, [pc, #28]	@ (80024f8 <HAL_I2C_MspInit+0x13c>)
 80024da:	f443 0380 	orr.w	r3, r3, #4194304	@ 0x400000
 80024de:	6413      	str	r3, [r2, #64]	@ 0x40
 80024e0:	4b05      	ldr	r3, [pc, #20]	@ (80024f8 <HAL_I2C_MspInit+0x13c>)
 80024e2:	6c1b      	ldr	r3, [r3, #64]	@ 0x40
 80024e4:	f403 0380 	and.w	r3, r3, #4194304	@ 0x400000
 80024e8:	60bb      	str	r3, [r7, #8]
 80024ea:	68bb      	ldr	r3, [r7, #8]
}
 80024ec:	bf00      	nop
 80024ee:	37b0      	adds	r7, #176	@ 0xb0
 80024f0:	46bd      	mov	sp, r7
 80024f2:	bd80      	pop	{r7, pc}
 80024f4:	40005400 	.word	0x40005400
 80024f8:	40023800 	.word	0x40023800
 80024fc:	40020400 	.word	0x40020400
 8002500:	40005800 	.word	0x40005800
 8002504:	40021400 	.word	0x40021400

08002508 <HAL_TIM_Base_MspInit>:
  * This function configures the hardware resources used in this example
  * @param htim_base: TIM_Base handle pointer
  * @retval None
  */
void HAL_TIM_Base_MspInit(TIM_HandleTypeDef* htim_base)
{
 8002508:	b580      	push	{r7, lr}
 800250a:	b086      	sub	sp, #24
 800250c:	af00      	add	r7, sp, #0
 800250e:	6078      	str	r0, [r7, #4]
  if(htim_base->Instance==TIM2)
 8002510:	687b      	ldr	r3, [r7, #4]
 8002512:	681b      	ldr	r3, [r3, #0]
 8002514:	f1b3 4f80 	cmp.w	r3, #1073741824	@ 0x40000000
 8002518:	d114      	bne.n	8002544 <HAL_TIM_Base_MspInit+0x3c>
  {
    /* USER CODE BEGIN TIM2_MspInit 0 */

    /* USER CODE END TIM2_MspInit 0 */
    /* Peripheral clock enable */
    __HAL_RCC_TIM2_CLK_ENABLE();
 800251a:	4b1e      	ldr	r3, [pc, #120]	@ (8002594 <HAL_TIM_Base_MspInit+0x8c>)
 800251c:	6c1b      	ldr	r3, [r3, #64]	@ 0x40
 800251e:	4a1d      	ldr	r2, [pc, #116]	@ (8002594 <HAL_TIM_Base_MspInit+0x8c>)
 8002520:	f043 0301 	orr.w	r3, r3, #1
 8002524:	6413      	str	r3, [r2, #64]	@ 0x40
 8002526:	4b1b      	ldr	r3, [pc, #108]	@ (8002594 <HAL_TIM_Base_MspInit+0x8c>)
 8002528:	6c1b      	ldr	r3, [r3, #64]	@ 0x40
 800252a:	f003 0301 	and.w	r3, r3, #1
 800252e:	617b      	str	r3, [r7, #20]
 8002530:	697b      	ldr	r3, [r7, #20]
    /* TIM2 interrupt Init */
    HAL_NVIC_SetPriority(TIM2_IRQn, 0, 0);
 8002532:	2200      	movs	r2, #0
 8002534:	2100      	movs	r1, #0
 8002536:	201c      	movs	r0, #28
 8002538:	f000 ff07 	bl	800334a <HAL_NVIC_SetPriority>
    HAL_NVIC_EnableIRQ(TIM2_IRQn);
 800253c:	201c      	movs	r0, #28
 800253e:	f000 ff20 	bl	8003382 <HAL_NVIC_EnableIRQ>
    /* USER CODE BEGIN TIM14_MspInit 1 */

    /* USER CODE END TIM14_MspInit 1 */
  }

}
 8002542:	e022      	b.n	800258a <HAL_TIM_Base_MspInit+0x82>
  else if(htim_base->Instance==TIM3)
 8002544:	687b      	ldr	r3, [r7, #4]
 8002546:	681b      	ldr	r3, [r3, #0]
 8002548:	4a13      	ldr	r2, [pc, #76]	@ (8002598 <HAL_TIM_Base_MspInit+0x90>)
 800254a:	4293      	cmp	r3, r2
 800254c:	d10c      	bne.n	8002568 <HAL_TIM_Base_MspInit+0x60>
    __HAL_RCC_TIM3_CLK_ENABLE();
 800254e:	4b11      	ldr	r3, [pc, #68]	@ (8002594 <HAL_TIM_Base_MspInit+0x8c>)
 8002550:	6c1b      	ldr	r3, [r3, #64]	@ 0x40
 8002552:	4a10      	ldr	r2, [pc, #64]	@ (8002594 <HAL_TIM_Base_MspInit+0x8c>)
 8002554:	f043 0302 	orr.w	r3, r3, #2
 8002558:	6413      	str	r3, [r2, #64]	@ 0x40
 800255a:	4b0e      	ldr	r3, [pc, #56]	@ (8002594 <HAL_TIM_Base_MspInit+0x8c>)
 800255c:	6c1b      	ldr	r3, [r3, #64]	@ 0x40
 800255e:	f003 0302 	and.w	r3, r3, #2
 8002562:	613b      	str	r3, [r7, #16]
 8002564:	693b      	ldr	r3, [r7, #16]
}
 8002566:	e010      	b.n	800258a <HAL_TIM_Base_MspInit+0x82>
  else if(htim_base->Instance==TIM14)
 8002568:	687b      	ldr	r3, [r7, #4]
 800256a:	681b      	ldr	r3, [r3, #0]
 800256c:	4a0b      	ldr	r2, [pc, #44]	@ (800259c <HAL_TIM_Base_MspInit+0x94>)
 800256e:	4293      	cmp	r3, r2
 8002570:	d10b      	bne.n	800258a <HAL_TIM_Base_MspInit+0x82>
    __HAL_RCC_TIM14_CLK_ENABLE();
 8002572:	4b08      	ldr	r3, [pc, #32]	@ (8002594 <HAL_TIM_Base_MspInit+0x8c>)
 8002574:	6c1b      	ldr	r3, [r3, #64]	@ 0x40
 8002576:	4a07      	ldr	r2, [pc, #28]	@ (8002594 <HAL_TIM_Base_MspInit+0x8c>)
 8002578:	f443 7380 	orr.w	r3, r3, #256	@ 0x100
 800257c:	6413      	str	r3, [r2, #64]	@ 0x40
 800257e:	4b05      	ldr	r3, [pc, #20]	@ (8002594 <HAL_TIM_Base_MspInit+0x8c>)
 8002580:	6c1b      	ldr	r3, [r3, #64]	@ 0x40
 8002582:	f403 7380 	and.w	r3, r3, #256	@ 0x100
 8002586:	60fb      	str	r3, [r7, #12]
 8002588:	68fb      	ldr	r3, [r7, #12]
}
 800258a:	bf00      	nop
 800258c:	3718      	adds	r7, #24
 800258e:	46bd      	mov	sp, r7
 8002590:	bd80      	pop	{r7, pc}
 8002592:	bf00      	nop
 8002594:	40023800 	.word	0x40023800
 8002598:	40000400 	.word	0x40000400
 800259c:	40002000 	.word	0x40002000

080025a0 <HAL_TIM_Encoder_MspInit>:
  * This function configures the hardware resources used in this example
  * @param htim_encoder: TIM_Encoder handle pointer
  * @retval None
  */
void HAL_TIM_Encoder_MspInit(TIM_HandleTypeDef* htim_encoder)
{
 80025a0:	b580      	push	{r7, lr}
 80025a2:	b08a      	sub	sp, #40	@ 0x28
 80025a4:	af00      	add	r7, sp, #0
 80025a6:	6078      	str	r0, [r7, #4]
  GPIO_InitTypeDef GPIO_InitStruct = {0};
 80025a8:	f107 0314 	add.w	r3, r7, #20
 80025ac:	2200      	movs	r2, #0
 80025ae:	601a      	str	r2, [r3, #0]
 80025b0:	605a      	str	r2, [r3, #4]
 80025b2:	609a      	str	r2, [r3, #8]
 80025b4:	60da      	str	r2, [r3, #12]
 80025b6:	611a      	str	r2, [r3, #16]
  if(htim_encoder->Instance==TIM4)
 80025b8:	687b      	ldr	r3, [r7, #4]
 80025ba:	681b      	ldr	r3, [r3, #0]
 80025bc:	4a17      	ldr	r2, [pc, #92]	@ (800261c <HAL_TIM_Encoder_MspInit+0x7c>)
 80025be:	4293      	cmp	r3, r2
 80025c0:	d128      	bne.n	8002614 <HAL_TIM_Encoder_MspInit+0x74>
  {
    /* USER CODE BEGIN TIM4_MspInit 0 */

    /* USER CODE END TIM4_MspInit 0 */
    /* Peripheral clock enable */
    __HAL_RCC_TIM4_CLK_ENABLE();
 80025c2:	4b17      	ldr	r3, [pc, #92]	@ (8002620 <HAL_TIM_Encoder_MspInit+0x80>)
 80025c4:	6c1b      	ldr	r3, [r3, #64]	@ 0x40
 80025c6:	4a16      	ldr	r2, [pc, #88]	@ (8002620 <HAL_TIM_Encoder_MspInit+0x80>)
 80025c8:	f043 0304 	orr.w	r3, r3, #4
 80025cc:	6413      	str	r3, [r2, #64]	@ 0x40
 80025ce:	4b14      	ldr	r3, [pc, #80]	@ (8002620 <HAL_TIM_Encoder_MspInit+0x80>)
 80025d0:	6c1b      	ldr	r3, [r3, #64]	@ 0x40
 80025d2:	f003 0304 	and.w	r3, r3, #4
 80025d6:	613b      	str	r3, [r7, #16]
 80025d8:	693b      	ldr	r3, [r7, #16]

    __HAL_RCC_GPIOD_CLK_ENABLE();
 80025da:	4b11      	ldr	r3, [pc, #68]	@ (8002620 <HAL_TIM_Encoder_MspInit+0x80>)
 80025dc:	6b1b      	ldr	r3, [r3, #48]	@ 0x30
 80025de:	4a10      	ldr	r2, [pc, #64]	@ (8002620 <HAL_TIM_Encoder_MspInit+0x80>)
 80025e0:	f043 0308 	orr.w	r3, r3, #8
 80025e4:	6313      	str	r3, [r2, #48]	@ 0x30
 80025e6:	4b0e      	ldr	r3, [pc, #56]	@ (8002620 <HAL_TIM_Encoder_MspInit+0x80>)
 80025e8:	6b1b      	ldr	r3, [r3, #48]	@ 0x30
 80025ea:	f003 0308 	and.w	r3, r3, #8
 80025ee:	60fb      	str	r3, [r7, #12]
 80025f0:	68fb      	ldr	r3, [r7, #12]
    /**TIM4 GPIO Configuration
    PD12     ------> TIM4_CH1
    PD13     ------> TIM4_CH2
    */
    GPIO_InitStruct.Pin = PotA_Pin|PotB_Pin;
 80025f2:	f44f 5340 	mov.w	r3, #12288	@ 0x3000
 80025f6:	617b      	str	r3, [r7, #20]
    GPIO_InitStruct.Mode = GPIO_MODE_AF_PP;
 80025f8:	2302      	movs	r3, #2
 80025fa:	61bb      	str	r3, [r7, #24]
    GPIO_InitStruct.Pull = GPIO_NOPULL;
 80025fc:	2300      	movs	r3, #0
 80025fe:	61fb      	str	r3, [r7, #28]
    GPIO_InitStruct.Speed = GPIO_SPEED_FREQ_LOW;
 8002600:	2300      	movs	r3, #0
 8002602:	623b      	str	r3, [r7, #32]
    GPIO_InitStruct.Alternate = GPIO_AF2_TIM4;
 8002604:	2302      	movs	r3, #2
 8002606:	627b      	str	r3, [r7, #36]	@ 0x24
    HAL_GPIO_Init(GPIOD, &GPIO_InitStruct);
 8002608:	f107 0314 	add.w	r3, r7, #20
 800260c:	4619      	mov	r1, r3
 800260e:	4805      	ldr	r0, [pc, #20]	@ (8002624 <HAL_TIM_Encoder_MspInit+0x84>)
 8002610:	f001 fa20 	bl	8003a54 <HAL_GPIO_Init>

    /* USER CODE END TIM4_MspInit 1 */

  }

}
 8002614:	bf00      	nop
 8002616:	3728      	adds	r7, #40	@ 0x28
 8002618:	46bd      	mov	sp, r7
 800261a:	bd80      	pop	{r7, pc}
 800261c:	40000800 	.word	0x40000800
 8002620:	40023800 	.word	0x40023800
 8002624:	40020c00 	.word	0x40020c00

08002628 <HAL_TIM_MspPostInit>:

void HAL_TIM_MspPostInit(TIM_HandleTypeDef* htim)
{
 8002628:	b580      	push	{r7, lr}
 800262a:	b088      	sub	sp, #32
 800262c:	af00      	add	r7, sp, #0
 800262e:	6078      	str	r0, [r7, #4]
  GPIO_InitTypeDef GPIO_InitStruct = {0};
 8002630:	f107 030c 	add.w	r3, r7, #12
 8002634:	2200      	movs	r2, #0
 8002636:	601a      	str	r2, [r3, #0]
 8002638:	605a      	str	r2, [r3, #4]
 800263a:	609a      	str	r2, [r3, #8]
 800263c:	60da      	str	r2, [r3, #12]
 800263e:	611a      	str	r2, [r3, #16]
  if(htim->Instance==TIM14)
 8002640:	687b      	ldr	r3, [r7, #4]
 8002642:	681b      	ldr	r3, [r3, #0]
 8002644:	4a11      	ldr	r2, [pc, #68]	@ (800268c <HAL_TIM_MspPostInit+0x64>)
 8002646:	4293      	cmp	r3, r2
 8002648:	d11c      	bne.n	8002684 <HAL_TIM_MspPostInit+0x5c>
  {
    /* USER CODE BEGIN TIM14_MspPostInit 0 */

    /* USER CODE END TIM14_MspPostInit 0 */

    __HAL_RCC_GPIOF_CLK_ENABLE();
 800264a:	4b11      	ldr	r3, [pc, #68]	@ (8002690 <HAL_TIM_MspPostInit+0x68>)
 800264c:	6b1b      	ldr	r3, [r3, #48]	@ 0x30
 800264e:	4a10      	ldr	r2, [pc, #64]	@ (8002690 <HAL_TIM_MspPostInit+0x68>)
 8002650:	f043 0320 	orr.w	r3, r3, #32
 8002654:	6313      	str	r3, [r2, #48]	@ 0x30
 8002656:	4b0e      	ldr	r3, [pc, #56]	@ (8002690 <HAL_TIM_MspPostInit+0x68>)
 8002658:	6b1b      	ldr	r3, [r3, #48]	@ 0x30
 800265a:	f003 0320 	and.w	r3, r3, #32
 800265e:	60bb      	str	r3, [r7, #8]
 8002660:	68bb      	ldr	r3, [r7, #8]
    /**TIM14 GPIO Configuration
    PF9     ------> TIM14_CH1
    */
    GPIO_InitStruct.Pin = S1_Pulse_Pin;
 8002662:	f44f 7300 	mov.w	r3, #512	@ 0x200
 8002666:	60fb      	str	r3, [r7, #12]
    GPIO_InitStruct.Mode = GPIO_MODE_AF_PP;
 8002668:	2302      	movs	r3, #2
 800266a:	613b      	str	r3, [r7, #16]
    GPIO_InitStruct.Pull = GPIO_NOPULL;
 800266c:	2300      	movs	r3, #0
 800266e:	617b      	str	r3, [r7, #20]
    GPIO_InitStruct.Speed = GPIO_SPEED_FREQ_LOW;
 8002670:	2300      	movs	r3, #0
 8002672:	61bb      	str	r3, [r7, #24]
    GPIO_InitStruct.Alternate = GPIO_AF9_TIM14;
 8002674:	2309      	movs	r3, #9
 8002676:	61fb      	str	r3, [r7, #28]
    HAL_GPIO_Init(S1_Pulse_GPIO_Port, &GPIO_InitStruct);
 8002678:	f107 030c 	add.w	r3, r7, #12
 800267c:	4619      	mov	r1, r3
 800267e:	4805      	ldr	r0, [pc, #20]	@ (8002694 <HAL_TIM_MspPostInit+0x6c>)
 8002680:	f001 f9e8 	bl	8003a54 <HAL_GPIO_Init>
    /* USER CODE BEGIN TIM14_MspPostInit 1 */

    /* USER CODE END TIM14_MspPostInit 1 */
  }

}
 8002684:	bf00      	nop
 8002686:	3720      	adds	r7, #32
 8002688:	46bd      	mov	sp, r7
 800268a:	bd80      	pop	{r7, pc}
 800268c:	40002000 	.word	0x40002000
 8002690:	40023800 	.word	0x40023800
 8002694:	40021400 	.word	0x40021400

08002698 <HAL_UART_MspInit>:
  * This function configures the hardware resources used in this example
  * @param huart: UART handle pointer
  * @retval None
  */
void HAL_UART_MspInit(UART_HandleTypeDef* huart)
{
 8002698:	b580      	push	{r7, lr}
 800269a:	b0aa      	sub	sp, #168	@ 0xa8
 800269c:	af00      	add	r7, sp, #0
 800269e:	6078      	str	r0, [r7, #4]
  GPIO_InitTypeDef GPIO_InitStruct = {0};
 80026a0:	f107 0394 	add.w	r3, r7, #148	@ 0x94
 80026a4:	2200      	movs	r2, #0
 80026a6:	601a      	str	r2, [r3, #0]
 80026a8:	605a      	str	r2, [r3, #4]
 80026aa:	609a      	str	r2, [r3, #8]
 80026ac:	60da      	str	r2, [r3, #12]
 80026ae:	611a      	str	r2, [r3, #16]
  RCC_PeriphCLKInitTypeDef PeriphClkInitStruct = {0};
 80026b0:	f107 0310 	add.w	r3, r7, #16
 80026b4:	2284      	movs	r2, #132	@ 0x84
 80026b6:	2100      	movs	r1, #0
 80026b8:	4618      	mov	r0, r3
 80026ba:	f006 fc1d 	bl	8008ef8 <memset>
  if(huart->Instance==USART3)
 80026be:	687b      	ldr	r3, [r7, #4]
 80026c0:	681b      	ldr	r3, [r3, #0]
 80026c2:	4a22      	ldr	r2, [pc, #136]	@ (800274c <HAL_UART_MspInit+0xb4>)
 80026c4:	4293      	cmp	r3, r2
 80026c6:	d13c      	bne.n	8002742 <HAL_UART_MspInit+0xaa>

    /* USER CODE END USART3_MspInit 0 */

  /** Initializes the peripherals clock
  */
    PeriphClkInitStruct.PeriphClockSelection = RCC_PERIPHCLK_USART3;
 80026c8:	f44f 7380 	mov.w	r3, #256	@ 0x100
 80026cc:	613b      	str	r3, [r7, #16]
    PeriphClkInitStruct.Usart3ClockSelection = RCC_USART3CLKSOURCE_PCLK1;
 80026ce:	2300      	movs	r3, #0
 80026d0:	65fb      	str	r3, [r7, #92]	@ 0x5c
    if (HAL_RCCEx_PeriphCLKConfig(&PeriphClkInitStruct) != HAL_OK)
 80026d2:	f107 0310 	add.w	r3, r7, #16
 80026d6:	4618      	mov	r0, r3
 80026d8:	f002 fff2 	bl	80056c0 <HAL_RCCEx_PeriphCLKConfig>
 80026dc:	4603      	mov	r3, r0
 80026de:	2b00      	cmp	r3, #0
 80026e0:	d001      	beq.n	80026e6 <HAL_UART_MspInit+0x4e>
    {
      Error_Handler();
 80026e2:	f7ff fc3f 	bl	8001f64 <Error_Handler>
    }

    /* Peripheral clock enable */
    __HAL_RCC_USART3_CLK_ENABLE();
 80026e6:	4b1a      	ldr	r3, [pc, #104]	@ (8002750 <HAL_UART_MspInit+0xb8>)
 80026e8:	6c1b      	ldr	r3, [r3, #64]	@ 0x40
 80026ea:	4a19      	ldr	r2, [pc, #100]	@ (8002750 <HAL_UART_MspInit+0xb8>)
 80026ec:	f443 2380 	orr.w	r3, r3, #262144	@ 0x40000
 80026f0:	6413      	str	r3, [r2, #64]	@ 0x40
 80026f2:	4b17      	ldr	r3, [pc, #92]	@ (8002750 <HAL_UART_MspInit+0xb8>)
 80026f4:	6c1b      	ldr	r3, [r3, #64]	@ 0x40
 80026f6:	f403 2380 	and.w	r3, r3, #262144	@ 0x40000
 80026fa:	60fb      	str	r3, [r7, #12]
 80026fc:	68fb      	ldr	r3, [r7, #12]

    __HAL_RCC_GPIOD_CLK_ENABLE();
 80026fe:	4b14      	ldr	r3, [pc, #80]	@ (8002750 <HAL_UART_MspInit+0xb8>)
 8002700:	6b1b      	ldr	r3, [r3, #48]	@ 0x30
 8002702:	4a13      	ldr	r2, [pc, #76]	@ (8002750 <HAL_UART_MspInit+0xb8>)
 8002704:	f043 0308 	orr.w	r3, r3, #8
 8002708:	6313      	str	r3, [r2, #48]	@ 0x30
 800270a:	4b11      	ldr	r3, [pc, #68]	@ (8002750 <HAL_UART_MspInit+0xb8>)
 800270c:	6b1b      	ldr	r3, [r3, #48]	@ 0x30
 800270e:	f003 0308 	and.w	r3, r3, #8
 8002712:	60bb      	str	r3, [r7, #8]
 8002714:	68bb      	ldr	r3, [r7, #8]
    /**USART3 GPIO Configuration
    PD8     ------> USART3_TX
    PD9     ------> USART3_RX
    */
    GPIO_InitStruct.Pin = STLK_RX_Pin|STLK_TX_Pin;
 8002716:	f44f 7340 	mov.w	r3, #768	@ 0x300
 800271a:	f8c7 3094 	str.w	r3, [r7, #148]	@ 0x94
    GPIO_InitStruct.Mode = GPIO_MODE_AF_PP;
 800271e:	2302      	movs	r3, #2
 8002720:	f8c7 3098 	str.w	r3, [r7, #152]	@ 0x98
    GPIO_InitStruct.Pull = GPIO_PULLUP;
 8002724:	2301      	movs	r3, #1
 8002726:	f8c7 309c 	str.w	r3, [r7, #156]	@ 0x9c
    GPIO_InitStruct.Speed = GPIO_SPEED_FREQ_VERY_HIGH;
 800272a:	2303      	movs	r3, #3
 800272c:	f8c7 30a0 	str.w	r3, [r7, #160]	@ 0xa0
    GPIO_InitStruct.Alternate = GPIO_AF7_USART3;
 8002730:	2307      	movs	r3, #7
 8002732:	f8c7 30a4 	str.w	r3, [r7, #164]	@ 0xa4
    HAL_GPIO_Init(GPIOD, &GPIO_InitStruct);
 8002736:	f107 0394 	add.w	r3, r7, #148	@ 0x94
 800273a:	4619      	mov	r1, r3
 800273c:	4805      	ldr	r0, [pc, #20]	@ (8002754 <HAL_UART_MspInit+0xbc>)
 800273e:	f001 f989 	bl	8003a54 <HAL_GPIO_Init>

    /* USER CODE END USART3_MspInit 1 */

  }

}
 8002742:	bf00      	nop
 8002744:	37a8      	adds	r7, #168	@ 0xa8
 8002746:	46bd      	mov	sp, r7
 8002748:	bd80      	pop	{r7, pc}
 800274a:	bf00      	nop
 800274c:	40004800 	.word	0x40004800
 8002750:	40023800 	.word	0x40023800
 8002754:	40020c00 	.word	0x40020c00

08002758 <HAL_PCD_MspInit>:
  * This function configures the hardware resources used in this example
  * @param hpcd: PCD handle pointer
  * @retval None
  */
void HAL_PCD_MspInit(PCD_HandleTypeDef* hpcd)
{
 8002758:	b580      	push	{r7, lr}
 800275a:	b0ac      	sub	sp, #176	@ 0xb0
 800275c:	af00      	add	r7, sp, #0
 800275e:	6078      	str	r0, [r7, #4]
  GPIO_InitTypeDef GPIO_InitStruct = {0};
 8002760:	f107 039c 	add.w	r3, r7, #156	@ 0x9c
 8002764:	2200      	movs	r2, #0
 8002766:	601a      	str	r2, [r3, #0]
 8002768:	605a      	str	r2, [r3, #4]
 800276a:	609a      	str	r2, [r3, #8]
 800276c:	60da      	str	r2, [r3, #12]
 800276e:	611a      	str	r2, [r3, #16]
  RCC_PeriphCLKInitTypeDef PeriphClkInitStruct = {0};
 8002770:	f107 0318 	add.w	r3, r7, #24
 8002774:	2284      	movs	r2, #132	@ 0x84
 8002776:	2100      	movs	r1, #0
 8002778:	4618      	mov	r0, r3
 800277a:	f006 fbbd 	bl	8008ef8 <memset>
  if(hpcd->Instance==USB_OTG_FS)
 800277e:	687b      	ldr	r3, [r7, #4]
 8002780:	681b      	ldr	r3, [r3, #0]
 8002782:	f1b3 4fa0 	cmp.w	r3, #1342177280	@ 0x50000000
 8002786:	d159      	bne.n	800283c <HAL_PCD_MspInit+0xe4>

    /* USER CODE END USB_OTG_FS_MspInit 0 */

  /** Initializes the peripherals clock
  */
    PeriphClkInitStruct.PeriphClockSelection = RCC_PERIPHCLK_CLK48;
 8002788:	f44f 1300 	mov.w	r3, #2097152	@ 0x200000
 800278c:	61bb      	str	r3, [r7, #24]
    PeriphClkInitStruct.Clk48ClockSelection = RCC_CLK48SOURCE_PLL;
 800278e:	2300      	movs	r3, #0
 8002790:	f8c7 3094 	str.w	r3, [r7, #148]	@ 0x94
    if (HAL_RCCEx_PeriphCLKConfig(&PeriphClkInitStruct) != HAL_OK)
 8002794:	f107 0318 	add.w	r3, r7, #24
 8002798:	4618      	mov	r0, r3
 800279a:	f002 ff91 	bl	80056c0 <HAL_RCCEx_PeriphCLKConfig>
 800279e:	4603      	mov	r3, r0
 80027a0:	2b00      	cmp	r3, #0
 80027a2:	d001      	beq.n	80027a8 <HAL_PCD_MspInit+0x50>
    {
      Error_Handler();
 80027a4:	f7ff fbde 	bl	8001f64 <Error_Handler>
    }

    __HAL_RCC_GPIOA_CLK_ENABLE();
 80027a8:	4b26      	ldr	r3, [pc, #152]	@ (8002844 <HAL_PCD_MspInit+0xec>)
 80027aa:	6b1b      	ldr	r3, [r3, #48]	@ 0x30
 80027ac:	4a25      	ldr	r2, [pc, #148]	@ (8002844 <HAL_PCD_MspInit+0xec>)
 80027ae:	f043 0301 	orr.w	r3, r3, #1
 80027b2:	6313      	str	r3, [r2, #48]	@ 0x30
 80027b4:	4b23      	ldr	r3, [pc, #140]	@ (8002844 <HAL_PCD_MspInit+0xec>)
 80027b6:	6b1b      	ldr	r3, [r3, #48]	@ 0x30
 80027b8:	f003 0301 	and.w	r3, r3, #1
 80027bc:	617b      	str	r3, [r7, #20]
 80027be:	697b      	ldr	r3, [r7, #20]
    PA9     ------> USB_OTG_FS_VBUS
    PA10     ------> USB_OTG_FS_ID
    PA11     ------> USB_OTG_FS_DM
    PA12     ------> USB_OTG_FS_DP
    */
    GPIO_InitStruct.Pin = USB_SOF_Pin|USB_ID_Pin|USB_DM_Pin|USB_DP_Pin;
 80027c0:	f44f 53e8 	mov.w	r3, #7424	@ 0x1d00
 80027c4:	f8c7 309c 	str.w	r3, [r7, #156]	@ 0x9c
    GPIO_InitStruct.Mode = GPIO_MODE_AF_PP;
 80027c8:	2302      	movs	r3, #2
 80027ca:	f8c7 30a0 	str.w	r3, [r7, #160]	@ 0xa0
    GPIO_InitStruct.Pull = GPIO_NOPULL;
 80027ce:	2300      	movs	r3, #0
 80027d0:	f8c7 30a4 	str.w	r3, [r7, #164]	@ 0xa4
    GPIO_InitStruct.Speed = GPIO_SPEED_FREQ_VERY_HIGH;
 80027d4:	2303      	movs	r3, #3
 80027d6:	f8c7 30a8 	str.w	r3, [r7, #168]	@ 0xa8
    GPIO_InitStruct.Alternate = GPIO_AF10_OTG_FS;
 80027da:	230a      	movs	r3, #10
 80027dc:	f8c7 30ac 	str.w	r3, [r7, #172]	@ 0xac
    HAL_GPIO_Init(GPIOA, &GPIO_InitStruct);
 80027e0:	f107 039c 	add.w	r3, r7, #156	@ 0x9c
 80027e4:	4619      	mov	r1, r3
 80027e6:	4818      	ldr	r0, [pc, #96]	@ (8002848 <HAL_PCD_MspInit+0xf0>)
 80027e8:	f001 f934 	bl	8003a54 <HAL_GPIO_Init>

    GPIO_InitStruct.Pin = USB_VBUS_Pin;
 80027ec:	f44f 7300 	mov.w	r3, #512	@ 0x200
 80027f0:	f8c7 309c 	str.w	r3, [r7, #156]	@ 0x9c
    GPIO_InitStruct.Mode = GPIO_MODE_INPUT;
 80027f4:	2300      	movs	r3, #0
 80027f6:	f8c7 30a0 	str.w	r3, [r7, #160]	@ 0xa0
    GPIO_InitStruct.Pull = GPIO_NOPULL;
 80027fa:	2300      	movs	r3, #0
 80027fc:	f8c7 30a4 	str.w	r3, [r7, #164]	@ 0xa4
    HAL_GPIO_Init(USB_VBUS_GPIO_Port, &GPIO_InitStruct);
 8002800:	f107 039c 	add.w	r3, r7, #156	@ 0x9c
 8002804:	4619      	mov	r1, r3
 8002806:	4810      	ldr	r0, [pc, #64]	@ (8002848 <HAL_PCD_MspInit+0xf0>)
 8002808:	f001 f924 	bl	8003a54 <HAL_GPIO_Init>

    /* Peripheral clock enable */
    __HAL_RCC_USB_OTG_FS_CLK_ENABLE();
 800280c:	4b0d      	ldr	r3, [pc, #52]	@ (8002844 <HAL_PCD_MspInit+0xec>)
 800280e:	6b5b      	ldr	r3, [r3, #52]	@ 0x34
 8002810:	4a0c      	ldr	r2, [pc, #48]	@ (8002844 <HAL_PCD_MspInit+0xec>)
 8002812:	f043 0380 	orr.w	r3, r3, #128	@ 0x80
 8002816:	6353      	str	r3, [r2, #52]	@ 0x34
 8002818:	4b0a      	ldr	r3, [pc, #40]	@ (8002844 <HAL_PCD_MspInit+0xec>)
 800281a:	6b5b      	ldr	r3, [r3, #52]	@ 0x34
 800281c:	f003 0380 	and.w	r3, r3, #128	@ 0x80
 8002820:	613b      	str	r3, [r7, #16]
 8002822:	693b      	ldr	r3, [r7, #16]
 8002824:	4b07      	ldr	r3, [pc, #28]	@ (8002844 <HAL_PCD_MspInit+0xec>)
 8002826:	6c5b      	ldr	r3, [r3, #68]	@ 0x44
 8002828:	4a06      	ldr	r2, [pc, #24]	@ (8002844 <HAL_PCD_MspInit+0xec>)
 800282a:	f443 4380 	orr.w	r3, r3, #16384	@ 0x4000
 800282e:	6453      	str	r3, [r2, #68]	@ 0x44
 8002830:	4b04      	ldr	r3, [pc, #16]	@ (8002844 <HAL_PCD_MspInit+0xec>)
 8002832:	6c5b      	ldr	r3, [r3, #68]	@ 0x44
 8002834:	f403 4380 	and.w	r3, r3, #16384	@ 0x4000
 8002838:	60fb      	str	r3, [r7, #12]
 800283a:	68fb      	ldr	r3, [r7, #12]

    /* USER CODE END USB_OTG_FS_MspInit 1 */

  }

}
 800283c:	bf00      	nop
 800283e:	37b0      	adds	r7, #176	@ 0xb0
 8002840:	46bd      	mov	sp, r7
 8002842:	bd80      	pop	{r7, pc}
 8002844:	40023800 	.word	0x40023800
 8002848:	40020000 	.word	0x40020000

0800284c <NMI_Handler>:
/******************************************************************************/
/**
  * @brief This function handles Non maskable interrupt.
  */
void NMI_Handler(void)
{
 800284c:	b480      	push	{r7}
 800284e:	af00      	add	r7, sp, #0
  /* USER CODE BEGIN NonMaskableInt_IRQn 0 */

  /* USER CODE END NonMaskableInt_IRQn 0 */
  /* USER CODE BEGIN NonMaskableInt_IRQn 1 */
   while (1)
 8002850:	bf00      	nop
 8002852:	e7fd      	b.n	8002850 <NMI_Handler+0x4>

08002854 <HardFault_Handler>:

/**
  * @brief This function handles Hard fault interrupt.
  */
void HardFault_Handler(void)
{
 8002854:	b480      	push	{r7}
 8002856:	af00      	add	r7, sp, #0
  /* USER CODE BEGIN HardFault_IRQn 0 */

  /* USER CODE END HardFault_IRQn 0 */
  while (1)
 8002858:	bf00      	nop
 800285a:	e7fd      	b.n	8002858 <HardFault_Handler+0x4>

0800285c <MemManage_Handler>:

/**
  * @brief This function handles Memory management fault.
  */
void MemManage_Handler(void)
{
 800285c:	b480      	push	{r7}
 800285e:	af00      	add	r7, sp, #0
  /* USER CODE BEGIN MemoryManagement_IRQn 0 */

  /* USER CODE END MemoryManagement_IRQn 0 */
  while (1)
 8002860:	bf00      	nop
 8002862:	e7fd      	b.n	8002860 <MemManage_Handler+0x4>

08002864 <BusFault_Handler>:

/**
  * @brief This function handles Pre-fetch fault, memory access fault.
  */
void BusFault_Handler(void)
{
 8002864:	b480      	push	{r7}
 8002866:	af00      	add	r7, sp, #0
  /* USER CODE BEGIN BusFault_IRQn 0 */

  /* USER CODE END BusFault_IRQn 0 */
  while (1)
 8002868:	bf00      	nop
 800286a:	e7fd      	b.n	8002868 <BusFault_Handler+0x4>

0800286c <UsageFault_Handler>:

/**
  * @brief This function handles Undefined instruction or illegal state.
  */
void UsageFault_Handler(void)
{
 800286c:	b480      	push	{r7}
 800286e:	af00      	add	r7, sp, #0
  /* USER CODE BEGIN UsageFault_IRQn 0 */

  /* USER CODE END UsageFault_IRQn 0 */
  while (1)
 8002870:	bf00      	nop
 8002872:	e7fd      	b.n	8002870 <UsageFault_Handler+0x4>

08002874 <SVC_Handler>:

/**
  * @brief This function handles System service call via SWI instruction.
  */
void SVC_Handler(void)
{
 8002874:	b480      	push	{r7}
 8002876:	af00      	add	r7, sp, #0

  /* USER CODE END SVCall_IRQn 0 */
  /* USER CODE BEGIN SVCall_IRQn 1 */

  /* USER CODE END SVCall_IRQn 1 */
}
 8002878:	bf00      	nop
 800287a:	46bd      	mov	sp, r7
 800287c:	f85d 7b04 	ldr.w	r7, [sp], #4
 8002880:	4770      	bx	lr

08002882 <DebugMon_Handler>:

/**
  * @brief This function handles Debug monitor.
  */
void DebugMon_Handler(void)
{
 8002882:	b480      	push	{r7}
 8002884:	af00      	add	r7, sp, #0

  /* USER CODE END DebugMonitor_IRQn 0 */
  /* USER CODE BEGIN DebugMonitor_IRQn 1 */

  /* USER CODE END DebugMonitor_IRQn 1 */
}
 8002886:	bf00      	nop
 8002888:	46bd      	mov	sp, r7
 800288a:	f85d 7b04 	ldr.w	r7, [sp], #4
 800288e:	4770      	bx	lr

08002890 <PendSV_Handler>:

/**
  * @brief This function handles Pendable request for system service.
  */
void PendSV_Handler(void)
{
 8002890:	b480      	push	{r7}
 8002892:	af00      	add	r7, sp, #0

  /* USER CODE END PendSV_IRQn 0 */
  /* USER CODE BEGIN PendSV_IRQn 1 */

  /* USER CODE END PendSV_IRQn 1 */
}
 8002894:	bf00      	nop
 8002896:	46bd      	mov	sp, r7
 8002898:	f85d 7b04 	ldr.w	r7, [sp], #4
 800289c:	4770      	bx	lr

0800289e <SysTick_Handler>:

/**
  * @brief This function handles System tick timer.
  */
void SysTick_Handler(void)
{
 800289e:	b580      	push	{r7, lr}
 80028a0:	af00      	add	r7, sp, #0
  /* USER CODE BEGIN SysTick_IRQn 0 */

  /* USER CODE END SysTick_IRQn 0 */
  HAL_IncTick();
 80028a2:	f000 fc33 	bl	800310c <HAL_IncTick>
  /* USER CODE BEGIN SysTick_IRQn 1 */

  /* USER CODE END SysTick_IRQn 1 */
}
 80028a6:	bf00      	nop
 80028a8:	bd80      	pop	{r7, pc}

080028aa <EXTI0_IRQHandler>:

/**
  * @brief This function handles EXTI line0 interrupt.
  */
void EXTI0_IRQHandler(void)
{
 80028aa:	b580      	push	{r7, lr}
 80028ac:	af00      	add	r7, sp, #0
  /* USER CODE BEGIN EXTI0_IRQn 0 */

  /* USER CODE END EXTI0_IRQn 0 */
  HAL_GPIO_EXTI_IRQHandler(S1_Ready_Pin);
 80028ae:	2001      	movs	r0, #1
 80028b0:	f001 fac8 	bl	8003e44 <HAL_GPIO_EXTI_IRQHandler>
  /* USER CODE BEGIN EXTI0_IRQn 1 */

  /* USER CODE END EXTI0_IRQn 1 */
}
 80028b4:	bf00      	nop
 80028b6:	bd80      	pop	{r7, pc}

080028b8 <EXTI1_IRQHandler>:

/**
  * @brief This function handles EXTI line1 interrupt.
  */
void EXTI1_IRQHandler(void)
{
 80028b8:	b580      	push	{r7, lr}
 80028ba:	af00      	add	r7, sp, #0
  /* USER CODE BEGIN EXTI1_IRQn 0 */

  /* USER CODE END EXTI1_IRQn 0 */
  HAL_GPIO_EXTI_IRQHandler(S1_Treach_Pin);
 80028bc:	2002      	movs	r0, #2
 80028be:	f001 fac1 	bl	8003e44 <HAL_GPIO_EXTI_IRQHandler>
  /* USER CODE BEGIN EXTI1_IRQn 1 */

  /* USER CODE END EXTI1_IRQn 1 */
}
 80028c2:	bf00      	nop
 80028c4:	bd80      	pop	{r7, pc}

080028c6 <EXTI2_IRQHandler>:

/**
  * @brief This function handles EXTI line2 interrupt.
  */
void EXTI2_IRQHandler(void)
{
 80028c6:	b580      	push	{r7, lr}
 80028c8:	af00      	add	r7, sp, #0
  /* USER CODE BEGIN EXTI2_IRQn 0 */

  /* USER CODE END EXTI2_IRQn 0 */
  HAL_GPIO_EXTI_IRQHandler(GPIO_PIN_2);
 80028ca:	2004      	movs	r0, #4
 80028cc:	f001 faba 	bl	8003e44 <HAL_GPIO_EXTI_IRQHandler>
  /* USER CODE BEGIN EXTI2_IRQn 1 */

  /* USER CODE END EXTI2_IRQn 1 */
}
 80028d0:	bf00      	nop
 80028d2:	bd80      	pop	{r7, pc}

080028d4 <EXTI3_IRQHandler>:

/**
  * @brief This function handles EXTI line3 interrupt.
  */
void EXTI3_IRQHandler(void)
{
 80028d4:	b580      	push	{r7, lr}
 80028d6:	af00      	add	r7, sp, #0
  /* USER CODE BEGIN EXTI3_IRQn 0 */

  /* USER CODE END EXTI3_IRQn 0 */
  HAL_GPIO_EXTI_IRQHandler(Button_Pin);
 80028d8:	2008      	movs	r0, #8
 80028da:	f001 fab3 	bl	8003e44 <HAL_GPIO_EXTI_IRQHandler>
  /* USER CODE BEGIN EXTI3_IRQn 1 */

  /* USER CODE END EXTI3_IRQn 1 */
}
 80028de:	bf00      	nop
 80028e0:	bd80      	pop	{r7, pc}
	...

080028e4 <TIM2_IRQHandler>:

/**
  * @brief This function handles TIM2 global interrupt.
  */
void TIM2_IRQHandler(void)
{
 80028e4:	b580      	push	{r7, lr}
 80028e6:	af00      	add	r7, sp, #0
  /* USER CODE BEGIN TIM2_IRQn 0 */
	HAL_GPIO_TogglePin(GPIOB,LD3_Pin);
 80028e8:	f44f 4180 	mov.w	r1, #16384	@ 0x4000
 80028ec:	4803      	ldr	r0, [pc, #12]	@ (80028fc <TIM2_IRQHandler+0x18>)
 80028ee:	f001 fa8e 	bl	8003e0e <HAL_GPIO_TogglePin>
  /* USER CODE END TIM2_IRQn 0 */
  HAL_TIM_IRQHandler(&htim2);
 80028f2:	4803      	ldr	r0, [pc, #12]	@ (8002900 <TIM2_IRQHandler+0x1c>)
 80028f4:	f003 fe3a 	bl	800656c <HAL_TIM_IRQHandler>
  /* USER CODE BEGIN TIM2_IRQn 1 */

  /* USER CODE END TIM2_IRQn 1 */
}
 80028f8:	bf00      	nop
 80028fa:	bd80      	pop	{r7, pc}
 80028fc:	40020400 	.word	0x40020400
 8002900:	20000634 	.word	0x20000634

08002904 <EXTI15_10_IRQHandler>:

/**
  * @brief This function handles EXTI line[15:10] interrupts.
  */
void EXTI15_10_IRQHandler(void)
{
 8002904:	b580      	push	{r7, lr}
 8002906:	af00      	add	r7, sp, #0
  /* USER CODE BEGIN EXTI15_10_IRQn 0 */

  /* USER CODE END EXTI15_10_IRQn 0 */
  HAL_GPIO_EXTI_IRQHandler(USER_Btn_Pin);
 8002908:	f44f 5000 	mov.w	r0, #8192	@ 0x2000
 800290c:	f001 fa9a 	bl	8003e44 <HAL_GPIO_EXTI_IRQHandler>
  /* USER CODE BEGIN EXTI15_10_IRQn 1 */

  /* USER CODE END EXTI15_10_IRQn 1 */
}
 8002910:	bf00      	nop
 8002912:	bd80      	pop	{r7, pc}

08002914 <_getpid>:
void initialise_monitor_handles()
{
}

int _getpid(void)
{
 8002914:	b480      	push	{r7}
 8002916:	af00      	add	r7, sp, #0
  return 1;
 8002918:	2301      	movs	r3, #1
}
 800291a:	4618      	mov	r0, r3
 800291c:	46bd      	mov	sp, r7
 800291e:	f85d 7b04 	ldr.w	r7, [sp], #4
 8002922:	4770      	bx	lr

08002924 <_kill>:

int _kill(int pid, int sig)
{
 8002924:	b580      	push	{r7, lr}
 8002926:	b082      	sub	sp, #8
 8002928:	af00      	add	r7, sp, #0
 800292a:	6078      	str	r0, [r7, #4]
 800292c:	6039      	str	r1, [r7, #0]
  (void)pid;
  (void)sig;
  errno = EINVAL;
 800292e:	f006 fb45 	bl	8008fbc <__errno>
 8002932:	4603      	mov	r3, r0
 8002934:	2216      	movs	r2, #22
 8002936:	601a      	str	r2, [r3, #0]
  return -1;
 8002938:	f04f 33ff 	mov.w	r3, #4294967295
}
 800293c:	4618      	mov	r0, r3
 800293e:	3708      	adds	r7, #8
 8002940:	46bd      	mov	sp, r7
 8002942:	bd80      	pop	{r7, pc}

08002944 <_exit>:

void _exit (int status)
{
 8002944:	b580      	push	{r7, lr}
 8002946:	b082      	sub	sp, #8
 8002948:	af00      	add	r7, sp, #0
 800294a:	6078      	str	r0, [r7, #4]
  _kill(status, -1);
 800294c:	f04f 31ff 	mov.w	r1, #4294967295
 8002950:	6878      	ldr	r0, [r7, #4]
 8002952:	f7ff ffe7 	bl	8002924 <_kill>
  while (1) {}    /* Make sure we hang here */
 8002956:	bf00      	nop
 8002958:	e7fd      	b.n	8002956 <_exit+0x12>

0800295a <_read>:
}

__attribute__((weak)) int _read(int file, char *ptr, int len)
{
 800295a:	b580      	push	{r7, lr}
 800295c:	b086      	sub	sp, #24
 800295e:	af00      	add	r7, sp, #0
 8002960:	60f8      	str	r0, [r7, #12]
 8002962:	60b9      	str	r1, [r7, #8]
 8002964:	607a      	str	r2, [r7, #4]
  (void)file;
  int DataIdx;

  for (DataIdx = 0; DataIdx < len; DataIdx++)
 8002966:	2300      	movs	r3, #0
 8002968:	617b      	str	r3, [r7, #20]
 800296a:	e00a      	b.n	8002982 <_read+0x28>
  {
    *ptr++ = __io_getchar();
 800296c:	f3af 8000 	nop.w
 8002970:	4601      	mov	r1, r0
 8002972:	68bb      	ldr	r3, [r7, #8]
 8002974:	1c5a      	adds	r2, r3, #1
 8002976:	60ba      	str	r2, [r7, #8]
 8002978:	b2ca      	uxtb	r2, r1
 800297a:	701a      	strb	r2, [r3, #0]
  for (DataIdx = 0; DataIdx < len; DataIdx++)
 800297c:	697b      	ldr	r3, [r7, #20]
 800297e:	3301      	adds	r3, #1
 8002980:	617b      	str	r3, [r7, #20]
 8002982:	697a      	ldr	r2, [r7, #20]
 8002984:	687b      	ldr	r3, [r7, #4]
 8002986:	429a      	cmp	r2, r3
 8002988:	dbf0      	blt.n	800296c <_read+0x12>
  }

  return len;
 800298a:	687b      	ldr	r3, [r7, #4]
}
 800298c:	4618      	mov	r0, r3
 800298e:	3718      	adds	r7, #24
 8002990:	46bd      	mov	sp, r7
 8002992:	bd80      	pop	{r7, pc}

08002994 <_write>:

__attribute__((weak)) int _write(int file, char *ptr, int len)
{
 8002994:	b580      	push	{r7, lr}
 8002996:	b086      	sub	sp, #24
 8002998:	af00      	add	r7, sp, #0
 800299a:	60f8      	str	r0, [r7, #12]
 800299c:	60b9      	str	r1, [r7, #8]
 800299e:	607a      	str	r2, [r7, #4]
  (void)file;
  int DataIdx;

  for (DataIdx = 0; DataIdx < len; DataIdx++)
 80029a0:	2300      	movs	r3, #0
 80029a2:	617b      	str	r3, [r7, #20]
 80029a4:	e009      	b.n	80029ba <_write+0x26>
  {
    __io_putchar(*ptr++);
 80029a6:	68bb      	ldr	r3, [r7, #8]
 80029a8:	1c5a      	adds	r2, r3, #1
 80029aa:	60ba      	str	r2, [r7, #8]
 80029ac:	781b      	ldrb	r3, [r3, #0]
 80029ae:	4618      	mov	r0, r3
 80029b0:	f3af 8000 	nop.w
  for (DataIdx = 0; DataIdx < len; DataIdx++)
 80029b4:	697b      	ldr	r3, [r7, #20]
 80029b6:	3301      	adds	r3, #1
 80029b8:	617b      	str	r3, [r7, #20]
 80029ba:	697a      	ldr	r2, [r7, #20]
 80029bc:	687b      	ldr	r3, [r7, #4]
 80029be:	429a      	cmp	r2, r3
 80029c0:	dbf1      	blt.n	80029a6 <_write+0x12>
  }
  return len;
 80029c2:	687b      	ldr	r3, [r7, #4]
}
 80029c4:	4618      	mov	r0, r3
 80029c6:	3718      	adds	r7, #24
 80029c8:	46bd      	mov	sp, r7
 80029ca:	bd80      	pop	{r7, pc}

080029cc <_close>:

int _close(int file)
{
 80029cc:	b480      	push	{r7}
 80029ce:	b083      	sub	sp, #12
 80029d0:	af00      	add	r7, sp, #0
 80029d2:	6078      	str	r0, [r7, #4]
  (void)file;
  return -1;
 80029d4:	f04f 33ff 	mov.w	r3, #4294967295
}
 80029d8:	4618      	mov	r0, r3
 80029da:	370c      	adds	r7, #12
 80029dc:	46bd      	mov	sp, r7
 80029de:	f85d 7b04 	ldr.w	r7, [sp], #4
 80029e2:	4770      	bx	lr

080029e4 <_fstat>:


int _fstat(int file, struct stat *st)
{
 80029e4:	b480      	push	{r7}
 80029e6:	b083      	sub	sp, #12
 80029e8:	af00      	add	r7, sp, #0
 80029ea:	6078      	str	r0, [r7, #4]
 80029ec:	6039      	str	r1, [r7, #0]
  (void)file;
  st->st_mode = S_IFCHR;
 80029ee:	683b      	ldr	r3, [r7, #0]
 80029f0:	f44f 5200 	mov.w	r2, #8192	@ 0x2000
 80029f4:	605a      	str	r2, [r3, #4]
  return 0;
 80029f6:	2300      	movs	r3, #0
}
 80029f8:	4618      	mov	r0, r3
 80029fa:	370c      	adds	r7, #12
 80029fc:	46bd      	mov	sp, r7
 80029fe:	f85d 7b04 	ldr.w	r7, [sp], #4
 8002a02:	4770      	bx	lr

08002a04 <_isatty>:

int _isatty(int file)
{
 8002a04:	b480      	push	{r7}
 8002a06:	b083      	sub	sp, #12
 8002a08:	af00      	add	r7, sp, #0
 8002a0a:	6078      	str	r0, [r7, #4]
  (void)file;
  return 1;
 8002a0c:	2301      	movs	r3, #1
}
 8002a0e:	4618      	mov	r0, r3
 8002a10:	370c      	adds	r7, #12
 8002a12:	46bd      	mov	sp, r7
 8002a14:	f85d 7b04 	ldr.w	r7, [sp], #4
 8002a18:	4770      	bx	lr

08002a1a <_lseek>:

int _lseek(int file, int ptr, int dir)
{
 8002a1a:	b480      	push	{r7}
 8002a1c:	b085      	sub	sp, #20
 8002a1e:	af00      	add	r7, sp, #0
 8002a20:	60f8      	str	r0, [r7, #12]
 8002a22:	60b9      	str	r1, [r7, #8]
 8002a24:	607a      	str	r2, [r7, #4]
  (void)file;
  (void)ptr;
  (void)dir;
  return 0;
 8002a26:	2300      	movs	r3, #0
}
 8002a28:	4618      	mov	r0, r3
 8002a2a:	3714      	adds	r7, #20
 8002a2c:	46bd      	mov	sp, r7
 8002a2e:	f85d 7b04 	ldr.w	r7, [sp], #4
 8002a32:	4770      	bx	lr

08002a34 <_sbrk>:
 *
 * @param incr Memory size
 * @return Pointer to allocated memory
 */
void *_sbrk(ptrdiff_t incr)
{
 8002a34:	b580      	push	{r7, lr}
 8002a36:	b086      	sub	sp, #24
 8002a38:	af00      	add	r7, sp, #0
 8002a3a:	6078      	str	r0, [r7, #4]
  extern uint8_t _end; /* Symbol defined in the linker script */
  extern uint8_t _estack; /* Symbol defined in the linker script */
  extern uint32_t _Min_Stack_Size; /* Symbol defined in the linker script */
  const uint32_t stack_limit = (uint32_t)&_estack - (uint32_t)&_Min_Stack_Size;
 8002a3c:	4a14      	ldr	r2, [pc, #80]	@ (8002a90 <_sbrk+0x5c>)
 8002a3e:	4b15      	ldr	r3, [pc, #84]	@ (8002a94 <_sbrk+0x60>)
 8002a40:	1ad3      	subs	r3, r2, r3
 8002a42:	617b      	str	r3, [r7, #20]
  const uint8_t *max_heap = (uint8_t *)stack_limit;
 8002a44:	697b      	ldr	r3, [r7, #20]
 8002a46:	613b      	str	r3, [r7, #16]
  uint8_t *prev_heap_end;

  /* Initialize heap end at first call */
  if (NULL == __sbrk_heap_end)
 8002a48:	4b13      	ldr	r3, [pc, #76]	@ (8002a98 <_sbrk+0x64>)
 8002a4a:	681b      	ldr	r3, [r3, #0]
 8002a4c:	2b00      	cmp	r3, #0
 8002a4e:	d102      	bne.n	8002a56 <_sbrk+0x22>
  {
    __sbrk_heap_end = &_end;
 8002a50:	4b11      	ldr	r3, [pc, #68]	@ (8002a98 <_sbrk+0x64>)
 8002a52:	4a12      	ldr	r2, [pc, #72]	@ (8002a9c <_sbrk+0x68>)
 8002a54:	601a      	str	r2, [r3, #0]
  }

  /* Protect heap from growing into the reserved MSP stack */
  if (__sbrk_heap_end + incr > max_heap)
 8002a56:	4b10      	ldr	r3, [pc, #64]	@ (8002a98 <_sbrk+0x64>)
 8002a58:	681a      	ldr	r2, [r3, #0]
 8002a5a:	687b      	ldr	r3, [r7, #4]
 8002a5c:	4413      	add	r3, r2
 8002a5e:	693a      	ldr	r2, [r7, #16]
 8002a60:	429a      	cmp	r2, r3
 8002a62:	d207      	bcs.n	8002a74 <_sbrk+0x40>
  {
    errno = ENOMEM;
 8002a64:	f006 faaa 	bl	8008fbc <__errno>
 8002a68:	4603      	mov	r3, r0
 8002a6a:	220c      	movs	r2, #12
 8002a6c:	601a      	str	r2, [r3, #0]
    return (void *)-1;
 8002a6e:	f04f 33ff 	mov.w	r3, #4294967295
 8002a72:	e009      	b.n	8002a88 <_sbrk+0x54>
  }

  prev_heap_end = __sbrk_heap_end;
 8002a74:	4b08      	ldr	r3, [pc, #32]	@ (8002a98 <_sbrk+0x64>)
 8002a76:	681b      	ldr	r3, [r3, #0]
 8002a78:	60fb      	str	r3, [r7, #12]
  __sbrk_heap_end += incr;
 8002a7a:	4b07      	ldr	r3, [pc, #28]	@ (8002a98 <_sbrk+0x64>)
 8002a7c:	681a      	ldr	r2, [r3, #0]
 8002a7e:	687b      	ldr	r3, [r7, #4]
 8002a80:	4413      	add	r3, r2
 8002a82:	4a05      	ldr	r2, [pc, #20]	@ (8002a98 <_sbrk+0x64>)
 8002a84:	6013      	str	r3, [r2, #0]

  return (void *)prev_heap_end;
 8002a86:	68fb      	ldr	r3, [r7, #12]
}
 8002a88:	4618      	mov	r0, r3
 8002a8a:	3718      	adds	r7, #24
 8002a8c:	46bd      	mov	sp, r7
 8002a8e:	bd80      	pop	{r7, pc}
 8002a90:	20050000 	.word	0x20050000
 8002a94:	00000400 	.word	0x00000400
 8002a98:	20000d24 	.word	0x20000d24
 8002a9c:	20001288 	.word	0x20001288

08002aa0 <SystemInit>:
  *         SystemFrequency variable.
  * @param  None
  * @retval None
  */
void SystemInit(void)
{
 8002aa0:	b480      	push	{r7}
 8002aa2:	af00      	add	r7, sp, #0
  /* FPU settings ------------------------------------------------------------*/
#if (__FPU_PRESENT == 1) && (__FPU_USED == 1)
  SCB->CPACR |= ((3UL << 10*2)|(3UL << 11*2));  /* set CP10 and CP11 Full Access */
 8002aa4:	4b06      	ldr	r3, [pc, #24]	@ (8002ac0 <SystemInit+0x20>)
 8002aa6:	f8d3 3088 	ldr.w	r3, [r3, #136]	@ 0x88
 8002aaa:	4a05      	ldr	r2, [pc, #20]	@ (8002ac0 <SystemInit+0x20>)
 8002aac:	f443 0370 	orr.w	r3, r3, #15728640	@ 0xf00000
 8002ab0:	f8c2 3088 	str.w	r3, [r2, #136]	@ 0x88

  /* Configure the Vector Table location -------------------------------------*/
#if defined(USER_VECT_TAB_ADDRESS)
  SCB->VTOR = VECT_TAB_BASE_ADDRESS | VECT_TAB_OFFSET; /* Vector Table Relocation in Internal SRAM */
#endif /* USER_VECT_TAB_ADDRESS */
}
 8002ab4:	bf00      	nop
 8002ab6:	46bd      	mov	sp, r7
 8002ab8:	f85d 7b04 	ldr.w	r7, [sp], #4
 8002abc:	4770      	bx	lr
 8002abe:	bf00      	nop
 8002ac0:	e000ed00 	.word	0xe000ed00

08002ac4 <Reset_Handler>:
 8002ac4:	f8df d034 	ldr.w	sp, [pc, #52]	@ 8002afc <LoopFillZerobss+0xe>
 8002ac8:	f7ff ffea 	bl	8002aa0 <SystemInit>
 8002acc:	480c      	ldr	r0, [pc, #48]	@ (8002b00 <LoopFillZerobss+0x12>)
 8002ace:	490d      	ldr	r1, [pc, #52]	@ (8002b04 <LoopFillZerobss+0x16>)
 8002ad0:	4a0d      	ldr	r2, [pc, #52]	@ (8002b08 <LoopFillZerobss+0x1a>)
 8002ad2:	2300      	movs	r3, #0
 8002ad4:	e002      	b.n	8002adc <LoopCopyDataInit>

08002ad6 <CopyDataInit>:
 8002ad6:	58d4      	ldr	r4, [r2, r3]
 8002ad8:	50c4      	str	r4, [r0, r3]
 8002ada:	3304      	adds	r3, #4

08002adc <LoopCopyDataInit>:
 8002adc:	18c4      	adds	r4, r0, r3
 8002ade:	428c      	cmp	r4, r1
 8002ae0:	d3f9      	bcc.n	8002ad6 <CopyDataInit>
 8002ae2:	4a0a      	ldr	r2, [pc, #40]	@ (8002b0c <LoopFillZerobss+0x1e>)
 8002ae4:	4c0a      	ldr	r4, [pc, #40]	@ (8002b10 <LoopFillZerobss+0x22>)
 8002ae6:	2300      	movs	r3, #0
 8002ae8:	e001      	b.n	8002aee <LoopFillZerobss>

08002aea <FillZerobss>:
 8002aea:	6013      	str	r3, [r2, #0]
 8002aec:	3204      	adds	r2, #4

08002aee <LoopFillZerobss>:
 8002aee:	42a2      	cmp	r2, r4
 8002af0:	d3fb      	bcc.n	8002aea <FillZerobss>
 8002af2:	f006 fa69 	bl	8008fc8 <__libc_init_array>
 8002af6:	f7fe fe19 	bl	800172c <main>
 8002afa:	4770      	bx	lr
 8002afc:	20050000 	.word	0x20050000
 8002b00:	20000000 	.word	0x20000000
 8002b04:	20000328 	.word	0x20000328
 8002b08:	0800d9fc 	.word	0x0800d9fc
 8002b0c:	20000468 	.word	0x20000468
 8002b10:	20001284 	.word	0x20001284

08002b14 <ADC_IRQHandler>:
 8002b14:	e7fe      	b.n	8002b14 <ADC_IRQHandler>
	...

08002b18 <HAL_TIM_PeriodElapsedCallback>:
uint8_t row = 0;
uint8_t col = 0;
SSD1306_COLOR color = White;

// 60 Hz timer interrupt
void HAL_TIM_PeriodElapsedCallback(TIM_HandleTypeDef *htim) {		// Main screen generate frame
 8002b18:	b580      	push	{r7, lr}
 8002b1a:	b084      	sub	sp, #16
 8002b1c:	af02      	add	r7, sp, #8
 8002b1e:	6078      	str	r0, [r7, #4]
    if (htim->Instance == TIM2) {  // Check if it's TIM2
 8002b20:	687b      	ldr	r3, [r7, #4]
 8002b22:	681b      	ldr	r3, [r3, #0]
 8002b24:	f1b3 4f80 	cmp.w	r3, #1073741824	@ 0x40000000
 8002b28:	d115      	bne.n	8002b56 <HAL_TIM_PeriodElapsedCallback+0x3e>
    	frames += 1;
 8002b2a:	4b0d      	ldr	r3, [pc, #52]	@ (8002b60 <HAL_TIM_PeriodElapsedCallback+0x48>)
 8002b2c:	781b      	ldrb	r3, [r3, #0]
 8002b2e:	3301      	adds	r3, #1
 8002b30:	b2da      	uxtb	r2, r3
 8002b32:	4b0b      	ldr	r3, [pc, #44]	@ (8002b60 <HAL_TIM_PeriodElapsedCallback+0x48>)
 8002b34:	701a      	strb	r2, [r3, #0]
    	ssd1306_DrawBitmap(0,0,gunship,8,8,Black);
 8002b36:	2300      	movs	r3, #0
 8002b38:	9301      	str	r3, [sp, #4]
 8002b3a:	2308      	movs	r3, #8
 8002b3c:	9300      	str	r3, [sp, #0]
 8002b3e:	2308      	movs	r3, #8
 8002b40:	4a08      	ldr	r2, [pc, #32]	@ (8002b64 <HAL_TIM_PeriodElapsedCallback+0x4c>)
 8002b42:	2100      	movs	r1, #0
 8002b44:	2000      	movs	r0, #0
 8002b46:	f000 fa17 	bl	8002f78 <ssd1306_DrawBitmap>

			frames = 0;

		}
		*/
		ssd1306_UpdateScreen();
 8002b4a:	f000 f8cb 	bl	8002ce4 <ssd1306_UpdateScreen>
		HAL_GPIO_TogglePin(GPIOB,LD2_Pin);
 8002b4e:	2180      	movs	r1, #128	@ 0x80
 8002b50:	4805      	ldr	r0, [pc, #20]	@ (8002b68 <HAL_TIM_PeriodElapsedCallback+0x50>)
 8002b52:	f001 f95c 	bl	8003e0e <HAL_GPIO_TogglePin>
    }
}
 8002b56:	bf00      	nop
 8002b58:	3708      	adds	r7, #8
 8002b5a:	46bd      	mov	sp, r7
 8002b5c:	bd80      	pop	{r7, pc}
 8002b5e:	bf00      	nop
 8002b60:	20000d28 	.word	0x20000d28
 8002b64:	0800af74 	.word	0x0800af74
 8002b68:	40020400 	.word	0x40020400

08002b6c <ssd1306_Reset>:
 8002b6c:	b480      	push	{r7}
 8002b6e:	af00      	add	r7, sp, #0
 8002b70:	bf00      	nop
 8002b72:	46bd      	mov	sp, r7
 8002b74:	f85d 7b04 	ldr.w	r7, [sp], #4
 8002b78:	4770      	bx	lr
	...

08002b7c <ssd1306_WriteCommand>:
 8002b7c:	b580      	push	{r7, lr}
 8002b7e:	b086      	sub	sp, #24
 8002b80:	af04      	add	r7, sp, #16
 8002b82:	4603      	mov	r3, r0
 8002b84:	71fb      	strb	r3, [r7, #7]
 8002b86:	f04f 33ff 	mov.w	r3, #4294967295
 8002b8a:	9302      	str	r3, [sp, #8]
 8002b8c:	2301      	movs	r3, #1
 8002b8e:	9301      	str	r3, [sp, #4]
 8002b90:	1dfb      	adds	r3, r7, #7
 8002b92:	9300      	str	r3, [sp, #0]
 8002b94:	2301      	movs	r3, #1
 8002b96:	2200      	movs	r2, #0
 8002b98:	2178      	movs	r1, #120	@ 0x78
 8002b9a:	4803      	ldr	r0, [pc, #12]	@ (8002ba8 <ssd1306_WriteCommand+0x2c>)
 8002b9c:	f001 fa06 	bl	8003fac <HAL_I2C_Mem_Write>
 8002ba0:	bf00      	nop
 8002ba2:	3708      	adds	r7, #8
 8002ba4:	46bd      	mov	sp, r7
 8002ba6:	bd80      	pop	{r7, pc}
 8002ba8:	200005e0 	.word	0x200005e0

08002bac <ssd1306_WriteData>:
 8002bac:	b580      	push	{r7, lr}
 8002bae:	b086      	sub	sp, #24
 8002bb0:	af04      	add	r7, sp, #16
 8002bb2:	6078      	str	r0, [r7, #4]
 8002bb4:	6039      	str	r1, [r7, #0]
 8002bb6:	683b      	ldr	r3, [r7, #0]
 8002bb8:	b29b      	uxth	r3, r3
 8002bba:	f04f 32ff 	mov.w	r2, #4294967295
 8002bbe:	9202      	str	r2, [sp, #8]
 8002bc0:	9301      	str	r3, [sp, #4]
 8002bc2:	687b      	ldr	r3, [r7, #4]
 8002bc4:	9300      	str	r3, [sp, #0]
 8002bc6:	2301      	movs	r3, #1
 8002bc8:	2240      	movs	r2, #64	@ 0x40
 8002bca:	2178      	movs	r1, #120	@ 0x78
 8002bcc:	4803      	ldr	r0, [pc, #12]	@ (8002bdc <ssd1306_WriteData+0x30>)
 8002bce:	f001 f9ed 	bl	8003fac <HAL_I2C_Mem_Write>
 8002bd2:	bf00      	nop
 8002bd4:	3708      	adds	r7, #8
 8002bd6:	46bd      	mov	sp, r7
 8002bd8:	bd80      	pop	{r7, pc}
 8002bda:	bf00      	nop
 8002bdc:	200005e0 	.word	0x200005e0

08002be0 <ssd1306_Init>:
 8002be0:	b580      	push	{r7, lr}
 8002be2:	af00      	add	r7, sp, #0
 8002be4:	f7ff ffc2 	bl	8002b6c <ssd1306_Reset>
 8002be8:	2064      	movs	r0, #100	@ 0x64
 8002bea:	f000 faaf 	bl	800314c <HAL_Delay>
 8002bee:	2000      	movs	r0, #0
 8002bf0:	f000 fa30 	bl	8003054 <ssd1306_SetDisplayOn>
 8002bf4:	2020      	movs	r0, #32
 8002bf6:	f7ff ffc1 	bl	8002b7c <ssd1306_WriteCommand>
 8002bfa:	2000      	movs	r0, #0
 8002bfc:	f7ff ffbe 	bl	8002b7c <ssd1306_WriteCommand>
 8002c00:	20b0      	movs	r0, #176	@ 0xb0
 8002c02:	f7ff ffbb 	bl	8002b7c <ssd1306_WriteCommand>
 8002c06:	20c8      	movs	r0, #200	@ 0xc8
 8002c08:	f7ff ffb8 	bl	8002b7c <ssd1306_WriteCommand>
 8002c0c:	2000      	movs	r0, #0
 8002c0e:	f7ff ffb5 	bl	8002b7c <ssd1306_WriteCommand>
 8002c12:	2010      	movs	r0, #16
 8002c14:	f7ff ffb2 	bl	8002b7c <ssd1306_WriteCommand>
 8002c18:	2040      	movs	r0, #64	@ 0x40
 8002c1a:	f7ff ffaf 	bl	8002b7c <ssd1306_WriteCommand>
 8002c1e:	20ff      	movs	r0, #255	@ 0xff
 8002c20:	f000 fa05 	bl	800302e <ssd1306_SetContrast>
 8002c24:	20a1      	movs	r0, #161	@ 0xa1
 8002c26:	f7ff ffa9 	bl	8002b7c <ssd1306_WriteCommand>
 8002c2a:	20a6      	movs	r0, #166	@ 0xa6
 8002c2c:	f7ff ffa6 	bl	8002b7c <ssd1306_WriteCommand>
 8002c30:	20a8      	movs	r0, #168	@ 0xa8
 8002c32:	f7ff ffa3 	bl	8002b7c <ssd1306_WriteCommand>
 8002c36:	203f      	movs	r0, #63	@ 0x3f
 8002c38:	f7ff ffa0 	bl	8002b7c <ssd1306_WriteCommand>
 8002c3c:	20a4      	movs	r0, #164	@ 0xa4
 8002c3e:	f7ff ff9d 	bl	8002b7c <ssd1306_WriteCommand>
 8002c42:	20d3      	movs	r0, #211	@ 0xd3
 8002c44:	f7ff ff9a 	bl	8002b7c <ssd1306_WriteCommand>
 8002c48:	2000      	movs	r0, #0
 8002c4a:	f7ff ff97 	bl	8002b7c <ssd1306_WriteCommand>
 8002c4e:	20d5      	movs	r0, #213	@ 0xd5
 8002c50:	f7ff ff94 	bl	8002b7c <ssd1306_WriteCommand>
 8002c54:	20f0      	movs	r0, #240	@ 0xf0
 8002c56:	f7ff ff91 	bl	8002b7c <ssd1306_WriteCommand>
 8002c5a:	20d9      	movs	r0, #217	@ 0xd9
 8002c5c:	f7ff ff8e 	bl	8002b7c <ssd1306_WriteCommand>
 8002c60:	2022      	movs	r0, #34	@ 0x22
 8002c62:	f7ff ff8b 	bl	8002b7c <ssd1306_WriteCommand>
 8002c66:	20da      	movs	r0, #218	@ 0xda
 8002c68:	f7ff ff88 	bl	8002b7c <ssd1306_WriteCommand>
 8002c6c:	2012      	movs	r0, #18
 8002c6e:	f7ff ff85 	bl	8002b7c <ssd1306_WriteCommand>
 8002c72:	20db      	movs	r0, #219	@ 0xdb
 8002c74:	f7ff ff82 	bl	8002b7c <ssd1306_WriteCommand>
 8002c78:	2020      	movs	r0, #32
 8002c7a:	f7ff ff7f 	bl	8002b7c <ssd1306_WriteCommand>
 8002c7e:	208d      	movs	r0, #141	@ 0x8d
 8002c80:	f7ff ff7c 	bl	8002b7c <ssd1306_WriteCommand>
 8002c84:	2014      	movs	r0, #20
 8002c86:	f7ff ff79 	bl	8002b7c <ssd1306_WriteCommand>
 8002c8a:	2001      	movs	r0, #1
 8002c8c:	f000 f9e2 	bl	8003054 <ssd1306_SetDisplayOn>
 8002c90:	2000      	movs	r0, #0
 8002c92:	f000 f80f 	bl	8002cb4 <ssd1306_Fill>
 8002c96:	f000 f825 	bl	8002ce4 <ssd1306_UpdateScreen>
 8002c9a:	4b05      	ldr	r3, [pc, #20]	@ (8002cb0 <ssd1306_Init+0xd0>)
 8002c9c:	2200      	movs	r2, #0
 8002c9e:	801a      	strh	r2, [r3, #0]
 8002ca0:	4b03      	ldr	r3, [pc, #12]	@ (8002cb0 <ssd1306_Init+0xd0>)
 8002ca2:	2200      	movs	r2, #0
 8002ca4:	805a      	strh	r2, [r3, #2]
 8002ca6:	4b02      	ldr	r3, [pc, #8]	@ (8002cb0 <ssd1306_Init+0xd0>)
 8002ca8:	2201      	movs	r2, #1
 8002caa:	711a      	strb	r2, [r3, #4]
 8002cac:	bf00      	nop
 8002cae:	bd80      	pop	{r7, pc}
 8002cb0:	2000112c 	.word	0x2000112c

08002cb4 <ssd1306_Fill>:
 8002cb4:	b580      	push	{r7, lr}
 8002cb6:	b082      	sub	sp, #8
 8002cb8:	af00      	add	r7, sp, #0
 8002cba:	4603      	mov	r3, r0
 8002cbc:	71fb      	strb	r3, [r7, #7]
 8002cbe:	79fb      	ldrb	r3, [r7, #7]
 8002cc0:	2b00      	cmp	r3, #0
 8002cc2:	d101      	bne.n	8002cc8 <ssd1306_Fill+0x14>
 8002cc4:	2300      	movs	r3, #0
 8002cc6:	e000      	b.n	8002cca <ssd1306_Fill+0x16>
 8002cc8:	23ff      	movs	r3, #255	@ 0xff
 8002cca:	f44f 6280 	mov.w	r2, #1024	@ 0x400
 8002cce:	4619      	mov	r1, r3
 8002cd0:	4803      	ldr	r0, [pc, #12]	@ (8002ce0 <ssd1306_Fill+0x2c>)
 8002cd2:	f006 f911 	bl	8008ef8 <memset>
 8002cd6:	bf00      	nop
 8002cd8:	3708      	adds	r7, #8
 8002cda:	46bd      	mov	sp, r7
 8002cdc:	bd80      	pop	{r7, pc}
 8002cde:	bf00      	nop
 8002ce0:	20000d2c 	.word	0x20000d2c

08002ce4 <ssd1306_UpdateScreen>:
 8002ce4:	b580      	push	{r7, lr}
 8002ce6:	b082      	sub	sp, #8
 8002ce8:	af00      	add	r7, sp, #0
 8002cea:	2300      	movs	r3, #0
 8002cec:	71fb      	strb	r3, [r7, #7]
 8002cee:	e016      	b.n	8002d1e <ssd1306_UpdateScreen+0x3a>
 8002cf0:	79fb      	ldrb	r3, [r7, #7]
 8002cf2:	3b50      	subs	r3, #80	@ 0x50
 8002cf4:	b2db      	uxtb	r3, r3
 8002cf6:	4618      	mov	r0, r3
 8002cf8:	f7ff ff40 	bl	8002b7c <ssd1306_WriteCommand>
 8002cfc:	2000      	movs	r0, #0
 8002cfe:	f7ff ff3d 	bl	8002b7c <ssd1306_WriteCommand>
 8002d02:	2010      	movs	r0, #16
 8002d04:	f7ff ff3a 	bl	8002b7c <ssd1306_WriteCommand>
 8002d08:	79fb      	ldrb	r3, [r7, #7]
 8002d0a:	01db      	lsls	r3, r3, #7
 8002d0c:	4a08      	ldr	r2, [pc, #32]	@ (8002d30 <ssd1306_UpdateScreen+0x4c>)
 8002d0e:	4413      	add	r3, r2
 8002d10:	2180      	movs	r1, #128	@ 0x80
 8002d12:	4618      	mov	r0, r3
 8002d14:	f7ff ff4a 	bl	8002bac <ssd1306_WriteData>
 8002d18:	79fb      	ldrb	r3, [r7, #7]
 8002d1a:	3301      	adds	r3, #1
 8002d1c:	71fb      	strb	r3, [r7, #7]
 8002d1e:	79fb      	ldrb	r3, [r7, #7]
 8002d20:	2b07      	cmp	r3, #7
 8002d22:	d9e5      	bls.n	8002cf0 <ssd1306_UpdateScreen+0xc>
 8002d24:	bf00      	nop
 8002d26:	bf00      	nop
 8002d28:	3708      	adds	r7, #8
 8002d2a:	46bd      	mov	sp, r7
 8002d2c:	bd80      	pop	{r7, pc}
 8002d2e:	bf00      	nop
 8002d30:	20000d2c 	.word	0x20000d2c

08002d34 <ssd1306_DrawPixel>:
 8002d34:	b480      	push	{r7}
 8002d36:	b083      	sub	sp, #12
 8002d38:	af00      	add	r7, sp, #0
 8002d3a:	4603      	mov	r3, r0
 8002d3c:	71fb      	strb	r3, [r7, #7]
 8002d3e:	460b      	mov	r3, r1
 8002d40:	71bb      	strb	r3, [r7, #6]
 8002d42:	4613      	mov	r3, r2
 8002d44:	717b      	strb	r3, [r7, #5]
 8002d46:	f997 3007 	ldrsb.w	r3, [r7, #7]
 8002d4a:	2b00      	cmp	r3, #0
 8002d4c:	db3d      	blt.n	8002dca <ssd1306_DrawPixel+0x96>
 8002d4e:	79bb      	ldrb	r3, [r7, #6]
 8002d50:	2b3f      	cmp	r3, #63	@ 0x3f
 8002d52:	d83a      	bhi.n	8002dca <ssd1306_DrawPixel+0x96>
 8002d54:	797b      	ldrb	r3, [r7, #5]
 8002d56:	2b01      	cmp	r3, #1
 8002d58:	d11a      	bne.n	8002d90 <ssd1306_DrawPixel+0x5c>
 8002d5a:	79fa      	ldrb	r2, [r7, #7]
 8002d5c:	79bb      	ldrb	r3, [r7, #6]
 8002d5e:	08db      	lsrs	r3, r3, #3
 8002d60:	b2d8      	uxtb	r0, r3
 8002d62:	4603      	mov	r3, r0
 8002d64:	01db      	lsls	r3, r3, #7
 8002d66:	4413      	add	r3, r2
 8002d68:	4a1b      	ldr	r2, [pc, #108]	@ (8002dd8 <ssd1306_DrawPixel+0xa4>)
 8002d6a:	5cd3      	ldrb	r3, [r2, r3]
 8002d6c:	b25a      	sxtb	r2, r3
 8002d6e:	79bb      	ldrb	r3, [r7, #6]
 8002d70:	f003 0307 	and.w	r3, r3, #7
 8002d74:	2101      	movs	r1, #1
 8002d76:	fa01 f303 	lsl.w	r3, r1, r3
 8002d7a:	b25b      	sxtb	r3, r3
 8002d7c:	4313      	orrs	r3, r2
 8002d7e:	b259      	sxtb	r1, r3
 8002d80:	79fa      	ldrb	r2, [r7, #7]
 8002d82:	4603      	mov	r3, r0
 8002d84:	01db      	lsls	r3, r3, #7
 8002d86:	4413      	add	r3, r2
 8002d88:	b2c9      	uxtb	r1, r1
 8002d8a:	4a13      	ldr	r2, [pc, #76]	@ (8002dd8 <ssd1306_DrawPixel+0xa4>)
 8002d8c:	54d1      	strb	r1, [r2, r3]
 8002d8e:	e01d      	b.n	8002dcc <ssd1306_DrawPixel+0x98>
 8002d90:	79fa      	ldrb	r2, [r7, #7]
 8002d92:	79bb      	ldrb	r3, [r7, #6]
 8002d94:	08db      	lsrs	r3, r3, #3
 8002d96:	b2d8      	uxtb	r0, r3
 8002d98:	4603      	mov	r3, r0
 8002d9a:	01db      	lsls	r3, r3, #7
 8002d9c:	4413      	add	r3, r2
 8002d9e:	4a0e      	ldr	r2, [pc, #56]	@ (8002dd8 <ssd1306_DrawPixel+0xa4>)
 8002da0:	5cd3      	ldrb	r3, [r2, r3]
 8002da2:	b25a      	sxtb	r2, r3
 8002da4:	79bb      	ldrb	r3, [r7, #6]
 8002da6:	f003 0307 	and.w	r3, r3, #7
 8002daa:	2101      	movs	r1, #1
 8002dac:	fa01 f303 	lsl.w	r3, r1, r3
 8002db0:	b25b      	sxtb	r3, r3
 8002db2:	43db      	mvns	r3, r3
 8002db4:	b25b      	sxtb	r3, r3
 8002db6:	4013      	ands	r3, r2
 8002db8:	b259      	sxtb	r1, r3
 8002dba:	79fa      	ldrb	r2, [r7, #7]
 8002dbc:	4603      	mov	r3, r0
 8002dbe:	01db      	lsls	r3, r3, #7
 8002dc0:	4413      	add	r3, r2
 8002dc2:	b2c9      	uxtb	r1, r1
 8002dc4:	4a04      	ldr	r2, [pc, #16]	@ (8002dd8 <ssd1306_DrawPixel+0xa4>)
 8002dc6:	54d1      	strb	r1, [r2, r3]
 8002dc8:	e000      	b.n	8002dcc <ssd1306_DrawPixel+0x98>
 8002dca:	bf00      	nop
 8002dcc:	370c      	adds	r7, #12
 8002dce:	46bd      	mov	sp, r7
 8002dd0:	f85d 7b04 	ldr.w	r7, [sp], #4
 8002dd4:	4770      	bx	lr
 8002dd6:	bf00      	nop
 8002dd8:	20000d2c 	.word	0x20000d2c

08002ddc <ssd1306_WriteChar>:
 8002ddc:	b590      	push	{r4, r7, lr}
 8002dde:	b089      	sub	sp, #36	@ 0x24
 8002de0:	af00      	add	r7, sp, #0
 8002de2:	4604      	mov	r4, r0
 8002de4:	4638      	mov	r0, r7
 8002de6:	e880 000e 	stmia.w	r0, {r1, r2, r3}
 8002dea:	4623      	mov	r3, r4
 8002dec:	73fb      	strb	r3, [r7, #15]
 8002dee:	7bfb      	ldrb	r3, [r7, #15]
 8002df0:	2b1f      	cmp	r3, #31
 8002df2:	d902      	bls.n	8002dfa <ssd1306_WriteChar+0x1e>
 8002df4:	7bfb      	ldrb	r3, [r7, #15]
 8002df6:	2b7e      	cmp	r3, #126	@ 0x7e
 8002df8:	d901      	bls.n	8002dfe <ssd1306_WriteChar+0x22>
 8002dfa:	2300      	movs	r3, #0
 8002dfc:	e077      	b.n	8002eee <ssd1306_WriteChar+0x112>
 8002dfe:	4b3e      	ldr	r3, [pc, #248]	@ (8002ef8 <ssd1306_WriteChar+0x11c>)
 8002e00:	881b      	ldrh	r3, [r3, #0]
 8002e02:	461a      	mov	r2, r3
 8002e04:	783b      	ldrb	r3, [r7, #0]
 8002e06:	4413      	add	r3, r2
 8002e08:	2b80      	cmp	r3, #128	@ 0x80
 8002e0a:	dc06      	bgt.n	8002e1a <ssd1306_WriteChar+0x3e>
 8002e0c:	4b3a      	ldr	r3, [pc, #232]	@ (8002ef8 <ssd1306_WriteChar+0x11c>)
 8002e0e:	885b      	ldrh	r3, [r3, #2]
 8002e10:	461a      	mov	r2, r3
 8002e12:	787b      	ldrb	r3, [r7, #1]
 8002e14:	4413      	add	r3, r2
 8002e16:	2b40      	cmp	r3, #64	@ 0x40
 8002e18:	dd01      	ble.n	8002e1e <ssd1306_WriteChar+0x42>
 8002e1a:	2300      	movs	r3, #0
 8002e1c:	e067      	b.n	8002eee <ssd1306_WriteChar+0x112>
 8002e1e:	2300      	movs	r3, #0
 8002e20:	61fb      	str	r3, [r7, #28]
 8002e22:	e04e      	b.n	8002ec2 <ssd1306_WriteChar+0xe6>
 8002e24:	687a      	ldr	r2, [r7, #4]
 8002e26:	7bfb      	ldrb	r3, [r7, #15]
 8002e28:	3b20      	subs	r3, #32
 8002e2a:	7879      	ldrb	r1, [r7, #1]
 8002e2c:	fb01 f303 	mul.w	r3, r1, r3
 8002e30:	4619      	mov	r1, r3
 8002e32:	69fb      	ldr	r3, [r7, #28]
 8002e34:	440b      	add	r3, r1
 8002e36:	005b      	lsls	r3, r3, #1
 8002e38:	4413      	add	r3, r2
 8002e3a:	881b      	ldrh	r3, [r3, #0]
 8002e3c:	617b      	str	r3, [r7, #20]
 8002e3e:	2300      	movs	r3, #0
 8002e40:	61bb      	str	r3, [r7, #24]
 8002e42:	e036      	b.n	8002eb2 <ssd1306_WriteChar+0xd6>
 8002e44:	697a      	ldr	r2, [r7, #20]
 8002e46:	69bb      	ldr	r3, [r7, #24]
 8002e48:	fa02 f303 	lsl.w	r3, r2, r3
 8002e4c:	f403 4300 	and.w	r3, r3, #32768	@ 0x8000
 8002e50:	2b00      	cmp	r3, #0
 8002e52:	d013      	beq.n	8002e7c <ssd1306_WriteChar+0xa0>
 8002e54:	4b28      	ldr	r3, [pc, #160]	@ (8002ef8 <ssd1306_WriteChar+0x11c>)
 8002e56:	881b      	ldrh	r3, [r3, #0]
 8002e58:	b2da      	uxtb	r2, r3
 8002e5a:	69bb      	ldr	r3, [r7, #24]
 8002e5c:	b2db      	uxtb	r3, r3
 8002e5e:	4413      	add	r3, r2
 8002e60:	b2d8      	uxtb	r0, r3
 8002e62:	4b25      	ldr	r3, [pc, #148]	@ (8002ef8 <ssd1306_WriteChar+0x11c>)
 8002e64:	885b      	ldrh	r3, [r3, #2]
 8002e66:	b2da      	uxtb	r2, r3
 8002e68:	69fb      	ldr	r3, [r7, #28]
 8002e6a:	b2db      	uxtb	r3, r3
 8002e6c:	4413      	add	r3, r2
 8002e6e:	b2db      	uxtb	r3, r3
 8002e70:	f897 2030 	ldrb.w	r2, [r7, #48]	@ 0x30
 8002e74:	4619      	mov	r1, r3
 8002e76:	f7ff ff5d 	bl	8002d34 <ssd1306_DrawPixel>
 8002e7a:	e017      	b.n	8002eac <ssd1306_WriteChar+0xd0>
 8002e7c:	4b1e      	ldr	r3, [pc, #120]	@ (8002ef8 <ssd1306_WriteChar+0x11c>)
 8002e7e:	881b      	ldrh	r3, [r3, #0]
 8002e80:	b2da      	uxtb	r2, r3
 8002e82:	69bb      	ldr	r3, [r7, #24]
 8002e84:	b2db      	uxtb	r3, r3
 8002e86:	4413      	add	r3, r2
 8002e88:	b2d8      	uxtb	r0, r3
 8002e8a:	4b1b      	ldr	r3, [pc, #108]	@ (8002ef8 <ssd1306_WriteChar+0x11c>)
 8002e8c:	885b      	ldrh	r3, [r3, #2]
 8002e8e:	b2da      	uxtb	r2, r3
 8002e90:	69fb      	ldr	r3, [r7, #28]
 8002e92:	b2db      	uxtb	r3, r3
 8002e94:	4413      	add	r3, r2
 8002e96:	b2d9      	uxtb	r1, r3
 8002e98:	f897 3030 	ldrb.w	r3, [r7, #48]	@ 0x30
 8002e9c:	2b00      	cmp	r3, #0
 8002e9e:	bf0c      	ite	eq
 8002ea0:	2301      	moveq	r3, #1
 8002ea2:	2300      	movne	r3, #0
 8002ea4:	b2db      	uxtb	r3, r3
 8002ea6:	461a      	mov	r2, r3
 8002ea8:	f7ff ff44 	bl	8002d34 <ssd1306_DrawPixel>
 8002eac:	69bb      	ldr	r3, [r7, #24]
 8002eae:	3301      	adds	r3, #1
 8002eb0:	61bb      	str	r3, [r7, #24]
 8002eb2:	783b      	ldrb	r3, [r7, #0]
 8002eb4:	461a      	mov	r2, r3
 8002eb6:	69bb      	ldr	r3, [r7, #24]
 8002eb8:	4293      	cmp	r3, r2
 8002eba:	d3c3      	bcc.n	8002e44 <ssd1306_WriteChar+0x68>
 8002ebc:	69fb      	ldr	r3, [r7, #28]
 8002ebe:	3301      	adds	r3, #1
 8002ec0:	61fb      	str	r3, [r7, #28]
 8002ec2:	787b      	ldrb	r3, [r7, #1]
 8002ec4:	461a      	mov	r2, r3
 8002ec6:	69fb      	ldr	r3, [r7, #28]
 8002ec8:	4293      	cmp	r3, r2
 8002eca:	d3ab      	bcc.n	8002e24 <ssd1306_WriteChar+0x48>
 8002ecc:	4b0a      	ldr	r3, [pc, #40]	@ (8002ef8 <ssd1306_WriteChar+0x11c>)
 8002ece:	881b      	ldrh	r3, [r3, #0]
 8002ed0:	68ba      	ldr	r2, [r7, #8]
 8002ed2:	2a00      	cmp	r2, #0
 8002ed4:	d005      	beq.n	8002ee2 <ssd1306_WriteChar+0x106>
 8002ed6:	68b9      	ldr	r1, [r7, #8]
 8002ed8:	7bfa      	ldrb	r2, [r7, #15]
 8002eda:	3a20      	subs	r2, #32
 8002edc:	440a      	add	r2, r1
 8002ede:	7812      	ldrb	r2, [r2, #0]
 8002ee0:	e000      	b.n	8002ee4 <ssd1306_WriteChar+0x108>
 8002ee2:	783a      	ldrb	r2, [r7, #0]
 8002ee4:	4413      	add	r3, r2
 8002ee6:	b29a      	uxth	r2, r3
 8002ee8:	4b03      	ldr	r3, [pc, #12]	@ (8002ef8 <ssd1306_WriteChar+0x11c>)
 8002eea:	801a      	strh	r2, [r3, #0]
 8002eec:	7bfb      	ldrb	r3, [r7, #15]
 8002eee:	4618      	mov	r0, r3
 8002ef0:	3724      	adds	r7, #36	@ 0x24
 8002ef2:	46bd      	mov	sp, r7
 8002ef4:	bd90      	pop	{r4, r7, pc}
 8002ef6:	bf00      	nop
 8002ef8:	2000112c 	.word	0x2000112c

08002efc <ssd1306_WriteString>:
 8002efc:	b580      	push	{r7, lr}
 8002efe:	b086      	sub	sp, #24
 8002f00:	af02      	add	r7, sp, #8
 8002f02:	60f8      	str	r0, [r7, #12]
 8002f04:	4638      	mov	r0, r7
 8002f06:	e880 000e 	stmia.w	r0, {r1, r2, r3}
 8002f0a:	e013      	b.n	8002f34 <ssd1306_WriteString+0x38>
 8002f0c:	68fb      	ldr	r3, [r7, #12]
 8002f0e:	7818      	ldrb	r0, [r3, #0]
 8002f10:	7e3b      	ldrb	r3, [r7, #24]
 8002f12:	9300      	str	r3, [sp, #0]
 8002f14:	463b      	mov	r3, r7
 8002f16:	cb0e      	ldmia	r3, {r1, r2, r3}
 8002f18:	f7ff ff60 	bl	8002ddc <ssd1306_WriteChar>
 8002f1c:	4603      	mov	r3, r0
 8002f1e:	461a      	mov	r2, r3
 8002f20:	68fb      	ldr	r3, [r7, #12]
 8002f22:	781b      	ldrb	r3, [r3, #0]
 8002f24:	429a      	cmp	r2, r3
 8002f26:	d002      	beq.n	8002f2e <ssd1306_WriteString+0x32>
 8002f28:	68fb      	ldr	r3, [r7, #12]
 8002f2a:	781b      	ldrb	r3, [r3, #0]
 8002f2c:	e008      	b.n	8002f40 <ssd1306_WriteString+0x44>
 8002f2e:	68fb      	ldr	r3, [r7, #12]
 8002f30:	3301      	adds	r3, #1
 8002f32:	60fb      	str	r3, [r7, #12]
 8002f34:	68fb      	ldr	r3, [r7, #12]
 8002f36:	781b      	ldrb	r3, [r3, #0]
 8002f38:	2b00      	cmp	r3, #0
 8002f3a:	d1e7      	bne.n	8002f0c <ssd1306_WriteString+0x10>
 8002f3c:	68fb      	ldr	r3, [r7, #12]
 8002f3e:	781b      	ldrb	r3, [r3, #0]
 8002f40:	4618      	mov	r0, r3
 8002f42:	3710      	adds	r7, #16
 8002f44:	46bd      	mov	sp, r7
 8002f46:	bd80      	pop	{r7, pc}

08002f48 <ssd1306_SetCursor>:
 8002f48:	b480      	push	{r7}
 8002f4a:	b083      	sub	sp, #12
 8002f4c:	af00      	add	r7, sp, #0
 8002f4e:	4603      	mov	r3, r0
 8002f50:	460a      	mov	r2, r1
 8002f52:	71fb      	strb	r3, [r7, #7]
 8002f54:	4613      	mov	r3, r2
 8002f56:	71bb      	strb	r3, [r7, #6]
 8002f58:	79fb      	ldrb	r3, [r7, #7]
 8002f5a:	b29a      	uxth	r2, r3
 8002f5c:	4b05      	ldr	r3, [pc, #20]	@ (8002f74 <ssd1306_SetCursor+0x2c>)
 8002f5e:	801a      	strh	r2, [r3, #0]
 8002f60:	79bb      	ldrb	r3, [r7, #6]
 8002f62:	b29a      	uxth	r2, r3
 8002f64:	4b03      	ldr	r3, [pc, #12]	@ (8002f74 <ssd1306_SetCursor+0x2c>)
 8002f66:	805a      	strh	r2, [r3, #2]
 8002f68:	bf00      	nop
 8002f6a:	370c      	adds	r7, #12
 8002f6c:	46bd      	mov	sp, r7
 8002f6e:	f85d 7b04 	ldr.w	r7, [sp], #4
 8002f72:	4770      	bx	lr
 8002f74:	2000112c 	.word	0x2000112c

08002f78 <ssd1306_DrawBitmap>:
 8002f78:	b580      	push	{r7, lr}
 8002f7a:	b084      	sub	sp, #16
 8002f7c:	af00      	add	r7, sp, #0
 8002f7e:	603a      	str	r2, [r7, #0]
 8002f80:	461a      	mov	r2, r3
 8002f82:	4603      	mov	r3, r0
 8002f84:	71fb      	strb	r3, [r7, #7]
 8002f86:	460b      	mov	r3, r1
 8002f88:	71bb      	strb	r3, [r7, #6]
 8002f8a:	4613      	mov	r3, r2
 8002f8c:	717b      	strb	r3, [r7, #5]
 8002f8e:	797b      	ldrb	r3, [r7, #5]
 8002f90:	3307      	adds	r3, #7
 8002f92:	2b00      	cmp	r3, #0
 8002f94:	da00      	bge.n	8002f98 <ssd1306_DrawBitmap+0x20>
 8002f96:	3307      	adds	r3, #7
 8002f98:	10db      	asrs	r3, r3, #3
 8002f9a:	817b      	strh	r3, [r7, #10]
 8002f9c:	2300      	movs	r3, #0
 8002f9e:	73fb      	strb	r3, [r7, #15]
 8002fa0:	f997 3007 	ldrsb.w	r3, [r7, #7]
 8002fa4:	2b00      	cmp	r3, #0
 8002fa6:	db3e      	blt.n	8003026 <ssd1306_DrawBitmap+0xae>
 8002fa8:	79bb      	ldrb	r3, [r7, #6]
 8002faa:	2b3f      	cmp	r3, #63	@ 0x3f
 8002fac:	d83b      	bhi.n	8003026 <ssd1306_DrawBitmap+0xae>
 8002fae:	2300      	movs	r3, #0
 8002fb0:	73bb      	strb	r3, [r7, #14]
 8002fb2:	e033      	b.n	800301c <ssd1306_DrawBitmap+0xa4>
 8002fb4:	2300      	movs	r3, #0
 8002fb6:	737b      	strb	r3, [r7, #13]
 8002fb8:	e026      	b.n	8003008 <ssd1306_DrawBitmap+0x90>
 8002fba:	7b7b      	ldrb	r3, [r7, #13]
 8002fbc:	f003 0307 	and.w	r3, r3, #7
 8002fc0:	2b00      	cmp	r3, #0
 8002fc2:	d003      	beq.n	8002fcc <ssd1306_DrawBitmap+0x54>
 8002fc4:	7bfb      	ldrb	r3, [r7, #15]
 8002fc6:	005b      	lsls	r3, r3, #1
 8002fc8:	73fb      	strb	r3, [r7, #15]
 8002fca:	e00d      	b.n	8002fe8 <ssd1306_DrawBitmap+0x70>
 8002fcc:	7bbb      	ldrb	r3, [r7, #14]
 8002fce:	f9b7 200a 	ldrsh.w	r2, [r7, #10]
 8002fd2:	fb02 f303 	mul.w	r3, r2, r3
 8002fd6:	7b7a      	ldrb	r2, [r7, #13]
 8002fd8:	08d2      	lsrs	r2, r2, #3
 8002fda:	b2d2      	uxtb	r2, r2
 8002fdc:	4413      	add	r3, r2
 8002fde:	461a      	mov	r2, r3
 8002fe0:	683b      	ldr	r3, [r7, #0]
 8002fe2:	4413      	add	r3, r2
 8002fe4:	781b      	ldrb	r3, [r3, #0]
 8002fe6:	73fb      	strb	r3, [r7, #15]
 8002fe8:	f997 300f 	ldrsb.w	r3, [r7, #15]
 8002fec:	2b00      	cmp	r3, #0
 8002fee:	da08      	bge.n	8003002 <ssd1306_DrawBitmap+0x8a>
 8002ff0:	79fa      	ldrb	r2, [r7, #7]
 8002ff2:	7b7b      	ldrb	r3, [r7, #13]
 8002ff4:	4413      	add	r3, r2
 8002ff6:	b2db      	uxtb	r3, r3
 8002ff8:	7f3a      	ldrb	r2, [r7, #28]
 8002ffa:	79b9      	ldrb	r1, [r7, #6]
 8002ffc:	4618      	mov	r0, r3
 8002ffe:	f7ff fe99 	bl	8002d34 <ssd1306_DrawPixel>
 8003002:	7b7b      	ldrb	r3, [r7, #13]
 8003004:	3301      	adds	r3, #1
 8003006:	737b      	strb	r3, [r7, #13]
 8003008:	7b7a      	ldrb	r2, [r7, #13]
 800300a:	797b      	ldrb	r3, [r7, #5]
 800300c:	429a      	cmp	r2, r3
 800300e:	d3d4      	bcc.n	8002fba <ssd1306_DrawBitmap+0x42>
 8003010:	7bbb      	ldrb	r3, [r7, #14]
 8003012:	3301      	adds	r3, #1
 8003014:	73bb      	strb	r3, [r7, #14]
 8003016:	79bb      	ldrb	r3, [r7, #6]
 8003018:	3301      	adds	r3, #1
 800301a:	71bb      	strb	r3, [r7, #6]
 800301c:	7bba      	ldrb	r2, [r7, #14]
 800301e:	7e3b      	ldrb	r3, [r7, #24]
 8003020:	429a      	cmp	r2, r3
 8003022:	d3c7      	bcc.n	8002fb4 <ssd1306_DrawBitmap+0x3c>
 8003024:	e000      	b.n	8003028 <ssd1306_DrawBitmap+0xb0>
 8003026:	bf00      	nop
 8003028:	3710      	adds	r7, #16
 800302a:	46bd      	mov	sp, r7
 800302c:	bd80      	pop	{r7, pc}

0800302e <ssd1306_SetContrast>:
 800302e:	b580      	push	{r7, lr}
 8003030:	b084      	sub	sp, #16
 8003032:	af00      	add	r7, sp, #0
 8003034:	4603      	mov	r3, r0
 8003036:	71fb      	strb	r3, [r7, #7]
 8003038:	2381      	movs	r3, #129	@ 0x81
 800303a:	73fb      	strb	r3, [r7, #15]
 800303c:	7bfb      	ldrb	r3, [r7, #15]
 800303e:	4618      	mov	r0, r3
 8003040:	f7ff fd9c 	bl	8002b7c <ssd1306_WriteCommand>
 8003044:	79fb      	ldrb	r3, [r7, #7]
 8003046:	4618      	mov	r0, r3
 8003048:	f7ff fd98 	bl	8002b7c <ssd1306_WriteCommand>
 800304c:	bf00      	nop
 800304e:	3710      	adds	r7, #16
 8003050:	46bd      	mov	sp, r7
 8003052:	bd80      	pop	{r7, pc}

08003054 <ssd1306_SetDisplayOn>:
 8003054:	b580      	push	{r7, lr}
 8003056:	b084      	sub	sp, #16
 8003058:	af00      	add	r7, sp, #0
 800305a:	4603      	mov	r3, r0
 800305c:	71fb      	strb	r3, [r7, #7]
 800305e:	79fb      	ldrb	r3, [r7, #7]
 8003060:	2b00      	cmp	r3, #0
 8003062:	d005      	beq.n	8003070 <ssd1306_SetDisplayOn+0x1c>
 8003064:	23af      	movs	r3, #175	@ 0xaf
 8003066:	73fb      	strb	r3, [r7, #15]
 8003068:	4b08      	ldr	r3, [pc, #32]	@ (800308c <ssd1306_SetDisplayOn+0x38>)
 800306a:	2201      	movs	r2, #1
 800306c:	715a      	strb	r2, [r3, #5]
 800306e:	e004      	b.n	800307a <ssd1306_SetDisplayOn+0x26>
 8003070:	23ae      	movs	r3, #174	@ 0xae
 8003072:	73fb      	strb	r3, [r7, #15]
 8003074:	4b05      	ldr	r3, [pc, #20]	@ (800308c <ssd1306_SetDisplayOn+0x38>)
 8003076:	2200      	movs	r2, #0
 8003078:	715a      	strb	r2, [r3, #5]
 800307a:	7bfb      	ldrb	r3, [r7, #15]
 800307c:	4618      	mov	r0, r3
 800307e:	f7ff fd7d 	bl	8002b7c <ssd1306_WriteCommand>
 8003082:	bf00      	nop
 8003084:	3710      	adds	r7, #16
 8003086:	46bd      	mov	sp, r7
 8003088:	bd80      	pop	{r7, pc}
 800308a:	bf00      	nop
 800308c:	2000112c 	.word	0x2000112c

08003090 <HAL_Init>:
 8003090:	b580      	push	{r7, lr}
 8003092:	af00      	add	r7, sp, #0
 8003094:	2003      	movs	r0, #3
 8003096:	f000 f94d 	bl	8003334 <HAL_NVIC_SetPriorityGrouping>
 800309a:	2000      	movs	r0, #0
 800309c:	f000 f806 	bl	80030ac <HAL_InitTick>
 80030a0:	f7ff f8b0 	bl	8002204 <HAL_MspInit>
 80030a4:	2300      	movs	r3, #0
 80030a6:	4618      	mov	r0, r3
 80030a8:	bd80      	pop	{r7, pc}
	...

080030ac <HAL_InitTick>:
 80030ac:	b580      	push	{r7, lr}
 80030ae:	b082      	sub	sp, #8
 80030b0:	af00      	add	r7, sp, #0
 80030b2:	6078      	str	r0, [r7, #4]
 80030b4:	4b12      	ldr	r3, [pc, #72]	@ (8003100 <HAL_InitTick+0x54>)
 80030b6:	681a      	ldr	r2, [r3, #0]
 80030b8:	4b12      	ldr	r3, [pc, #72]	@ (8003104 <HAL_InitTick+0x58>)
 80030ba:	781b      	ldrb	r3, [r3, #0]
 80030bc:	4619      	mov	r1, r3
 80030be:	f44f 737a 	mov.w	r3, #1000	@ 0x3e8
 80030c2:	fbb3 f3f1 	udiv	r3, r3, r1
 80030c6:	fbb2 f3f3 	udiv	r3, r2, r3
 80030ca:	4618      	mov	r0, r3
 80030cc:	f000 f967 	bl	800339e <HAL_SYSTICK_Config>
 80030d0:	4603      	mov	r3, r0
 80030d2:	2b00      	cmp	r3, #0
 80030d4:	d001      	beq.n	80030da <HAL_InitTick+0x2e>
 80030d6:	2301      	movs	r3, #1
 80030d8:	e00e      	b.n	80030f8 <HAL_InitTick+0x4c>
 80030da:	687b      	ldr	r3, [r7, #4]
 80030dc:	2b0f      	cmp	r3, #15
 80030de:	d80a      	bhi.n	80030f6 <HAL_InitTick+0x4a>
 80030e0:	2200      	movs	r2, #0
 80030e2:	6879      	ldr	r1, [r7, #4]
 80030e4:	f04f 30ff 	mov.w	r0, #4294967295
 80030e8:	f000 f92f 	bl	800334a <HAL_NVIC_SetPriority>
 80030ec:	4a06      	ldr	r2, [pc, #24]	@ (8003108 <HAL_InitTick+0x5c>)
 80030ee:	687b      	ldr	r3, [r7, #4]
 80030f0:	6013      	str	r3, [r2, #0]
 80030f2:	2300      	movs	r3, #0
 80030f4:	e000      	b.n	80030f8 <HAL_InitTick+0x4c>
 80030f6:	2301      	movs	r3, #1
 80030f8:	4618      	mov	r0, r3
 80030fa:	3708      	adds	r7, #8
 80030fc:	46bd      	mov	sp, r7
 80030fe:	bd80      	pop	{r7, pc}
 8003100:	20000154 	.word	0x20000154
 8003104:	2000015c 	.word	0x2000015c
 8003108:	20000158 	.word	0x20000158

0800310c <HAL_IncTick>:
 800310c:	b480      	push	{r7}
 800310e:	af00      	add	r7, sp, #0
 8003110:	4b06      	ldr	r3, [pc, #24]	@ (800312c <HAL_IncTick+0x20>)
 8003112:	781b      	ldrb	r3, [r3, #0]
 8003114:	461a      	mov	r2, r3
 8003116:	4b06      	ldr	r3, [pc, #24]	@ (8003130 <HAL_IncTick+0x24>)
 8003118:	681b      	ldr	r3, [r3, #0]
 800311a:	4413      	add	r3, r2
 800311c:	4a04      	ldr	r2, [pc, #16]	@ (8003130 <HAL_IncTick+0x24>)
 800311e:	6013      	str	r3, [r2, #0]
 8003120:	bf00      	nop
 8003122:	46bd      	mov	sp, r7
 8003124:	f85d 7b04 	ldr.w	r7, [sp], #4
 8003128:	4770      	bx	lr
 800312a:	bf00      	nop
 800312c:	2000015c 	.word	0x2000015c
 8003130:	20001134 	.word	0x20001134

08003134 <HAL_GetTick>:
 8003134:	b480      	push	{r7}
 8003136:	af00      	add	r7, sp, #0
 8003138:	4b03      	ldr	r3, [pc, #12]	@ (8003148 <HAL_GetTick+0x14>)
 800313a:	681b      	ldr	r3, [r3, #0]
 800313c:	4618      	mov	r0, r3
 800313e:	46bd      	mov	sp, r7
 8003140:	f85d 7b04 	ldr.w	r7, [sp], #4
 8003144:	4770      	bx	lr
 8003146:	bf00      	nop
 8003148:	20001134 	.word	0x20001134

0800314c <HAL_Delay>:
 800314c:	b580      	push	{r7, lr}
 800314e:	b084      	sub	sp, #16
 8003150:	af00      	add	r7, sp, #0
 8003152:	6078      	str	r0, [r7, #4]
 8003154:	f7ff ffee 	bl	8003134 <HAL_GetTick>
 8003158:	60b8      	str	r0, [r7, #8]
 800315a:	687b      	ldr	r3, [r7, #4]
 800315c:	60fb      	str	r3, [r7, #12]
 800315e:	68fb      	ldr	r3, [r7, #12]
 8003160:	f1b3 3fff 	cmp.w	r3, #4294967295
 8003164:	d005      	beq.n	8003172 <HAL_Delay+0x26>
 8003166:	4b0a      	ldr	r3, [pc, #40]	@ (8003190 <HAL_Delay+0x44>)
 8003168:	781b      	ldrb	r3, [r3, #0]
 800316a:	461a      	mov	r2, r3
 800316c:	68fb      	ldr	r3, [r7, #12]
 800316e:	4413      	add	r3, r2
 8003170:	60fb      	str	r3, [r7, #12]
 8003172:	bf00      	nop
 8003174:	f7ff ffde 	bl	8003134 <HAL_GetTick>
 8003178:	4602      	mov	r2, r0
 800317a:	68bb      	ldr	r3, [r7, #8]
 800317c:	1ad3      	subs	r3, r2, r3
 800317e:	68fa      	ldr	r2, [r7, #12]
 8003180:	429a      	cmp	r2, r3
 8003182:	d8f7      	bhi.n	8003174 <HAL_Delay+0x28>
 8003184:	bf00      	nop
 8003186:	bf00      	nop
 8003188:	3710      	adds	r7, #16
 800318a:	46bd      	mov	sp, r7
 800318c:	bd80      	pop	{r7, pc}
 800318e:	bf00      	nop
 8003190:	2000015c 	.word	0x2000015c

08003194 <__NVIC_SetPriorityGrouping>:
 8003194:	b480      	push	{r7}
 8003196:	b085      	sub	sp, #20
 8003198:	af00      	add	r7, sp, #0
 800319a:	6078      	str	r0, [r7, #4]
 800319c:	687b      	ldr	r3, [r7, #4]
 800319e:	f003 0307 	and.w	r3, r3, #7
 80031a2:	60fb      	str	r3, [r7, #12]
 80031a4:	4b0b      	ldr	r3, [pc, #44]	@ (80031d4 <__NVIC_SetPriorityGrouping+0x40>)
 80031a6:	68db      	ldr	r3, [r3, #12]
 80031a8:	60bb      	str	r3, [r7, #8]
 80031aa:	68ba      	ldr	r2, [r7, #8]
 80031ac:	f64f 03ff 	movw	r3, #63743	@ 0xf8ff
 80031b0:	4013      	ands	r3, r2
 80031b2:	60bb      	str	r3, [r7, #8]
 80031b4:	68fb      	ldr	r3, [r7, #12]
 80031b6:	021a      	lsls	r2, r3, #8
 80031b8:	68bb      	ldr	r3, [r7, #8]
 80031ba:	431a      	orrs	r2, r3
 80031bc:	4b06      	ldr	r3, [pc, #24]	@ (80031d8 <__NVIC_SetPriorityGrouping+0x44>)
 80031be:	4313      	orrs	r3, r2
 80031c0:	60bb      	str	r3, [r7, #8]
 80031c2:	4a04      	ldr	r2, [pc, #16]	@ (80031d4 <__NVIC_SetPriorityGrouping+0x40>)
 80031c4:	68bb      	ldr	r3, [r7, #8]
 80031c6:	60d3      	str	r3, [r2, #12]
 80031c8:	bf00      	nop
 80031ca:	3714      	adds	r7, #20
 80031cc:	46bd      	mov	sp, r7
 80031ce:	f85d 7b04 	ldr.w	r7, [sp], #4
 80031d2:	4770      	bx	lr
 80031d4:	e000ed00 	.word	0xe000ed00
 80031d8:	05fa0000 	.word	0x05fa0000

080031dc <__NVIC_GetPriorityGrouping>:
 80031dc:	b480      	push	{r7}
 80031de:	af00      	add	r7, sp, #0
 80031e0:	4b04      	ldr	r3, [pc, #16]	@ (80031f4 <__NVIC_GetPriorityGrouping+0x18>)
 80031e2:	68db      	ldr	r3, [r3, #12]
 80031e4:	0a1b      	lsrs	r3, r3, #8
 80031e6:	f003 0307 	and.w	r3, r3, #7
 80031ea:	4618      	mov	r0, r3
 80031ec:	46bd      	mov	sp, r7
 80031ee:	f85d 7b04 	ldr.w	r7, [sp], #4
 80031f2:	4770      	bx	lr
 80031f4:	e000ed00 	.word	0xe000ed00

080031f8 <__NVIC_EnableIRQ>:
 80031f8:	b480      	push	{r7}
 80031fa:	b083      	sub	sp, #12
 80031fc:	af00      	add	r7, sp, #0
 80031fe:	4603      	mov	r3, r0
 8003200:	71fb      	strb	r3, [r7, #7]
 8003202:	f997 3007 	ldrsb.w	r3, [r7, #7]
 8003206:	2b00      	cmp	r3, #0
 8003208:	db0b      	blt.n	8003222 <__NVIC_EnableIRQ+0x2a>
 800320a:	79fb      	ldrb	r3, [r7, #7]
 800320c:	f003 021f 	and.w	r2, r3, #31
 8003210:	4907      	ldr	r1, [pc, #28]	@ (8003230 <__NVIC_EnableIRQ+0x38>)
 8003212:	f997 3007 	ldrsb.w	r3, [r7, #7]
 8003216:	095b      	lsrs	r3, r3, #5
 8003218:	2001      	movs	r0, #1
 800321a:	fa00 f202 	lsl.w	r2, r0, r2
 800321e:	f841 2023 	str.w	r2, [r1, r3, lsl #2]
 8003222:	bf00      	nop
 8003224:	370c      	adds	r7, #12
 8003226:	46bd      	mov	sp, r7
 8003228:	f85d 7b04 	ldr.w	r7, [sp], #4
 800322c:	4770      	bx	lr
 800322e:	bf00      	nop
 8003230:	e000e100 	.word	0xe000e100

08003234 <__NVIC_SetPriority>:
 8003234:	b480      	push	{r7}
 8003236:	b083      	sub	sp, #12
 8003238:	af00      	add	r7, sp, #0
 800323a:	4603      	mov	r3, r0
 800323c:	6039      	str	r1, [r7, #0]
 800323e:	71fb      	strb	r3, [r7, #7]
 8003240:	f997 3007 	ldrsb.w	r3, [r7, #7]
 8003244:	2b00      	cmp	r3, #0
 8003246:	db0a      	blt.n	800325e <__NVIC_SetPriority+0x2a>
 8003248:	683b      	ldr	r3, [r7, #0]
 800324a:	b2da      	uxtb	r2, r3
 800324c:	490c      	ldr	r1, [pc, #48]	@ (8003280 <__NVIC_SetPriority+0x4c>)
 800324e:	f997 3007 	ldrsb.w	r3, [r7, #7]
 8003252:	0112      	lsls	r2, r2, #4
 8003254:	b2d2      	uxtb	r2, r2
 8003256:	440b      	add	r3, r1
 8003258:	f883 2300 	strb.w	r2, [r3, #768]	@ 0x300
 800325c:	e00a      	b.n	8003274 <__NVIC_SetPriority+0x40>
 800325e:	683b      	ldr	r3, [r7, #0]
 8003260:	b2da      	uxtb	r2, r3
 8003262:	4908      	ldr	r1, [pc, #32]	@ (8003284 <__NVIC_SetPriority+0x50>)
 8003264:	79fb      	ldrb	r3, [r7, #7]
 8003266:	f003 030f 	and.w	r3, r3, #15
 800326a:	3b04      	subs	r3, #4
 800326c:	0112      	lsls	r2, r2, #4
 800326e:	b2d2      	uxtb	r2, r2
 8003270:	440b      	add	r3, r1
 8003272:	761a      	strb	r2, [r3, #24]
 8003274:	bf00      	nop
 8003276:	370c      	adds	r7, #12
 8003278:	46bd      	mov	sp, r7
 800327a:	f85d 7b04 	ldr.w	r7, [sp], #4
 800327e:	4770      	bx	lr
 8003280:	e000e100 	.word	0xe000e100
 8003284:	e000ed00 	.word	0xe000ed00

08003288 <NVIC_EncodePriority>:
 8003288:	b480      	push	{r7}
 800328a:	b089      	sub	sp, #36	@ 0x24
 800328c:	af00      	add	r7, sp, #0
 800328e:	60f8      	str	r0, [r7, #12]
 8003290:	60b9      	str	r1, [r7, #8]
 8003292:	607a      	str	r2, [r7, #4]
 8003294:	68fb      	ldr	r3, [r7, #12]
 8003296:	f003 0307 	and.w	r3, r3, #7
 800329a:	61fb      	str	r3, [r7, #28]
 800329c:	69fb      	ldr	r3, [r7, #28]
 800329e:	f1c3 0307 	rsb	r3, r3, #7
 80032a2:	2b04      	cmp	r3, #4
 80032a4:	bf28      	it	cs
 80032a6:	2304      	movcs	r3, #4
 80032a8:	61bb      	str	r3, [r7, #24]
 80032aa:	69fb      	ldr	r3, [r7, #28]
 80032ac:	3304      	adds	r3, #4
 80032ae:	2b06      	cmp	r3, #6
 80032b0:	d902      	bls.n	80032b8 <NVIC_EncodePriority+0x30>
 80032b2:	69fb      	ldr	r3, [r7, #28]
 80032b4:	3b03      	subs	r3, #3
 80032b6:	e000      	b.n	80032ba <NVIC_EncodePriority+0x32>
 80032b8:	2300      	movs	r3, #0
 80032ba:	617b      	str	r3, [r7, #20]
 80032bc:	f04f 32ff 	mov.w	r2, #4294967295
 80032c0:	69bb      	ldr	r3, [r7, #24]
 80032c2:	fa02 f303 	lsl.w	r3, r2, r3
 80032c6:	43da      	mvns	r2, r3
 80032c8:	68bb      	ldr	r3, [r7, #8]
 80032ca:	401a      	ands	r2, r3
 80032cc:	697b      	ldr	r3, [r7, #20]
 80032ce:	409a      	lsls	r2, r3
 80032d0:	f04f 31ff 	mov.w	r1, #4294967295
 80032d4:	697b      	ldr	r3, [r7, #20]
 80032d6:	fa01 f303 	lsl.w	r3, r1, r3
 80032da:	43d9      	mvns	r1, r3
 80032dc:	687b      	ldr	r3, [r7, #4]
 80032de:	400b      	ands	r3, r1
 80032e0:	4313      	orrs	r3, r2
 80032e2:	4618      	mov	r0, r3
 80032e4:	3724      	adds	r7, #36	@ 0x24
 80032e6:	46bd      	mov	sp, r7
 80032e8:	f85d 7b04 	ldr.w	r7, [sp], #4
 80032ec:	4770      	bx	lr
	...

080032f0 <SysTick_Config>:
 80032f0:	b580      	push	{r7, lr}
 80032f2:	b082      	sub	sp, #8
 80032f4:	af00      	add	r7, sp, #0
 80032f6:	6078      	str	r0, [r7, #4]
 80032f8:	687b      	ldr	r3, [r7, #4]
 80032fa:	3b01      	subs	r3, #1
 80032fc:	f1b3 7f80 	cmp.w	r3, #16777216	@ 0x1000000
 8003300:	d301      	bcc.n	8003306 <SysTick_Config+0x16>
 8003302:	2301      	movs	r3, #1
 8003304:	e00f      	b.n	8003326 <SysTick_Config+0x36>
 8003306:	4a0a      	ldr	r2, [pc, #40]	@ (8003330 <SysTick_Config+0x40>)
 8003308:	687b      	ldr	r3, [r7, #4]
 800330a:	3b01      	subs	r3, #1
 800330c:	6053      	str	r3, [r2, #4]
 800330e:	210f      	movs	r1, #15
 8003310:	f04f 30ff 	mov.w	r0, #4294967295
 8003314:	f7ff ff8e 	bl	8003234 <__NVIC_SetPriority>
 8003318:	4b05      	ldr	r3, [pc, #20]	@ (8003330 <SysTick_Config+0x40>)
 800331a:	2200      	movs	r2, #0
 800331c:	609a      	str	r2, [r3, #8]
 800331e:	4b04      	ldr	r3, [pc, #16]	@ (8003330 <SysTick_Config+0x40>)
 8003320:	2207      	movs	r2, #7
 8003322:	601a      	str	r2, [r3, #0]
 8003324:	2300      	movs	r3, #0
 8003326:	4618      	mov	r0, r3
 8003328:	3708      	adds	r7, #8
 800332a:	46bd      	mov	sp, r7
 800332c:	bd80      	pop	{r7, pc}
 800332e:	bf00      	nop
 8003330:	e000e010 	.word	0xe000e010

08003334 <HAL_NVIC_SetPriorityGrouping>:
 8003334:	b580      	push	{r7, lr}
 8003336:	b082      	sub	sp, #8
 8003338:	af00      	add	r7, sp, #0
 800333a:	6078      	str	r0, [r7, #4]
 800333c:	6878      	ldr	r0, [r7, #4]
 800333e:	f7ff ff29 	bl	8003194 <__NVIC_SetPriorityGrouping>
 8003342:	bf00      	nop
 8003344:	3708      	adds	r7, #8
 8003346:	46bd      	mov	sp, r7
 8003348:	bd80      	pop	{r7, pc}

0800334a <HAL_NVIC_SetPriority>:
 800334a:	b580      	push	{r7, lr}
 800334c:	b086      	sub	sp, #24
 800334e:	af00      	add	r7, sp, #0
 8003350:	4603      	mov	r3, r0
 8003352:	60b9      	str	r1, [r7, #8]
 8003354:	607a      	str	r2, [r7, #4]
 8003356:	73fb      	strb	r3, [r7, #15]
 8003358:	2300      	movs	r3, #0
 800335a:	617b      	str	r3, [r7, #20]
 800335c:	f7ff ff3e 	bl	80031dc <__NVIC_GetPriorityGrouping>
 8003360:	6178      	str	r0, [r7, #20]
 8003362:	687a      	ldr	r2, [r7, #4]
 8003364:	68b9      	ldr	r1, [r7, #8]
 8003366:	6978      	ldr	r0, [r7, #20]
 8003368:	f7ff ff8e 	bl	8003288 <NVIC_EncodePriority>
 800336c:	4602      	mov	r2, r0
 800336e:	f997 300f 	ldrsb.w	r3, [r7, #15]
 8003372:	4611      	mov	r1, r2
 8003374:	4618      	mov	r0, r3
 8003376:	f7ff ff5d 	bl	8003234 <__NVIC_SetPriority>
 800337a:	bf00      	nop
 800337c:	3718      	adds	r7, #24
 800337e:	46bd      	mov	sp, r7
 8003380:	bd80      	pop	{r7, pc}

08003382 <HAL_NVIC_EnableIRQ>:
 8003382:	b580      	push	{r7, lr}
 8003384:	b082      	sub	sp, #8
 8003386:	af00      	add	r7, sp, #0
 8003388:	4603      	mov	r3, r0
 800338a:	71fb      	strb	r3, [r7, #7]
 800338c:	f997 3007 	ldrsb.w	r3, [r7, #7]
 8003390:	4618      	mov	r0, r3
 8003392:	f7ff ff31 	bl	80031f8 <__NVIC_EnableIRQ>
 8003396:	bf00      	nop
 8003398:	3708      	adds	r7, #8
 800339a:	46bd      	mov	sp, r7
 800339c:	bd80      	pop	{r7, pc}

0800339e <HAL_SYSTICK_Config>:
 800339e:	b580      	push	{r7, lr}
 80033a0:	b082      	sub	sp, #8
 80033a2:	af00      	add	r7, sp, #0
 80033a4:	6078      	str	r0, [r7, #4]
 80033a6:	6878      	ldr	r0, [r7, #4]
 80033a8:	f7ff ffa2 	bl	80032f0 <SysTick_Config>
 80033ac:	4603      	mov	r3, r0
 80033ae:	4618      	mov	r0, r3
 80033b0:	3708      	adds	r7, #8
 80033b2:	46bd      	mov	sp, r7
 80033b4:	bd80      	pop	{r7, pc}
	...

080033b8 <HAL_ETH_Init>:
 80033b8:	b580      	push	{r7, lr}
 80033ba:	b084      	sub	sp, #16
 80033bc:	af00      	add	r7, sp, #0
 80033be:	6078      	str	r0, [r7, #4]
 80033c0:	687b      	ldr	r3, [r7, #4]
 80033c2:	2b00      	cmp	r3, #0
 80033c4:	d101      	bne.n	80033ca <HAL_ETH_Init+0x12>
 80033c6:	2301      	movs	r3, #1
 80033c8:	e086      	b.n	80034d8 <HAL_ETH_Init+0x120>
 80033ca:	687b      	ldr	r3, [r7, #4]
 80033cc:	f8d3 3084 	ldr.w	r3, [r3, #132]	@ 0x84
 80033d0:	2b00      	cmp	r3, #0
 80033d2:	d106      	bne.n	80033e2 <HAL_ETH_Init+0x2a>
 80033d4:	687b      	ldr	r3, [r7, #4]
 80033d6:	2223      	movs	r2, #35	@ 0x23
 80033d8:	f8c3 2084 	str.w	r2, [r3, #132]	@ 0x84
 80033dc:	6878      	ldr	r0, [r7, #4]
 80033de:	f7fe ff35 	bl	800224c <HAL_ETH_MspInit>
 80033e2:	4b3f      	ldr	r3, [pc, #252]	@ (80034e0 <HAL_ETH_Init+0x128>)
 80033e4:	6c5b      	ldr	r3, [r3, #68]	@ 0x44
 80033e6:	4a3e      	ldr	r2, [pc, #248]	@ (80034e0 <HAL_ETH_Init+0x128>)
 80033e8:	f443 4380 	orr.w	r3, r3, #16384	@ 0x4000
 80033ec:	6453      	str	r3, [r2, #68]	@ 0x44
 80033ee:	4b3c      	ldr	r3, [pc, #240]	@ (80034e0 <HAL_ETH_Init+0x128>)
 80033f0:	6c5b      	ldr	r3, [r3, #68]	@ 0x44
 80033f2:	f403 4380 	and.w	r3, r3, #16384	@ 0x4000
 80033f6:	60bb      	str	r3, [r7, #8]
 80033f8:	68bb      	ldr	r3, [r7, #8]
 80033fa:	4b3a      	ldr	r3, [pc, #232]	@ (80034e4 <HAL_ETH_Init+0x12c>)
 80033fc:	685b      	ldr	r3, [r3, #4]
 80033fe:	4a39      	ldr	r2, [pc, #228]	@ (80034e4 <HAL_ETH_Init+0x12c>)
 8003400:	f423 0300 	bic.w	r3, r3, #8388608	@ 0x800000
 8003404:	6053      	str	r3, [r2, #4]
 8003406:	4b37      	ldr	r3, [pc, #220]	@ (80034e4 <HAL_ETH_Init+0x12c>)
 8003408:	685a      	ldr	r2, [r3, #4]
 800340a:	687b      	ldr	r3, [r7, #4]
 800340c:	689b      	ldr	r3, [r3, #8]
 800340e:	4935      	ldr	r1, [pc, #212]	@ (80034e4 <HAL_ETH_Init+0x12c>)
 8003410:	4313      	orrs	r3, r2
 8003412:	604b      	str	r3, [r1, #4]
 8003414:	4b33      	ldr	r3, [pc, #204]	@ (80034e4 <HAL_ETH_Init+0x12c>)
 8003416:	685b      	ldr	r3, [r3, #4]
 8003418:	687b      	ldr	r3, [r7, #4]
 800341a:	681b      	ldr	r3, [r3, #0]
 800341c:	f503 5380 	add.w	r3, r3, #4096	@ 0x1000
 8003420:	681b      	ldr	r3, [r3, #0]
 8003422:	687a      	ldr	r2, [r7, #4]
 8003424:	6812      	ldr	r2, [r2, #0]
 8003426:	f043 0301 	orr.w	r3, r3, #1
 800342a:	f502 5280 	add.w	r2, r2, #4096	@ 0x1000
 800342e:	6013      	str	r3, [r2, #0]
 8003430:	f7ff fe80 	bl	8003134 <HAL_GetTick>
 8003434:	60f8      	str	r0, [r7, #12]
 8003436:	e011      	b.n	800345c <HAL_ETH_Init+0xa4>
 8003438:	f7ff fe7c 	bl	8003134 <HAL_GetTick>
 800343c:	4602      	mov	r2, r0
 800343e:	68fb      	ldr	r3, [r7, #12]
 8003440:	1ad3      	subs	r3, r2, r3
 8003442:	f5b3 7ffa 	cmp.w	r3, #500	@ 0x1f4
 8003446:	d909      	bls.n	800345c <HAL_ETH_Init+0xa4>
 8003448:	687b      	ldr	r3, [r7, #4]
 800344a:	2204      	movs	r2, #4
 800344c:	f8c3 2088 	str.w	r2, [r3, #136]	@ 0x88
 8003450:	687b      	ldr	r3, [r7, #4]
 8003452:	22e0      	movs	r2, #224	@ 0xe0
 8003454:	f8c3 2084 	str.w	r2, [r3, #132]	@ 0x84
 8003458:	2301      	movs	r3, #1
 800345a:	e03d      	b.n	80034d8 <HAL_ETH_Init+0x120>
 800345c:	687b      	ldr	r3, [r7, #4]
 800345e:	681b      	ldr	r3, [r3, #0]
 8003460:	f503 5380 	add.w	r3, r3, #4096	@ 0x1000
 8003464:	681b      	ldr	r3, [r3, #0]
 8003466:	f003 0301 	and.w	r3, r3, #1
 800346a:	2b00      	cmp	r3, #0
 800346c:	d1e4      	bne.n	8003438 <HAL_ETH_Init+0x80>
 800346e:	6878      	ldr	r0, [r7, #4]
 8003470:	f000 f97a 	bl	8003768 <ETH_MACDMAConfig>
 8003474:	6878      	ldr	r0, [r7, #4]
 8003476:	f000 fa25 	bl	80038c4 <ETH_DMATxDescListInit>
 800347a:	6878      	ldr	r0, [r7, #4]
 800347c:	f000 fa7b 	bl	8003976 <ETH_DMARxDescListInit>
 8003480:	687b      	ldr	r3, [r7, #4]
 8003482:	685b      	ldr	r3, [r3, #4]
 8003484:	461a      	mov	r2, r3
 8003486:	2100      	movs	r1, #0
 8003488:	6878      	ldr	r0, [r7, #4]
 800348a:	f000 f9e3 	bl	8003854 <ETH_MACAddressConfig>
 800348e:	687b      	ldr	r3, [r7, #4]
 8003490:	681b      	ldr	r3, [r3, #0]
 8003492:	6bda      	ldr	r2, [r3, #60]	@ 0x3c
 8003494:	687b      	ldr	r3, [r7, #4]
 8003496:	681b      	ldr	r3, [r3, #0]
 8003498:	f442 7202 	orr.w	r2, r2, #520	@ 0x208
 800349c:	63da      	str	r2, [r3, #60]	@ 0x3c
 800349e:	687b      	ldr	r3, [r7, #4]
 80034a0:	681b      	ldr	r3, [r3, #0]
 80034a2:	f8d3 110c 	ldr.w	r1, [r3, #268]	@ 0x10c
 80034a6:	687b      	ldr	r3, [r7, #4]
 80034a8:	681a      	ldr	r2, [r3, #0]
 80034aa:	4b0f      	ldr	r3, [pc, #60]	@ (80034e8 <HAL_ETH_Init+0x130>)
 80034ac:	430b      	orrs	r3, r1
 80034ae:	f8c2 310c 	str.w	r3, [r2, #268]	@ 0x10c
 80034b2:	687b      	ldr	r3, [r7, #4]
 80034b4:	681b      	ldr	r3, [r3, #0]
 80034b6:	f8d3 2110 	ldr.w	r2, [r3, #272]	@ 0x110
 80034ba:	687b      	ldr	r3, [r7, #4]
 80034bc:	681b      	ldr	r3, [r3, #0]
 80034be:	f442 1203 	orr.w	r2, r2, #2146304	@ 0x20c000
 80034c2:	f8c3 2110 	str.w	r2, [r3, #272]	@ 0x110
 80034c6:	687b      	ldr	r3, [r7, #4]
 80034c8:	2200      	movs	r2, #0
 80034ca:	f8c3 2088 	str.w	r2, [r3, #136]	@ 0x88
 80034ce:	687b      	ldr	r3, [r7, #4]
 80034d0:	2210      	movs	r2, #16
 80034d2:	f8c3 2084 	str.w	r2, [r3, #132]	@ 0x84
 80034d6:	2300      	movs	r3, #0
 80034d8:	4618      	mov	r0, r3
 80034da:	3710      	adds	r7, #16
 80034dc:	46bd      	mov	sp, r7
 80034de:	bd80      	pop	{r7, pc}
 80034e0:	40023800 	.word	0x40023800
 80034e4:	40013800 	.word	0x40013800
 80034e8:	00020060 	.word	0x00020060

080034ec <ETH_SetMACConfig>:
 80034ec:	b580      	push	{r7, lr}
 80034ee:	b084      	sub	sp, #16
 80034f0:	af00      	add	r7, sp, #0
 80034f2:	6078      	str	r0, [r7, #4]
 80034f4:	6039      	str	r1, [r7, #0]
 80034f6:	687b      	ldr	r3, [r7, #4]
 80034f8:	681b      	ldr	r3, [r3, #0]
 80034fa:	681b      	ldr	r3, [r3, #0]
 80034fc:	60fb      	str	r3, [r7, #12]
 80034fe:	68fa      	ldr	r2, [r7, #12]
 8003500:	4b53      	ldr	r3, [pc, #332]	@ (8003650 <ETH_SetMACConfig+0x164>)
 8003502:	4013      	ands	r3, r2
 8003504:	60fb      	str	r3, [r7, #12]
 8003506:	683b      	ldr	r3, [r7, #0]
 8003508:	7b9b      	ldrb	r3, [r3, #14]
 800350a:	065b      	lsls	r3, r3, #25
 800350c:	683a      	ldr	r2, [r7, #0]
 800350e:	7c12      	ldrb	r2, [r2, #16]
 8003510:	2a00      	cmp	r2, #0
 8003512:	d102      	bne.n	800351a <ETH_SetMACConfig+0x2e>
 8003514:	f44f 0200 	mov.w	r2, #8388608	@ 0x800000
 8003518:	e000      	b.n	800351c <ETH_SetMACConfig+0x30>
 800351a:	2200      	movs	r2, #0
 800351c:	4313      	orrs	r3, r2
 800351e:	683a      	ldr	r2, [r7, #0]
 8003520:	7c52      	ldrb	r2, [r2, #17]
 8003522:	2a00      	cmp	r2, #0
 8003524:	d102      	bne.n	800352c <ETH_SetMACConfig+0x40>
 8003526:	f44f 0280 	mov.w	r2, #4194304	@ 0x400000
 800352a:	e000      	b.n	800352e <ETH_SetMACConfig+0x42>
 800352c:	2200      	movs	r2, #0
 800352e:	431a      	orrs	r2, r3
 8003530:	683b      	ldr	r3, [r7, #0]
 8003532:	689b      	ldr	r3, [r3, #8]
 8003534:	431a      	orrs	r2, r3
 8003536:	683b      	ldr	r3, [r7, #0]
 8003538:	7fdb      	ldrb	r3, [r3, #31]
 800353a:	041b      	lsls	r3, r3, #16
 800353c:	431a      	orrs	r2, r3
 800353e:	683b      	ldr	r3, [r7, #0]
 8003540:	695b      	ldr	r3, [r3, #20]
 8003542:	4313      	orrs	r3, r2
 8003544:	683a      	ldr	r2, [r7, #0]
 8003546:	7f92      	ldrb	r2, [r2, #30]
 8003548:	2a00      	cmp	r2, #0
 800354a:	d102      	bne.n	8003552 <ETH_SetMACConfig+0x66>
 800354c:	f44f 5200 	mov.w	r2, #8192	@ 0x2000
 8003550:	e000      	b.n	8003554 <ETH_SetMACConfig+0x68>
 8003552:	2200      	movs	r2, #0
 8003554:	431a      	orrs	r2, r3
 8003556:	683b      	ldr	r3, [r7, #0]
 8003558:	7f1b      	ldrb	r3, [r3, #28]
 800355a:	031b      	lsls	r3, r3, #12
 800355c:	431a      	orrs	r2, r3
 800355e:	683b      	ldr	r3, [r7, #0]
 8003560:	699b      	ldr	r3, [r3, #24]
 8003562:	431a      	orrs	r2, r3
 8003564:	683b      	ldr	r3, [r7, #0]
 8003566:	791b      	ldrb	r3, [r3, #4]
 8003568:	029b      	lsls	r3, r3, #10
 800356a:	4313      	orrs	r3, r2
 800356c:	683a      	ldr	r2, [r7, #0]
 800356e:	f892 2020 	ldrb.w	r2, [r2, #32]
 8003572:	2a00      	cmp	r2, #0
 8003574:	d102      	bne.n	800357c <ETH_SetMACConfig+0x90>
 8003576:	f44f 7200 	mov.w	r2, #512	@ 0x200
 800357a:	e000      	b.n	800357e <ETH_SetMACConfig+0x92>
 800357c:	2200      	movs	r2, #0
 800357e:	431a      	orrs	r2, r3
 8003580:	683b      	ldr	r3, [r7, #0]
 8003582:	7bdb      	ldrb	r3, [r3, #15]
 8003584:	01db      	lsls	r3, r3, #7
 8003586:	431a      	orrs	r2, r3
 8003588:	683b      	ldr	r3, [r7, #0]
 800358a:	6a5b      	ldr	r3, [r3, #36]	@ 0x24
 800358c:	431a      	orrs	r2, r3
 800358e:	683b      	ldr	r3, [r7, #0]
 8003590:	f893 3028 	ldrb.w	r3, [r3, #40]	@ 0x28
 8003594:	011b      	lsls	r3, r3, #4
 8003596:	4313      	orrs	r3, r2
 8003598:	68fa      	ldr	r2, [r7, #12]
 800359a:	4313      	orrs	r3, r2
 800359c:	60fb      	str	r3, [r7, #12]
 800359e:	687b      	ldr	r3, [r7, #4]
 80035a0:	681b      	ldr	r3, [r3, #0]
 80035a2:	68fa      	ldr	r2, [r7, #12]
 80035a4:	601a      	str	r2, [r3, #0]
 80035a6:	687b      	ldr	r3, [r7, #4]
 80035a8:	681b      	ldr	r3, [r3, #0]
 80035aa:	681b      	ldr	r3, [r3, #0]
 80035ac:	60fb      	str	r3, [r7, #12]
 80035ae:	2001      	movs	r0, #1
 80035b0:	f7ff fdcc 	bl	800314c <HAL_Delay>
 80035b4:	687b      	ldr	r3, [r7, #4]
 80035b6:	681b      	ldr	r3, [r3, #0]
 80035b8:	68fa      	ldr	r2, [r7, #12]
 80035ba:	601a      	str	r2, [r3, #0]
 80035bc:	687b      	ldr	r3, [r7, #4]
 80035be:	681b      	ldr	r3, [r3, #0]
 80035c0:	699b      	ldr	r3, [r3, #24]
 80035c2:	60fb      	str	r3, [r7, #12]
 80035c4:	68fa      	ldr	r2, [r7, #12]
 80035c6:	f64f 7341 	movw	r3, #65345	@ 0xff41
 80035ca:	4013      	ands	r3, r2
 80035cc:	60fb      	str	r3, [r7, #12]
 80035ce:	683b      	ldr	r3, [r7, #0]
 80035d0:	6c9b      	ldr	r3, [r3, #72]	@ 0x48
 80035d2:	041b      	lsls	r3, r3, #16
 80035d4:	683a      	ldr	r2, [r7, #0]
 80035d6:	f892 204c 	ldrb.w	r2, [r2, #76]	@ 0x4c
 80035da:	2a00      	cmp	r2, #0
 80035dc:	d101      	bne.n	80035e2 <ETH_SetMACConfig+0xf6>
 80035de:	2280      	movs	r2, #128	@ 0x80
 80035e0:	e000      	b.n	80035e4 <ETH_SetMACConfig+0xf8>
 80035e2:	2200      	movs	r2, #0
 80035e4:	431a      	orrs	r2, r3
 80035e6:	683b      	ldr	r3, [r7, #0]
 80035e8:	6d1b      	ldr	r3, [r3, #80]	@ 0x50
 80035ea:	4313      	orrs	r3, r2
 80035ec:	683a      	ldr	r2, [r7, #0]
 80035ee:	f892 2055 	ldrb.w	r2, [r2, #85]	@ 0x55
 80035f2:	2a01      	cmp	r2, #1
 80035f4:	d101      	bne.n	80035fa <ETH_SetMACConfig+0x10e>
 80035f6:	2208      	movs	r2, #8
 80035f8:	e000      	b.n	80035fc <ETH_SetMACConfig+0x110>
 80035fa:	2200      	movs	r2, #0
 80035fc:	4313      	orrs	r3, r2
 80035fe:	683a      	ldr	r2, [r7, #0]
 8003600:	f892 2056 	ldrb.w	r2, [r2, #86]	@ 0x56
 8003604:	2a01      	cmp	r2, #1
 8003606:	d101      	bne.n	800360c <ETH_SetMACConfig+0x120>
 8003608:	2204      	movs	r2, #4
 800360a:	e000      	b.n	800360e <ETH_SetMACConfig+0x122>
 800360c:	2200      	movs	r2, #0
 800360e:	4313      	orrs	r3, r2
 8003610:	683a      	ldr	r2, [r7, #0]
 8003612:	f892 2054 	ldrb.w	r2, [r2, #84]	@ 0x54
 8003616:	2a01      	cmp	r2, #1
 8003618:	d101      	bne.n	800361e <ETH_SetMACConfig+0x132>
 800361a:	2202      	movs	r2, #2
 800361c:	e000      	b.n	8003620 <ETH_SetMACConfig+0x134>
 800361e:	2200      	movs	r2, #0
 8003620:	4313      	orrs	r3, r2
 8003622:	68fa      	ldr	r2, [r7, #12]
 8003624:	4313      	orrs	r3, r2
 8003626:	60fb      	str	r3, [r7, #12]
 8003628:	687b      	ldr	r3, [r7, #4]
 800362a:	681b      	ldr	r3, [r3, #0]
 800362c:	68fa      	ldr	r2, [r7, #12]
 800362e:	619a      	str	r2, [r3, #24]
 8003630:	687b      	ldr	r3, [r7, #4]
 8003632:	681b      	ldr	r3, [r3, #0]
 8003634:	699b      	ldr	r3, [r3, #24]
 8003636:	60fb      	str	r3, [r7, #12]
 8003638:	2001      	movs	r0, #1
 800363a:	f7ff fd87 	bl	800314c <HAL_Delay>
 800363e:	687b      	ldr	r3, [r7, #4]
 8003640:	681b      	ldr	r3, [r3, #0]
 8003642:	68fa      	ldr	r2, [r7, #12]
 8003644:	619a      	str	r2, [r3, #24]
 8003646:	bf00      	nop
 8003648:	3710      	adds	r7, #16
 800364a:	46bd      	mov	sp, r7
 800364c:	bd80      	pop	{r7, pc}
 800364e:	bf00      	nop
 8003650:	fd20810f 	.word	0xfd20810f

08003654 <ETH_SetDMAConfig>:
 8003654:	b580      	push	{r7, lr}
 8003656:	b084      	sub	sp, #16
 8003658:	af00      	add	r7, sp, #0
 800365a:	6078      	str	r0, [r7, #4]
 800365c:	6039      	str	r1, [r7, #0]
 800365e:	687b      	ldr	r3, [r7, #4]
 8003660:	681b      	ldr	r3, [r3, #0]
 8003662:	f503 5380 	add.w	r3, r3, #4096	@ 0x1000
 8003666:	699b      	ldr	r3, [r3, #24]
 8003668:	60fb      	str	r3, [r7, #12]
 800366a:	68fa      	ldr	r2, [r7, #12]
 800366c:	4b3d      	ldr	r3, [pc, #244]	@ (8003764 <ETH_SetDMAConfig+0x110>)
 800366e:	4013      	ands	r3, r2
 8003670:	60fb      	str	r3, [r7, #12]
 8003672:	683b      	ldr	r3, [r7, #0]
 8003674:	7b1b      	ldrb	r3, [r3, #12]
 8003676:	2b00      	cmp	r3, #0
 8003678:	d102      	bne.n	8003680 <ETH_SetDMAConfig+0x2c>
 800367a:	f04f 6280 	mov.w	r2, #67108864	@ 0x4000000
 800367e:	e000      	b.n	8003682 <ETH_SetDMAConfig+0x2e>
 8003680:	2200      	movs	r2, #0
 8003682:	683b      	ldr	r3, [r7, #0]
 8003684:	7b5b      	ldrb	r3, [r3, #13]
 8003686:	065b      	lsls	r3, r3, #25
 8003688:	4313      	orrs	r3, r2
 800368a:	683a      	ldr	r2, [r7, #0]
 800368c:	7f52      	ldrb	r2, [r2, #29]
 800368e:	2a00      	cmp	r2, #0
 8003690:	d102      	bne.n	8003698 <ETH_SetDMAConfig+0x44>
 8003692:	f44f 1280 	mov.w	r2, #1048576	@ 0x100000
 8003696:	e000      	b.n	800369a <ETH_SetDMAConfig+0x46>
 8003698:	2200      	movs	r2, #0
 800369a:	431a      	orrs	r2, r3
 800369c:	683b      	ldr	r3, [r7, #0]
 800369e:	7b9b      	ldrb	r3, [r3, #14]
 80036a0:	055b      	lsls	r3, r3, #21
 80036a2:	431a      	orrs	r2, r3
 80036a4:	683b      	ldr	r3, [r7, #0]
 80036a6:	695b      	ldr	r3, [r3, #20]
 80036a8:	431a      	orrs	r2, r3
 80036aa:	683b      	ldr	r3, [r7, #0]
 80036ac:	7f1b      	ldrb	r3, [r3, #28]
 80036ae:	01db      	lsls	r3, r3, #7
 80036b0:	431a      	orrs	r2, r3
 80036b2:	683b      	ldr	r3, [r7, #0]
 80036b4:	7f9b      	ldrb	r3, [r3, #30]
 80036b6:	019b      	lsls	r3, r3, #6
 80036b8:	431a      	orrs	r2, r3
 80036ba:	683b      	ldr	r3, [r7, #0]
 80036bc:	6a1b      	ldr	r3, [r3, #32]
 80036be:	431a      	orrs	r2, r3
 80036c0:	683b      	ldr	r3, [r7, #0]
 80036c2:	f893 3024 	ldrb.w	r3, [r3, #36]	@ 0x24
 80036c6:	009b      	lsls	r3, r3, #2
 80036c8:	4313      	orrs	r3, r2
 80036ca:	68fa      	ldr	r2, [r7, #12]
 80036cc:	4313      	orrs	r3, r2
 80036ce:	60fb      	str	r3, [r7, #12]
 80036d0:	687b      	ldr	r3, [r7, #4]
 80036d2:	681b      	ldr	r3, [r3, #0]
 80036d4:	f503 5380 	add.w	r3, r3, #4096	@ 0x1000
 80036d8:	461a      	mov	r2, r3
 80036da:	68fb      	ldr	r3, [r7, #12]
 80036dc:	6193      	str	r3, [r2, #24]
 80036de:	687b      	ldr	r3, [r7, #4]
 80036e0:	681b      	ldr	r3, [r3, #0]
 80036e2:	f503 5380 	add.w	r3, r3, #4096	@ 0x1000
 80036e6:	699b      	ldr	r3, [r3, #24]
 80036e8:	60fb      	str	r3, [r7, #12]
 80036ea:	2001      	movs	r0, #1
 80036ec:	f7ff fd2e 	bl	800314c <HAL_Delay>
 80036f0:	687b      	ldr	r3, [r7, #4]
 80036f2:	681b      	ldr	r3, [r3, #0]
 80036f4:	f503 5380 	add.w	r3, r3, #4096	@ 0x1000
 80036f8:	461a      	mov	r2, r3
 80036fa:	68fb      	ldr	r3, [r7, #12]
 80036fc:	6193      	str	r3, [r2, #24]
 80036fe:	683b      	ldr	r3, [r7, #0]
 8003700:	791b      	ldrb	r3, [r3, #4]
 8003702:	065a      	lsls	r2, r3, #25
 8003704:	683b      	ldr	r3, [r7, #0]
 8003706:	689b      	ldr	r3, [r3, #8]
 8003708:	431a      	orrs	r2, r3
 800370a:	683b      	ldr	r3, [r7, #0]
 800370c:	699b      	ldr	r3, [r3, #24]
 800370e:	431a      	orrs	r2, r3
 8003710:	683b      	ldr	r3, [r7, #0]
 8003712:	691b      	ldr	r3, [r3, #16]
 8003714:	431a      	orrs	r2, r3
 8003716:	683b      	ldr	r3, [r7, #0]
 8003718:	f893 3025 	ldrb.w	r3, [r3, #37]	@ 0x25
 800371c:	01db      	lsls	r3, r3, #7
 800371e:	431a      	orrs	r2, r3
 8003720:	683b      	ldr	r3, [r7, #0]
 8003722:	6a9b      	ldr	r3, [r3, #40]	@ 0x28
 8003724:	009b      	lsls	r3, r3, #2
 8003726:	431a      	orrs	r2, r3
 8003728:	683b      	ldr	r3, [r7, #0]
 800372a:	681b      	ldr	r3, [r3, #0]
 800372c:	4313      	orrs	r3, r2
 800372e:	687a      	ldr	r2, [r7, #4]
 8003730:	6812      	ldr	r2, [r2, #0]
 8003732:	f443 0300 	orr.w	r3, r3, #8388608	@ 0x800000
 8003736:	f502 5280 	add.w	r2, r2, #4096	@ 0x1000
 800373a:	6013      	str	r3, [r2, #0]
 800373c:	687b      	ldr	r3, [r7, #4]
 800373e:	681b      	ldr	r3, [r3, #0]
 8003740:	f503 5380 	add.w	r3, r3, #4096	@ 0x1000
 8003744:	681b      	ldr	r3, [r3, #0]
 8003746:	60fb      	str	r3, [r7, #12]
 8003748:	2001      	movs	r0, #1
 800374a:	f7ff fcff 	bl	800314c <HAL_Delay>
 800374e:	687b      	ldr	r3, [r7, #4]
 8003750:	681b      	ldr	r3, [r3, #0]
 8003752:	f503 5380 	add.w	r3, r3, #4096	@ 0x1000
 8003756:	461a      	mov	r2, r3
 8003758:	68fb      	ldr	r3, [r7, #12]
 800375a:	6013      	str	r3, [r2, #0]
 800375c:	bf00      	nop
 800375e:	3710      	adds	r7, #16
 8003760:	46bd      	mov	sp, r7
 8003762:	bd80      	pop	{r7, pc}
 8003764:	f8de3f23 	.word	0xf8de3f23

08003768 <ETH_MACDMAConfig>:
 8003768:	b580      	push	{r7, lr}
 800376a:	b0a6      	sub	sp, #152	@ 0x98
 800376c:	af00      	add	r7, sp, #0
 800376e:	6078      	str	r0, [r7, #4]
 8003770:	2301      	movs	r3, #1
 8003772:	f887 3044 	strb.w	r3, [r7, #68]	@ 0x44
 8003776:	2301      	movs	r3, #1
 8003778:	f887 3045 	strb.w	r3, [r7, #69]	@ 0x45
 800377c:	2300      	movs	r3, #0
 800377e:	63fb      	str	r3, [r7, #60]	@ 0x3c
 8003780:	2300      	movs	r3, #0
 8003782:	f887 3053 	strb.w	r3, [r7, #83]	@ 0x53
 8003786:	2301      	movs	r3, #1
 8003788:	f887 3052 	strb.w	r3, [r7, #82]	@ 0x52
 800378c:	2300      	movs	r3, #0
 800378e:	f887 3050 	strb.w	r3, [r7, #80]	@ 0x50
 8003792:	2301      	movs	r3, #1
 8003794:	f887 3042 	strb.w	r3, [r7, #66]	@ 0x42
 8003798:	2301      	movs	r3, #1
 800379a:	f887 3038 	strb.w	r3, [r7, #56]	@ 0x38
 800379e:	2300      	movs	r3, #0
 80037a0:	f887 3054 	strb.w	r3, [r7, #84]	@ 0x54
 80037a4:	2300      	movs	r3, #0
 80037a6:	f887 3043 	strb.w	r3, [r7, #67]	@ 0x43
 80037aa:	2300      	movs	r3, #0
 80037ac:	65bb      	str	r3, [r7, #88]	@ 0x58
 80037ae:	2300      	movs	r3, #0
 80037b0:	f887 305c 	strb.w	r3, [r7, #92]	@ 0x5c
 80037b4:	2300      	movs	r3, #0
 80037b6:	67fb      	str	r3, [r7, #124]	@ 0x7c
 80037b8:	2300      	movs	r3, #0
 80037ba:	f887 3080 	strb.w	r3, [r7, #128]	@ 0x80
 80037be:	2300      	movs	r3, #0
 80037c0:	f8c7 3084 	str.w	r3, [r7, #132]	@ 0x84
 80037c4:	2300      	movs	r3, #0
 80037c6:	f887 308a 	strb.w	r3, [r7, #138]	@ 0x8a
 80037ca:	2300      	movs	r3, #0
 80037cc:	f887 3088 	strb.w	r3, [r7, #136]	@ 0x88
 80037d0:	f44f 4380 	mov.w	r3, #16384	@ 0x4000
 80037d4:	64bb      	str	r3, [r7, #72]	@ 0x48
 80037d6:	f44f 6300 	mov.w	r3, #2048	@ 0x800
 80037da:	64fb      	str	r3, [r7, #76]	@ 0x4c
 80037dc:	2300      	movs	r3, #0
 80037de:	f887 3089 	strb.w	r3, [r7, #137]	@ 0x89
 80037e2:	f107 0334 	add.w	r3, r7, #52	@ 0x34
 80037e6:	4619      	mov	r1, r3
 80037e8:	6878      	ldr	r0, [r7, #4]
 80037ea:	f7ff fe7f 	bl	80034ec <ETH_SetMACConfig>
 80037ee:	2301      	movs	r3, #1
 80037f0:	753b      	strb	r3, [r7, #20]
 80037f2:	2301      	movs	r3, #1
 80037f4:	757b      	strb	r3, [r7, #21]
 80037f6:	2301      	movs	r3, #1
 80037f8:	f887 3025 	strb.w	r3, [r7, #37]	@ 0x25
 80037fc:	2301      	movs	r3, #1
 80037fe:	75bb      	strb	r3, [r7, #22]
 8003800:	2300      	movs	r3, #0
 8003802:	61fb      	str	r3, [r7, #28]
 8003804:	2300      	movs	r3, #0
 8003806:	f887 3024 	strb.w	r3, [r7, #36]	@ 0x24
 800380a:	2300      	movs	r3, #0
 800380c:	f887 3026 	strb.w	r3, [r7, #38]	@ 0x26
 8003810:	2300      	movs	r3, #0
 8003812:	62bb      	str	r3, [r7, #40]	@ 0x28
 8003814:	2301      	movs	r3, #1
 8003816:	f887 302c 	strb.w	r3, [r7, #44]	@ 0x2c
 800381a:	2301      	movs	r3, #1
 800381c:	733b      	strb	r3, [r7, #12]
 800381e:	f44f 3380 	mov.w	r3, #65536	@ 0x10000
 8003822:	613b      	str	r3, [r7, #16]
 8003824:	f44f 0380 	mov.w	r3, #4194304	@ 0x400000
 8003828:	623b      	str	r3, [r7, #32]
 800382a:	f44f 5300 	mov.w	r3, #8192	@ 0x2000
 800382e:	61bb      	str	r3, [r7, #24]
 8003830:	2301      	movs	r3, #1
 8003832:	f887 302d 	strb.w	r3, [r7, #45]	@ 0x2d
 8003836:	2300      	movs	r3, #0
 8003838:	633b      	str	r3, [r7, #48]	@ 0x30
 800383a:	2300      	movs	r3, #0
 800383c:	60bb      	str	r3, [r7, #8]
 800383e:	f107 0308 	add.w	r3, r7, #8
 8003842:	4619      	mov	r1, r3
 8003844:	6878      	ldr	r0, [r7, #4]
 8003846:	f7ff ff05 	bl	8003654 <ETH_SetDMAConfig>
 800384a:	bf00      	nop
 800384c:	3798      	adds	r7, #152	@ 0x98
 800384e:	46bd      	mov	sp, r7
 8003850:	bd80      	pop	{r7, pc}
	...

08003854 <ETH_MACAddressConfig>:
 8003854:	b480      	push	{r7}
 8003856:	b087      	sub	sp, #28
 8003858:	af00      	add	r7, sp, #0
 800385a:	60f8      	str	r0, [r7, #12]
 800385c:	60b9      	str	r1, [r7, #8]
 800385e:	607a      	str	r2, [r7, #4]
 8003860:	687b      	ldr	r3, [r7, #4]
 8003862:	3305      	adds	r3, #5
 8003864:	781b      	ldrb	r3, [r3, #0]
 8003866:	021b      	lsls	r3, r3, #8
 8003868:	687a      	ldr	r2, [r7, #4]
 800386a:	3204      	adds	r2, #4
 800386c:	7812      	ldrb	r2, [r2, #0]
 800386e:	4313      	orrs	r3, r2
 8003870:	617b      	str	r3, [r7, #20]
 8003872:	68ba      	ldr	r2, [r7, #8]
 8003874:	4b11      	ldr	r3, [pc, #68]	@ (80038bc <ETH_MACAddressConfig+0x68>)
 8003876:	4413      	add	r3, r2
 8003878:	461a      	mov	r2, r3
 800387a:	697b      	ldr	r3, [r7, #20]
 800387c:	6013      	str	r3, [r2, #0]
 800387e:	687b      	ldr	r3, [r7, #4]
 8003880:	3303      	adds	r3, #3
 8003882:	781b      	ldrb	r3, [r3, #0]
 8003884:	061a      	lsls	r2, r3, #24
 8003886:	687b      	ldr	r3, [r7, #4]
 8003888:	3302      	adds	r3, #2
 800388a:	781b      	ldrb	r3, [r3, #0]
 800388c:	041b      	lsls	r3, r3, #16
 800388e:	431a      	orrs	r2, r3
 8003890:	687b      	ldr	r3, [r7, #4]
 8003892:	3301      	adds	r3, #1
 8003894:	781b      	ldrb	r3, [r3, #0]
 8003896:	021b      	lsls	r3, r3, #8
 8003898:	4313      	orrs	r3, r2
 800389a:	687a      	ldr	r2, [r7, #4]
 800389c:	7812      	ldrb	r2, [r2, #0]
 800389e:	4313      	orrs	r3, r2
 80038a0:	617b      	str	r3, [r7, #20]
 80038a2:	68ba      	ldr	r2, [r7, #8]
 80038a4:	4b06      	ldr	r3, [pc, #24]	@ (80038c0 <ETH_MACAddressConfig+0x6c>)
 80038a6:	4413      	add	r3, r2
 80038a8:	461a      	mov	r2, r3
 80038aa:	697b      	ldr	r3, [r7, #20]
 80038ac:	6013      	str	r3, [r2, #0]
 80038ae:	bf00      	nop
 80038b0:	371c      	adds	r7, #28
 80038b2:	46bd      	mov	sp, r7
 80038b4:	f85d 7b04 	ldr.w	r7, [sp], #4
 80038b8:	4770      	bx	lr
 80038ba:	bf00      	nop
 80038bc:	40028040 	.word	0x40028040
 80038c0:	40028044 	.word	0x40028044

080038c4 <ETH_DMATxDescListInit>:
 80038c4:	b480      	push	{r7}
 80038c6:	b085      	sub	sp, #20
 80038c8:	af00      	add	r7, sp, #0
 80038ca:	6078      	str	r0, [r7, #4]
 80038cc:	2300      	movs	r3, #0
 80038ce:	60fb      	str	r3, [r7, #12]
 80038d0:	e03e      	b.n	8003950 <ETH_DMATxDescListInit+0x8c>
 80038d2:	687b      	ldr	r3, [r7, #4]
 80038d4:	68d9      	ldr	r1, [r3, #12]
 80038d6:	68fa      	ldr	r2, [r7, #12]
 80038d8:	4613      	mov	r3, r2
 80038da:	009b      	lsls	r3, r3, #2
 80038dc:	4413      	add	r3, r2
 80038de:	00db      	lsls	r3, r3, #3
 80038e0:	440b      	add	r3, r1
 80038e2:	60bb      	str	r3, [r7, #8]
 80038e4:	68bb      	ldr	r3, [r7, #8]
 80038e6:	2200      	movs	r2, #0
 80038e8:	601a      	str	r2, [r3, #0]
 80038ea:	68bb      	ldr	r3, [r7, #8]
 80038ec:	2200      	movs	r2, #0
 80038ee:	605a      	str	r2, [r3, #4]
 80038f0:	68bb      	ldr	r3, [r7, #8]
 80038f2:	2200      	movs	r2, #0
 80038f4:	609a      	str	r2, [r3, #8]
 80038f6:	68bb      	ldr	r3, [r7, #8]
 80038f8:	2200      	movs	r2, #0
 80038fa:	60da      	str	r2, [r3, #12]
 80038fc:	68b9      	ldr	r1, [r7, #8]
 80038fe:	687b      	ldr	r3, [r7, #4]
 8003900:	68fa      	ldr	r2, [r7, #12]
 8003902:	3206      	adds	r2, #6
 8003904:	f843 1022 	str.w	r1, [r3, r2, lsl #2]
 8003908:	68bb      	ldr	r3, [r7, #8]
 800390a:	681b      	ldr	r3, [r3, #0]
 800390c:	f443 1280 	orr.w	r2, r3, #1048576	@ 0x100000
 8003910:	68bb      	ldr	r3, [r7, #8]
 8003912:	601a      	str	r2, [r3, #0]
 8003914:	68fb      	ldr	r3, [r7, #12]
 8003916:	2b02      	cmp	r3, #2
 8003918:	d80c      	bhi.n	8003934 <ETH_DMATxDescListInit+0x70>
 800391a:	687b      	ldr	r3, [r7, #4]
 800391c:	68d9      	ldr	r1, [r3, #12]
 800391e:	68fb      	ldr	r3, [r7, #12]
 8003920:	1c5a      	adds	r2, r3, #1
 8003922:	4613      	mov	r3, r2
 8003924:	009b      	lsls	r3, r3, #2
 8003926:	4413      	add	r3, r2
 8003928:	00db      	lsls	r3, r3, #3
 800392a:	440b      	add	r3, r1
 800392c:	461a      	mov	r2, r3
 800392e:	68bb      	ldr	r3, [r7, #8]
 8003930:	60da      	str	r2, [r3, #12]
 8003932:	e004      	b.n	800393e <ETH_DMATxDescListInit+0x7a>
 8003934:	687b      	ldr	r3, [r7, #4]
 8003936:	68db      	ldr	r3, [r3, #12]
 8003938:	461a      	mov	r2, r3
 800393a:	68bb      	ldr	r3, [r7, #8]
 800393c:	60da      	str	r2, [r3, #12]
 800393e:	68bb      	ldr	r3, [r7, #8]
 8003940:	681b      	ldr	r3, [r3, #0]
 8003942:	f443 0240 	orr.w	r2, r3, #12582912	@ 0xc00000
 8003946:	68bb      	ldr	r3, [r7, #8]
 8003948:	601a      	str	r2, [r3, #0]
 800394a:	68fb      	ldr	r3, [r7, #12]
 800394c:	3301      	adds	r3, #1
 800394e:	60fb      	str	r3, [r7, #12]
 8003950:	68fb      	ldr	r3, [r7, #12]
 8003952:	2b03      	cmp	r3, #3
 8003954:	d9bd      	bls.n	80038d2 <ETH_DMATxDescListInit+0xe>
 8003956:	687b      	ldr	r3, [r7, #4]
 8003958:	2200      	movs	r2, #0
 800395a:	629a      	str	r2, [r3, #40]	@ 0x28
 800395c:	687b      	ldr	r3, [r7, #4]
 800395e:	68da      	ldr	r2, [r3, #12]
 8003960:	687b      	ldr	r3, [r7, #4]
 8003962:	681b      	ldr	r3, [r3, #0]
 8003964:	f503 5380 	add.w	r3, r3, #4096	@ 0x1000
 8003968:	611a      	str	r2, [r3, #16]
 800396a:	bf00      	nop
 800396c:	3714      	adds	r7, #20
 800396e:	46bd      	mov	sp, r7
 8003970:	f85d 7b04 	ldr.w	r7, [sp], #4
 8003974:	4770      	bx	lr

08003976 <ETH_DMARxDescListInit>:
 8003976:	b480      	push	{r7}
 8003978:	b085      	sub	sp, #20
 800397a:	af00      	add	r7, sp, #0
 800397c:	6078      	str	r0, [r7, #4]
 800397e:	2300      	movs	r3, #0
 8003980:	60fb      	str	r3, [r7, #12]
 8003982:	e048      	b.n	8003a16 <ETH_DMARxDescListInit+0xa0>
 8003984:	687b      	ldr	r3, [r7, #4]
 8003986:	6919      	ldr	r1, [r3, #16]
 8003988:	68fa      	ldr	r2, [r7, #12]
 800398a:	4613      	mov	r3, r2
 800398c:	009b      	lsls	r3, r3, #2
 800398e:	4413      	add	r3, r2
 8003990:	00db      	lsls	r3, r3, #3
 8003992:	440b      	add	r3, r1
 8003994:	60bb      	str	r3, [r7, #8]
 8003996:	68bb      	ldr	r3, [r7, #8]
 8003998:	2200      	movs	r2, #0
 800399a:	601a      	str	r2, [r3, #0]
 800399c:	68bb      	ldr	r3, [r7, #8]
 800399e:	2200      	movs	r2, #0
 80039a0:	605a      	str	r2, [r3, #4]
 80039a2:	68bb      	ldr	r3, [r7, #8]
 80039a4:	2200      	movs	r2, #0
 80039a6:	609a      	str	r2, [r3, #8]
 80039a8:	68bb      	ldr	r3, [r7, #8]
 80039aa:	2200      	movs	r2, #0
 80039ac:	60da      	str	r2, [r3, #12]
 80039ae:	68bb      	ldr	r3, [r7, #8]
 80039b0:	2200      	movs	r2, #0
 80039b2:	621a      	str	r2, [r3, #32]
 80039b4:	68bb      	ldr	r3, [r7, #8]
 80039b6:	2200      	movs	r2, #0
 80039b8:	625a      	str	r2, [r3, #36]	@ 0x24
 80039ba:	68bb      	ldr	r3, [r7, #8]
 80039bc:	f04f 4200 	mov.w	r2, #2147483648	@ 0x80000000
 80039c0:	601a      	str	r2, [r3, #0]
 80039c2:	687b      	ldr	r3, [r7, #4]
 80039c4:	695b      	ldr	r3, [r3, #20]
 80039c6:	f443 4280 	orr.w	r2, r3, #16384	@ 0x4000
 80039ca:	68bb      	ldr	r3, [r7, #8]
 80039cc:	605a      	str	r2, [r3, #4]
 80039ce:	68bb      	ldr	r3, [r7, #8]
 80039d0:	685b      	ldr	r3, [r3, #4]
 80039d2:	f023 4200 	bic.w	r2, r3, #2147483648	@ 0x80000000
 80039d6:	68bb      	ldr	r3, [r7, #8]
 80039d8:	605a      	str	r2, [r3, #4]
 80039da:	68b9      	ldr	r1, [r7, #8]
 80039dc:	687b      	ldr	r3, [r7, #4]
 80039de:	68fa      	ldr	r2, [r7, #12]
 80039e0:	3212      	adds	r2, #18
 80039e2:	f843 1022 	str.w	r1, [r3, r2, lsl #2]
 80039e6:	68fb      	ldr	r3, [r7, #12]
 80039e8:	2b02      	cmp	r3, #2
 80039ea:	d80c      	bhi.n	8003a06 <ETH_DMARxDescListInit+0x90>
 80039ec:	687b      	ldr	r3, [r7, #4]
 80039ee:	6919      	ldr	r1, [r3, #16]
 80039f0:	68fb      	ldr	r3, [r7, #12]
 80039f2:	1c5a      	adds	r2, r3, #1
 80039f4:	4613      	mov	r3, r2
 80039f6:	009b      	lsls	r3, r3, #2
 80039f8:	4413      	add	r3, r2
 80039fa:	00db      	lsls	r3, r3, #3
 80039fc:	440b      	add	r3, r1
 80039fe:	461a      	mov	r2, r3
 8003a00:	68bb      	ldr	r3, [r7, #8]
 8003a02:	60da      	str	r2, [r3, #12]
 8003a04:	e004      	b.n	8003a10 <ETH_DMARxDescListInit+0x9a>
 8003a06:	687b      	ldr	r3, [r7, #4]
 8003a08:	691b      	ldr	r3, [r3, #16]
 8003a0a:	461a      	mov	r2, r3
 8003a0c:	68bb      	ldr	r3, [r7, #8]
 8003a0e:	60da      	str	r2, [r3, #12]
 8003a10:	68fb      	ldr	r3, [r7, #12]
 8003a12:	3301      	adds	r3, #1
 8003a14:	60fb      	str	r3, [r7, #12]
 8003a16:	68fb      	ldr	r3, [r7, #12]
 8003a18:	2b03      	cmp	r3, #3
 8003a1a:	d9b3      	bls.n	8003984 <ETH_DMARxDescListInit+0xe>
 8003a1c:	687b      	ldr	r3, [r7, #4]
 8003a1e:	2200      	movs	r2, #0
 8003a20:	65da      	str	r2, [r3, #92]	@ 0x5c
 8003a22:	687b      	ldr	r3, [r7, #4]
 8003a24:	2200      	movs	r2, #0
 8003a26:	661a      	str	r2, [r3, #96]	@ 0x60
 8003a28:	687b      	ldr	r3, [r7, #4]
 8003a2a:	2200      	movs	r2, #0
 8003a2c:	669a      	str	r2, [r3, #104]	@ 0x68
 8003a2e:	687b      	ldr	r3, [r7, #4]
 8003a30:	2200      	movs	r2, #0
 8003a32:	66da      	str	r2, [r3, #108]	@ 0x6c
 8003a34:	687b      	ldr	r3, [r7, #4]
 8003a36:	2200      	movs	r2, #0
 8003a38:	659a      	str	r2, [r3, #88]	@ 0x58
 8003a3a:	687b      	ldr	r3, [r7, #4]
 8003a3c:	691a      	ldr	r2, [r3, #16]
 8003a3e:	687b      	ldr	r3, [r7, #4]
 8003a40:	681b      	ldr	r3, [r3, #0]
 8003a42:	f503 5380 	add.w	r3, r3, #4096	@ 0x1000
 8003a46:	60da      	str	r2, [r3, #12]
 8003a48:	bf00      	nop
 8003a4a:	3714      	adds	r7, #20
 8003a4c:	46bd      	mov	sp, r7
 8003a4e:	f85d 7b04 	ldr.w	r7, [sp], #4
 8003a52:	4770      	bx	lr

08003a54 <HAL_GPIO_Init>:
 8003a54:	b480      	push	{r7}
 8003a56:	b089      	sub	sp, #36	@ 0x24
 8003a58:	af00      	add	r7, sp, #0
 8003a5a:	6078      	str	r0, [r7, #4]
 8003a5c:	6039      	str	r1, [r7, #0]
 8003a5e:	2300      	movs	r3, #0
 8003a60:	61fb      	str	r3, [r7, #28]
 8003a62:	2300      	movs	r3, #0
 8003a64:	617b      	str	r3, [r7, #20]
 8003a66:	2300      	movs	r3, #0
 8003a68:	613b      	str	r3, [r7, #16]
 8003a6a:	2300      	movs	r3, #0
 8003a6c:	61bb      	str	r3, [r7, #24]
 8003a6e:	2300      	movs	r3, #0
 8003a70:	61fb      	str	r3, [r7, #28]
 8003a72:	e175      	b.n	8003d60 <HAL_GPIO_Init+0x30c>
 8003a74:	2201      	movs	r2, #1
 8003a76:	69fb      	ldr	r3, [r7, #28]
 8003a78:	fa02 f303 	lsl.w	r3, r2, r3
 8003a7c:	617b      	str	r3, [r7, #20]
 8003a7e:	683b      	ldr	r3, [r7, #0]
 8003a80:	681b      	ldr	r3, [r3, #0]
 8003a82:	697a      	ldr	r2, [r7, #20]
 8003a84:	4013      	ands	r3, r2
 8003a86:	613b      	str	r3, [r7, #16]
 8003a88:	693a      	ldr	r2, [r7, #16]
 8003a8a:	697b      	ldr	r3, [r7, #20]
 8003a8c:	429a      	cmp	r2, r3
 8003a8e:	f040 8164 	bne.w	8003d5a <HAL_GPIO_Init+0x306>
 8003a92:	683b      	ldr	r3, [r7, #0]
 8003a94:	685b      	ldr	r3, [r3, #4]
 8003a96:	f003 0303 	and.w	r3, r3, #3
 8003a9a:	2b01      	cmp	r3, #1
 8003a9c:	d005      	beq.n	8003aaa <HAL_GPIO_Init+0x56>
 8003a9e:	683b      	ldr	r3, [r7, #0]
 8003aa0:	685b      	ldr	r3, [r3, #4]
 8003aa2:	f003 0303 	and.w	r3, r3, #3
 8003aa6:	2b02      	cmp	r3, #2
 8003aa8:	d130      	bne.n	8003b0c <HAL_GPIO_Init+0xb8>
 8003aaa:	687b      	ldr	r3, [r7, #4]
 8003aac:	689b      	ldr	r3, [r3, #8]
 8003aae:	61bb      	str	r3, [r7, #24]
 8003ab0:	69fb      	ldr	r3, [r7, #28]
 8003ab2:	005b      	lsls	r3, r3, #1
 8003ab4:	2203      	movs	r2, #3
 8003ab6:	fa02 f303 	lsl.w	r3, r2, r3
 8003aba:	43db      	mvns	r3, r3
 8003abc:	69ba      	ldr	r2, [r7, #24]
 8003abe:	4013      	ands	r3, r2
 8003ac0:	61bb      	str	r3, [r7, #24]
 8003ac2:	683b      	ldr	r3, [r7, #0]
 8003ac4:	68da      	ldr	r2, [r3, #12]
 8003ac6:	69fb      	ldr	r3, [r7, #28]
 8003ac8:	005b      	lsls	r3, r3, #1
 8003aca:	fa02 f303 	lsl.w	r3, r2, r3
 8003ace:	69ba      	ldr	r2, [r7, #24]
 8003ad0:	4313      	orrs	r3, r2
 8003ad2:	61bb      	str	r3, [r7, #24]
 8003ad4:	687b      	ldr	r3, [r7, #4]
 8003ad6:	69ba      	ldr	r2, [r7, #24]
 8003ad8:	609a      	str	r2, [r3, #8]
 8003ada:	687b      	ldr	r3, [r7, #4]
 8003adc:	685b      	ldr	r3, [r3, #4]
 8003ade:	61bb      	str	r3, [r7, #24]
 8003ae0:	2201      	movs	r2, #1
 8003ae2:	69fb      	ldr	r3, [r7, #28]
 8003ae4:	fa02 f303 	lsl.w	r3, r2, r3
 8003ae8:	43db      	mvns	r3, r3
 8003aea:	69ba      	ldr	r2, [r7, #24]
 8003aec:	4013      	ands	r3, r2
 8003aee:	61bb      	str	r3, [r7, #24]
 8003af0:	683b      	ldr	r3, [r7, #0]
 8003af2:	685b      	ldr	r3, [r3, #4]
 8003af4:	091b      	lsrs	r3, r3, #4
 8003af6:	f003 0201 	and.w	r2, r3, #1
 8003afa:	69fb      	ldr	r3, [r7, #28]
 8003afc:	fa02 f303 	lsl.w	r3, r2, r3
 8003b00:	69ba      	ldr	r2, [r7, #24]
 8003b02:	4313      	orrs	r3, r2
 8003b04:	61bb      	str	r3, [r7, #24]
 8003b06:	687b      	ldr	r3, [r7, #4]
 8003b08:	69ba      	ldr	r2, [r7, #24]
 8003b0a:	605a      	str	r2, [r3, #4]
 8003b0c:	683b      	ldr	r3, [r7, #0]
 8003b0e:	685b      	ldr	r3, [r3, #4]
 8003b10:	f003 0303 	and.w	r3, r3, #3
 8003b14:	2b03      	cmp	r3, #3
 8003b16:	d017      	beq.n	8003b48 <HAL_GPIO_Init+0xf4>
 8003b18:	687b      	ldr	r3, [r7, #4]
 8003b1a:	68db      	ldr	r3, [r3, #12]
 8003b1c:	61bb      	str	r3, [r7, #24]
 8003b1e:	69fb      	ldr	r3, [r7, #28]
 8003b20:	005b      	lsls	r3, r3, #1
 8003b22:	2203      	movs	r2, #3
 8003b24:	fa02 f303 	lsl.w	r3, r2, r3
 8003b28:	43db      	mvns	r3, r3
 8003b2a:	69ba      	ldr	r2, [r7, #24]
 8003b2c:	4013      	ands	r3, r2
 8003b2e:	61bb      	str	r3, [r7, #24]
 8003b30:	683b      	ldr	r3, [r7, #0]
 8003b32:	689a      	ldr	r2, [r3, #8]
 8003b34:	69fb      	ldr	r3, [r7, #28]
 8003b36:	005b      	lsls	r3, r3, #1
 8003b38:	fa02 f303 	lsl.w	r3, r2, r3
 8003b3c:	69ba      	ldr	r2, [r7, #24]
 8003b3e:	4313      	orrs	r3, r2
 8003b40:	61bb      	str	r3, [r7, #24]
 8003b42:	687b      	ldr	r3, [r7, #4]
 8003b44:	69ba      	ldr	r2, [r7, #24]
 8003b46:	60da      	str	r2, [r3, #12]
 8003b48:	683b      	ldr	r3, [r7, #0]
 8003b4a:	685b      	ldr	r3, [r3, #4]
 8003b4c:	f003 0303 	and.w	r3, r3, #3
 8003b50:	2b02      	cmp	r3, #2
 8003b52:	d123      	bne.n	8003b9c <HAL_GPIO_Init+0x148>
 8003b54:	69fb      	ldr	r3, [r7, #28]
 8003b56:	08da      	lsrs	r2, r3, #3
 8003b58:	687b      	ldr	r3, [r7, #4]
 8003b5a:	3208      	adds	r2, #8
 8003b5c:	f853 3022 	ldr.w	r3, [r3, r2, lsl #2]
 8003b60:	61bb      	str	r3, [r7, #24]
 8003b62:	69fb      	ldr	r3, [r7, #28]
 8003b64:	f003 0307 	and.w	r3, r3, #7
 8003b68:	009b      	lsls	r3, r3, #2
 8003b6a:	220f      	movs	r2, #15
 8003b6c:	fa02 f303 	lsl.w	r3, r2, r3
 8003b70:	43db      	mvns	r3, r3
 8003b72:	69ba      	ldr	r2, [r7, #24]
 8003b74:	4013      	ands	r3, r2
 8003b76:	61bb      	str	r3, [r7, #24]
 8003b78:	683b      	ldr	r3, [r7, #0]
 8003b7a:	691a      	ldr	r2, [r3, #16]
 8003b7c:	69fb      	ldr	r3, [r7, #28]
 8003b7e:	f003 0307 	and.w	r3, r3, #7
 8003b82:	009b      	lsls	r3, r3, #2
 8003b84:	fa02 f303 	lsl.w	r3, r2, r3
 8003b88:	69ba      	ldr	r2, [r7, #24]
 8003b8a:	4313      	orrs	r3, r2
 8003b8c:	61bb      	str	r3, [r7, #24]
 8003b8e:	69fb      	ldr	r3, [r7, #28]
 8003b90:	08da      	lsrs	r2, r3, #3
 8003b92:	687b      	ldr	r3, [r7, #4]
 8003b94:	3208      	adds	r2, #8
 8003b96:	69b9      	ldr	r1, [r7, #24]
 8003b98:	f843 1022 	str.w	r1, [r3, r2, lsl #2]
 8003b9c:	687b      	ldr	r3, [r7, #4]
 8003b9e:	681b      	ldr	r3, [r3, #0]
 8003ba0:	61bb      	str	r3, [r7, #24]
 8003ba2:	69fb      	ldr	r3, [r7, #28]
 8003ba4:	005b      	lsls	r3, r3, #1
 8003ba6:	2203      	movs	r2, #3
 8003ba8:	fa02 f303 	lsl.w	r3, r2, r3
 8003bac:	43db      	mvns	r3, r3
 8003bae:	69ba      	ldr	r2, [r7, #24]
 8003bb0:	4013      	ands	r3, r2
 8003bb2:	61bb      	str	r3, [r7, #24]
 8003bb4:	683b      	ldr	r3, [r7, #0]
 8003bb6:	685b      	ldr	r3, [r3, #4]
 8003bb8:	f003 0203 	and.w	r2, r3, #3
 8003bbc:	69fb      	ldr	r3, [r7, #28]
 8003bbe:	005b      	lsls	r3, r3, #1
 8003bc0:	fa02 f303 	lsl.w	r3, r2, r3
 8003bc4:	69ba      	ldr	r2, [r7, #24]
 8003bc6:	4313      	orrs	r3, r2
 8003bc8:	61bb      	str	r3, [r7, #24]
 8003bca:	687b      	ldr	r3, [r7, #4]
 8003bcc:	69ba      	ldr	r2, [r7, #24]
 8003bce:	601a      	str	r2, [r3, #0]
 8003bd0:	683b      	ldr	r3, [r7, #0]
 8003bd2:	685b      	ldr	r3, [r3, #4]
 8003bd4:	f403 3340 	and.w	r3, r3, #196608	@ 0x30000
 8003bd8:	2b00      	cmp	r3, #0
 8003bda:	f000 80be 	beq.w	8003d5a <HAL_GPIO_Init+0x306>
 8003bde:	4b66      	ldr	r3, [pc, #408]	@ (8003d78 <HAL_GPIO_Init+0x324>)
 8003be0:	6c5b      	ldr	r3, [r3, #68]	@ 0x44
 8003be2:	4a65      	ldr	r2, [pc, #404]	@ (8003d78 <HAL_GPIO_Init+0x324>)
 8003be4:	f443 4380 	orr.w	r3, r3, #16384	@ 0x4000
 8003be8:	6453      	str	r3, [r2, #68]	@ 0x44
 8003bea:	4b63      	ldr	r3, [pc, #396]	@ (8003d78 <HAL_GPIO_Init+0x324>)
 8003bec:	6c5b      	ldr	r3, [r3, #68]	@ 0x44
 8003bee:	f403 4380 	and.w	r3, r3, #16384	@ 0x4000
 8003bf2:	60fb      	str	r3, [r7, #12]
 8003bf4:	68fb      	ldr	r3, [r7, #12]
 8003bf6:	4a61      	ldr	r2, [pc, #388]	@ (8003d7c <HAL_GPIO_Init+0x328>)
 8003bf8:	69fb      	ldr	r3, [r7, #28]
 8003bfa:	089b      	lsrs	r3, r3, #2
 8003bfc:	3302      	adds	r3, #2
 8003bfe:	f852 3023 	ldr.w	r3, [r2, r3, lsl #2]
 8003c02:	61bb      	str	r3, [r7, #24]
 8003c04:	69fb      	ldr	r3, [r7, #28]
 8003c06:	f003 0303 	and.w	r3, r3, #3
 8003c0a:	009b      	lsls	r3, r3, #2
 8003c0c:	220f      	movs	r2, #15
 8003c0e:	fa02 f303 	lsl.w	r3, r2, r3
 8003c12:	43db      	mvns	r3, r3
 8003c14:	69ba      	ldr	r2, [r7, #24]
 8003c16:	4013      	ands	r3, r2
 8003c18:	61bb      	str	r3, [r7, #24]
 8003c1a:	687b      	ldr	r3, [r7, #4]
 8003c1c:	4a58      	ldr	r2, [pc, #352]	@ (8003d80 <HAL_GPIO_Init+0x32c>)
 8003c1e:	4293      	cmp	r3, r2
 8003c20:	d037      	beq.n	8003c92 <HAL_GPIO_Init+0x23e>
 8003c22:	687b      	ldr	r3, [r7, #4]
 8003c24:	4a57      	ldr	r2, [pc, #348]	@ (8003d84 <HAL_GPIO_Init+0x330>)
 8003c26:	4293      	cmp	r3, r2
 8003c28:	d031      	beq.n	8003c8e <HAL_GPIO_Init+0x23a>
 8003c2a:	687b      	ldr	r3, [r7, #4]
 8003c2c:	4a56      	ldr	r2, [pc, #344]	@ (8003d88 <HAL_GPIO_Init+0x334>)
 8003c2e:	4293      	cmp	r3, r2
 8003c30:	d02b      	beq.n	8003c8a <HAL_GPIO_Init+0x236>
 8003c32:	687b      	ldr	r3, [r7, #4]
 8003c34:	4a55      	ldr	r2, [pc, #340]	@ (8003d8c <HAL_GPIO_Init+0x338>)
 8003c36:	4293      	cmp	r3, r2
 8003c38:	d025      	beq.n	8003c86 <HAL_GPIO_Init+0x232>
 8003c3a:	687b      	ldr	r3, [r7, #4]
 8003c3c:	4a54      	ldr	r2, [pc, #336]	@ (8003d90 <HAL_GPIO_Init+0x33c>)
 8003c3e:	4293      	cmp	r3, r2
 8003c40:	d01f      	beq.n	8003c82 <HAL_GPIO_Init+0x22e>
 8003c42:	687b      	ldr	r3, [r7, #4]
 8003c44:	4a53      	ldr	r2, [pc, #332]	@ (8003d94 <HAL_GPIO_Init+0x340>)
 8003c46:	4293      	cmp	r3, r2
 8003c48:	d019      	beq.n	8003c7e <HAL_GPIO_Init+0x22a>
 8003c4a:	687b      	ldr	r3, [r7, #4]
 8003c4c:	4a52      	ldr	r2, [pc, #328]	@ (8003d98 <HAL_GPIO_Init+0x344>)
 8003c4e:	4293      	cmp	r3, r2
 8003c50:	d013      	beq.n	8003c7a <HAL_GPIO_Init+0x226>
 8003c52:	687b      	ldr	r3, [r7, #4]
 8003c54:	4a51      	ldr	r2, [pc, #324]	@ (8003d9c <HAL_GPIO_Init+0x348>)
 8003c56:	4293      	cmp	r3, r2
 8003c58:	d00d      	beq.n	8003c76 <HAL_GPIO_Init+0x222>
 8003c5a:	687b      	ldr	r3, [r7, #4]
 8003c5c:	4a50      	ldr	r2, [pc, #320]	@ (8003da0 <HAL_GPIO_Init+0x34c>)
 8003c5e:	4293      	cmp	r3, r2
 8003c60:	d007      	beq.n	8003c72 <HAL_GPIO_Init+0x21e>
 8003c62:	687b      	ldr	r3, [r7, #4]
 8003c64:	4a4f      	ldr	r2, [pc, #316]	@ (8003da4 <HAL_GPIO_Init+0x350>)
 8003c66:	4293      	cmp	r3, r2
 8003c68:	d101      	bne.n	8003c6e <HAL_GPIO_Init+0x21a>
 8003c6a:	2309      	movs	r3, #9
 8003c6c:	e012      	b.n	8003c94 <HAL_GPIO_Init+0x240>
 8003c6e:	230a      	movs	r3, #10
 8003c70:	e010      	b.n	8003c94 <HAL_GPIO_Init+0x240>
 8003c72:	2308      	movs	r3, #8
 8003c74:	e00e      	b.n	8003c94 <HAL_GPIO_Init+0x240>
 8003c76:	2307      	movs	r3, #7
 8003c78:	e00c      	b.n	8003c94 <HAL_GPIO_Init+0x240>
 8003c7a:	2306      	movs	r3, #6
 8003c7c:	e00a      	b.n	8003c94 <HAL_GPIO_Init+0x240>
 8003c7e:	2305      	movs	r3, #5
 8003c80:	e008      	b.n	8003c94 <HAL_GPIO_Init+0x240>
 8003c82:	2304      	movs	r3, #4
 8003c84:	e006      	b.n	8003c94 <HAL_GPIO_Init+0x240>
 8003c86:	2303      	movs	r3, #3
 8003c88:	e004      	b.n	8003c94 <HAL_GPIO_Init+0x240>
 8003c8a:	2302      	movs	r3, #2
 8003c8c:	e002      	b.n	8003c94 <HAL_GPIO_Init+0x240>
 8003c8e:	2301      	movs	r3, #1
 8003c90:	e000      	b.n	8003c94 <HAL_GPIO_Init+0x240>
 8003c92:	2300      	movs	r3, #0
 8003c94:	69fa      	ldr	r2, [r7, #28]
 8003c96:	f002 0203 	and.w	r2, r2, #3
 8003c9a:	0092      	lsls	r2, r2, #2
 8003c9c:	4093      	lsls	r3, r2
 8003c9e:	69ba      	ldr	r2, [r7, #24]
 8003ca0:	4313      	orrs	r3, r2
 8003ca2:	61bb      	str	r3, [r7, #24]
 8003ca4:	4935      	ldr	r1, [pc, #212]	@ (8003d7c <HAL_GPIO_Init+0x328>)
 8003ca6:	69fb      	ldr	r3, [r7, #28]
 8003ca8:	089b      	lsrs	r3, r3, #2
 8003caa:	3302      	adds	r3, #2
 8003cac:	69ba      	ldr	r2, [r7, #24]
 8003cae:	f841 2023 	str.w	r2, [r1, r3, lsl #2]
 8003cb2:	4b3d      	ldr	r3, [pc, #244]	@ (8003da8 <HAL_GPIO_Init+0x354>)
 8003cb4:	689b      	ldr	r3, [r3, #8]
 8003cb6:	61bb      	str	r3, [r7, #24]
 8003cb8:	693b      	ldr	r3, [r7, #16]
 8003cba:	43db      	mvns	r3, r3
 8003cbc:	69ba      	ldr	r2, [r7, #24]
 8003cbe:	4013      	ands	r3, r2
 8003cc0:	61bb      	str	r3, [r7, #24]
 8003cc2:	683b      	ldr	r3, [r7, #0]
 8003cc4:	685b      	ldr	r3, [r3, #4]
 8003cc6:	f403 1380 	and.w	r3, r3, #1048576	@ 0x100000
 8003cca:	2b00      	cmp	r3, #0
 8003ccc:	d003      	beq.n	8003cd6 <HAL_GPIO_Init+0x282>
 8003cce:	69ba      	ldr	r2, [r7, #24]
 8003cd0:	693b      	ldr	r3, [r7, #16]
 8003cd2:	4313      	orrs	r3, r2
 8003cd4:	61bb      	str	r3, [r7, #24]
 8003cd6:	4a34      	ldr	r2, [pc, #208]	@ (8003da8 <HAL_GPIO_Init+0x354>)
 8003cd8:	69bb      	ldr	r3, [r7, #24]
 8003cda:	6093      	str	r3, [r2, #8]
 8003cdc:	4b32      	ldr	r3, [pc, #200]	@ (8003da8 <HAL_GPIO_Init+0x354>)
 8003cde:	68db      	ldr	r3, [r3, #12]
 8003ce0:	61bb      	str	r3, [r7, #24]
 8003ce2:	693b      	ldr	r3, [r7, #16]
 8003ce4:	43db      	mvns	r3, r3
 8003ce6:	69ba      	ldr	r2, [r7, #24]
 8003ce8:	4013      	ands	r3, r2
 8003cea:	61bb      	str	r3, [r7, #24]
 8003cec:	683b      	ldr	r3, [r7, #0]
 8003cee:	685b      	ldr	r3, [r3, #4]
 8003cf0:	f403 1300 	and.w	r3, r3, #2097152	@ 0x200000
 8003cf4:	2b00      	cmp	r3, #0
 8003cf6:	d003      	beq.n	8003d00 <HAL_GPIO_Init+0x2ac>
 8003cf8:	69ba      	ldr	r2, [r7, #24]
 8003cfa:	693b      	ldr	r3, [r7, #16]
 8003cfc:	4313      	orrs	r3, r2
 8003cfe:	61bb      	str	r3, [r7, #24]
 8003d00:	4a29      	ldr	r2, [pc, #164]	@ (8003da8 <HAL_GPIO_Init+0x354>)
 8003d02:	69bb      	ldr	r3, [r7, #24]
 8003d04:	60d3      	str	r3, [r2, #12]
 8003d06:	4b28      	ldr	r3, [pc, #160]	@ (8003da8 <HAL_GPIO_Init+0x354>)
 8003d08:	685b      	ldr	r3, [r3, #4]
 8003d0a:	61bb      	str	r3, [r7, #24]
 8003d0c:	693b      	ldr	r3, [r7, #16]
 8003d0e:	43db      	mvns	r3, r3
 8003d10:	69ba      	ldr	r2, [r7, #24]
 8003d12:	4013      	ands	r3, r2
 8003d14:	61bb      	str	r3, [r7, #24]
 8003d16:	683b      	ldr	r3, [r7, #0]
 8003d18:	685b      	ldr	r3, [r3, #4]
 8003d1a:	f403 3300 	and.w	r3, r3, #131072	@ 0x20000
 8003d1e:	2b00      	cmp	r3, #0
 8003d20:	d003      	beq.n	8003d2a <HAL_GPIO_Init+0x2d6>
 8003d22:	69ba      	ldr	r2, [r7, #24]
 8003d24:	693b      	ldr	r3, [r7, #16]
 8003d26:	4313      	orrs	r3, r2
 8003d28:	61bb      	str	r3, [r7, #24]
 8003d2a:	4a1f      	ldr	r2, [pc, #124]	@ (8003da8 <HAL_GPIO_Init+0x354>)
 8003d2c:	69bb      	ldr	r3, [r7, #24]
 8003d2e:	6053      	str	r3, [r2, #4]
 8003d30:	4b1d      	ldr	r3, [pc, #116]	@ (8003da8 <HAL_GPIO_Init+0x354>)
 8003d32:	681b      	ldr	r3, [r3, #0]
 8003d34:	61bb      	str	r3, [r7, #24]
 8003d36:	693b      	ldr	r3, [r7, #16]
 8003d38:	43db      	mvns	r3, r3
 8003d3a:	69ba      	ldr	r2, [r7, #24]
 8003d3c:	4013      	ands	r3, r2
 8003d3e:	61bb      	str	r3, [r7, #24]
 8003d40:	683b      	ldr	r3, [r7, #0]
 8003d42:	685b      	ldr	r3, [r3, #4]
 8003d44:	f403 3380 	and.w	r3, r3, #65536	@ 0x10000
 8003d48:	2b00      	cmp	r3, #0
 8003d4a:	d003      	beq.n	8003d54 <HAL_GPIO_Init+0x300>
 8003d4c:	69ba      	ldr	r2, [r7, #24]
 8003d4e:	693b      	ldr	r3, [r7, #16]
 8003d50:	4313      	orrs	r3, r2
 8003d52:	61bb      	str	r3, [r7, #24]
 8003d54:	4a14      	ldr	r2, [pc, #80]	@ (8003da8 <HAL_GPIO_Init+0x354>)
 8003d56:	69bb      	ldr	r3, [r7, #24]
 8003d58:	6013      	str	r3, [r2, #0]
 8003d5a:	69fb      	ldr	r3, [r7, #28]
 8003d5c:	3301      	adds	r3, #1
 8003d5e:	61fb      	str	r3, [r7, #28]
 8003d60:	69fb      	ldr	r3, [r7, #28]
 8003d62:	2b0f      	cmp	r3, #15
 8003d64:	f67f ae86 	bls.w	8003a74 <HAL_GPIO_Init+0x20>
 8003d68:	bf00      	nop
 8003d6a:	bf00      	nop
 8003d6c:	3724      	adds	r7, #36	@ 0x24
 8003d6e:	46bd      	mov	sp, r7
 8003d70:	f85d 7b04 	ldr.w	r7, [sp], #4
 8003d74:	4770      	bx	lr
 8003d76:	bf00      	nop
 8003d78:	40023800 	.word	0x40023800
 8003d7c:	40013800 	.word	0x40013800
 8003d80:	40020000 	.word	0x40020000
 8003d84:	40020400 	.word	0x40020400
 8003d88:	40020800 	.word	0x40020800
 8003d8c:	40020c00 	.word	0x40020c00
 8003d90:	40021000 	.word	0x40021000
 8003d94:	40021400 	.word	0x40021400
 8003d98:	40021800 	.word	0x40021800
 8003d9c:	40021c00 	.word	0x40021c00
 8003da0:	40022000 	.word	0x40022000
 8003da4:	40022400 	.word	0x40022400
 8003da8:	40013c00 	.word	0x40013c00

08003dac <HAL_GPIO_ReadPin>:
 8003dac:	b480      	push	{r7}
 8003dae:	b085      	sub	sp, #20
 8003db0:	af00      	add	r7, sp, #0
 8003db2:	6078      	str	r0, [r7, #4]
 8003db4:	460b      	mov	r3, r1
 8003db6:	807b      	strh	r3, [r7, #2]
 8003db8:	687b      	ldr	r3, [r7, #4]
 8003dba:	691a      	ldr	r2, [r3, #16]
 8003dbc:	887b      	ldrh	r3, [r7, #2]
 8003dbe:	4013      	ands	r3, r2
 8003dc0:	2b00      	cmp	r3, #0
 8003dc2:	d002      	beq.n	8003dca <HAL_GPIO_ReadPin+0x1e>
 8003dc4:	2301      	movs	r3, #1
 8003dc6:	73fb      	strb	r3, [r7, #15]
 8003dc8:	e001      	b.n	8003dce <HAL_GPIO_ReadPin+0x22>
 8003dca:	2300      	movs	r3, #0
 8003dcc:	73fb      	strb	r3, [r7, #15]
 8003dce:	7bfb      	ldrb	r3, [r7, #15]
 8003dd0:	4618      	mov	r0, r3
 8003dd2:	3714      	adds	r7, #20
 8003dd4:	46bd      	mov	sp, r7
 8003dd6:	f85d 7b04 	ldr.w	r7, [sp], #4
 8003dda:	4770      	bx	lr

08003ddc <HAL_GPIO_WritePin>:
 8003ddc:	b480      	push	{r7}
 8003dde:	b083      	sub	sp, #12
 8003de0:	af00      	add	r7, sp, #0
 8003de2:	6078      	str	r0, [r7, #4]
 8003de4:	460b      	mov	r3, r1
 8003de6:	807b      	strh	r3, [r7, #2]
 8003de8:	4613      	mov	r3, r2
 8003dea:	707b      	strb	r3, [r7, #1]
 8003dec:	787b      	ldrb	r3, [r7, #1]
 8003dee:	2b00      	cmp	r3, #0
 8003df0:	d003      	beq.n	8003dfa <HAL_GPIO_WritePin+0x1e>
 8003df2:	887a      	ldrh	r2, [r7, #2]
 8003df4:	687b      	ldr	r3, [r7, #4]
 8003df6:	619a      	str	r2, [r3, #24]
 8003df8:	e003      	b.n	8003e02 <HAL_GPIO_WritePin+0x26>
 8003dfa:	887b      	ldrh	r3, [r7, #2]
 8003dfc:	041a      	lsls	r2, r3, #16
 8003dfe:	687b      	ldr	r3, [r7, #4]
 8003e00:	619a      	str	r2, [r3, #24]
 8003e02:	bf00      	nop
 8003e04:	370c      	adds	r7, #12
 8003e06:	46bd      	mov	sp, r7
 8003e08:	f85d 7b04 	ldr.w	r7, [sp], #4
 8003e0c:	4770      	bx	lr

08003e0e <HAL_GPIO_TogglePin>:
 8003e0e:	b480      	push	{r7}
 8003e10:	b085      	sub	sp, #20
 8003e12:	af00      	add	r7, sp, #0
 8003e14:	6078      	str	r0, [r7, #4]
 8003e16:	460b      	mov	r3, r1
 8003e18:	807b      	strh	r3, [r7, #2]
 8003e1a:	687b      	ldr	r3, [r7, #4]
 8003e1c:	695b      	ldr	r3, [r3, #20]
 8003e1e:	60fb      	str	r3, [r7, #12]
 8003e20:	887a      	ldrh	r2, [r7, #2]
 8003e22:	68fb      	ldr	r3, [r7, #12]
 8003e24:	4013      	ands	r3, r2
 8003e26:	041a      	lsls	r2, r3, #16
 8003e28:	68fb      	ldr	r3, [r7, #12]
 8003e2a:	43d9      	mvns	r1, r3
 8003e2c:	887b      	ldrh	r3, [r7, #2]
 8003e2e:	400b      	ands	r3, r1
 8003e30:	431a      	orrs	r2, r3
 8003e32:	687b      	ldr	r3, [r7, #4]
 8003e34:	619a      	str	r2, [r3, #24]
 8003e36:	bf00      	nop
 8003e38:	3714      	adds	r7, #20
 8003e3a:	46bd      	mov	sp, r7
 8003e3c:	f85d 7b04 	ldr.w	r7, [sp], #4
 8003e40:	4770      	bx	lr
	...

08003e44 <HAL_GPIO_EXTI_IRQHandler>:
 8003e44:	b580      	push	{r7, lr}
 8003e46:	b082      	sub	sp, #8
 8003e48:	af00      	add	r7, sp, #0
 8003e4a:	4603      	mov	r3, r0
 8003e4c:	80fb      	strh	r3, [r7, #6]
 8003e4e:	4b08      	ldr	r3, [pc, #32]	@ (8003e70 <HAL_GPIO_EXTI_IRQHandler+0x2c>)
 8003e50:	695a      	ldr	r2, [r3, #20]
 8003e52:	88fb      	ldrh	r3, [r7, #6]
 8003e54:	4013      	ands	r3, r2
 8003e56:	2b00      	cmp	r3, #0
 8003e58:	d006      	beq.n	8003e68 <HAL_GPIO_EXTI_IRQHandler+0x24>
 8003e5a:	4a05      	ldr	r2, [pc, #20]	@ (8003e70 <HAL_GPIO_EXTI_IRQHandler+0x2c>)
 8003e5c:	88fb      	ldrh	r3, [r7, #6]
 8003e5e:	6153      	str	r3, [r2, #20]
 8003e60:	88fb      	ldrh	r3, [r7, #6]
 8003e62:	4618      	mov	r0, r3
 8003e64:	f7fe f9ae 	bl	80021c4 <HAL_GPIO_EXTI_Callback>
 8003e68:	bf00      	nop
 8003e6a:	3708      	adds	r7, #8
 8003e6c:	46bd      	mov	sp, r7
 8003e6e:	bd80      	pop	{r7, pc}
 8003e70:	40013c00 	.word	0x40013c00

08003e74 <HAL_I2C_Init>:
 8003e74:	b580      	push	{r7, lr}
 8003e76:	b082      	sub	sp, #8
 8003e78:	af00      	add	r7, sp, #0
 8003e7a:	6078      	str	r0, [r7, #4]
 8003e7c:	687b      	ldr	r3, [r7, #4]
 8003e7e:	2b00      	cmp	r3, #0
 8003e80:	d101      	bne.n	8003e86 <HAL_I2C_Init+0x12>
 8003e82:	2301      	movs	r3, #1
 8003e84:	e08b      	b.n	8003f9e <HAL_I2C_Init+0x12a>
 8003e86:	687b      	ldr	r3, [r7, #4]
 8003e88:	f893 3041 	ldrb.w	r3, [r3, #65]	@ 0x41
 8003e8c:	b2db      	uxtb	r3, r3
 8003e8e:	2b00      	cmp	r3, #0
 8003e90:	d106      	bne.n	8003ea0 <HAL_I2C_Init+0x2c>
 8003e92:	687b      	ldr	r3, [r7, #4]
 8003e94:	2200      	movs	r2, #0
 8003e96:	f883 2040 	strb.w	r2, [r3, #64]	@ 0x40
 8003e9a:	6878      	ldr	r0, [r7, #4]
 8003e9c:	f7fe fa8e 	bl	80023bc <HAL_I2C_MspInit>
 8003ea0:	687b      	ldr	r3, [r7, #4]
 8003ea2:	2224      	movs	r2, #36	@ 0x24
 8003ea4:	f883 2041 	strb.w	r2, [r3, #65]	@ 0x41
 8003ea8:	687b      	ldr	r3, [r7, #4]
 8003eaa:	681b      	ldr	r3, [r3, #0]
 8003eac:	681a      	ldr	r2, [r3, #0]
 8003eae:	687b      	ldr	r3, [r7, #4]
 8003eb0:	681b      	ldr	r3, [r3, #0]
 8003eb2:	f022 0201 	bic.w	r2, r2, #1
 8003eb6:	601a      	str	r2, [r3, #0]
 8003eb8:	687b      	ldr	r3, [r7, #4]
 8003eba:	685a      	ldr	r2, [r3, #4]
 8003ebc:	687b      	ldr	r3, [r7, #4]
 8003ebe:	681b      	ldr	r3, [r3, #0]
 8003ec0:	f022 6270 	bic.w	r2, r2, #251658240	@ 0xf000000
 8003ec4:	611a      	str	r2, [r3, #16]
 8003ec6:	687b      	ldr	r3, [r7, #4]
 8003ec8:	681b      	ldr	r3, [r3, #0]
 8003eca:	689a      	ldr	r2, [r3, #8]
 8003ecc:	687b      	ldr	r3, [r7, #4]
 8003ece:	681b      	ldr	r3, [r3, #0]
 8003ed0:	f422 4200 	bic.w	r2, r2, #32768	@ 0x8000
 8003ed4:	609a      	str	r2, [r3, #8]
 8003ed6:	687b      	ldr	r3, [r7, #4]
 8003ed8:	68db      	ldr	r3, [r3, #12]
 8003eda:	2b01      	cmp	r3, #1
 8003edc:	d107      	bne.n	8003eee <HAL_I2C_Init+0x7a>
 8003ede:	687b      	ldr	r3, [r7, #4]
 8003ee0:	689a      	ldr	r2, [r3, #8]
 8003ee2:	687b      	ldr	r3, [r7, #4]
 8003ee4:	681b      	ldr	r3, [r3, #0]
 8003ee6:	f442 4200 	orr.w	r2, r2, #32768	@ 0x8000
 8003eea:	609a      	str	r2, [r3, #8]
 8003eec:	e006      	b.n	8003efc <HAL_I2C_Init+0x88>
 8003eee:	687b      	ldr	r3, [r7, #4]
 8003ef0:	689a      	ldr	r2, [r3, #8]
 8003ef2:	687b      	ldr	r3, [r7, #4]
 8003ef4:	681b      	ldr	r3, [r3, #0]
 8003ef6:	f442 4204 	orr.w	r2, r2, #33792	@ 0x8400
 8003efa:	609a      	str	r2, [r3, #8]
 8003efc:	687b      	ldr	r3, [r7, #4]
 8003efe:	68db      	ldr	r3, [r3, #12]
 8003f00:	2b02      	cmp	r3, #2
 8003f02:	d108      	bne.n	8003f16 <HAL_I2C_Init+0xa2>
 8003f04:	687b      	ldr	r3, [r7, #4]
 8003f06:	681b      	ldr	r3, [r3, #0]
 8003f08:	685a      	ldr	r2, [r3, #4]
 8003f0a:	687b      	ldr	r3, [r7, #4]
 8003f0c:	681b      	ldr	r3, [r3, #0]
 8003f0e:	f442 6200 	orr.w	r2, r2, #2048	@ 0x800
 8003f12:	605a      	str	r2, [r3, #4]
 8003f14:	e007      	b.n	8003f26 <HAL_I2C_Init+0xb2>
 8003f16:	687b      	ldr	r3, [r7, #4]
 8003f18:	681b      	ldr	r3, [r3, #0]
 8003f1a:	685a      	ldr	r2, [r3, #4]
 8003f1c:	687b      	ldr	r3, [r7, #4]
 8003f1e:	681b      	ldr	r3, [r3, #0]
 8003f20:	f422 6200 	bic.w	r2, r2, #2048	@ 0x800
 8003f24:	605a      	str	r2, [r3, #4]
 8003f26:	687b      	ldr	r3, [r7, #4]
 8003f28:	681b      	ldr	r3, [r3, #0]
 8003f2a:	6859      	ldr	r1, [r3, #4]
 8003f2c:	687b      	ldr	r3, [r7, #4]
 8003f2e:	681a      	ldr	r2, [r3, #0]
 8003f30:	4b1d      	ldr	r3, [pc, #116]	@ (8003fa8 <HAL_I2C_Init+0x134>)
 8003f32:	430b      	orrs	r3, r1
 8003f34:	6053      	str	r3, [r2, #4]
 8003f36:	687b      	ldr	r3, [r7, #4]
 8003f38:	681b      	ldr	r3, [r3, #0]
 8003f3a:	68da      	ldr	r2, [r3, #12]
 8003f3c:	687b      	ldr	r3, [r7, #4]
 8003f3e:	681b      	ldr	r3, [r3, #0]
 8003f40:	f422 4200 	bic.w	r2, r2, #32768	@ 0x8000
 8003f44:	60da      	str	r2, [r3, #12]
 8003f46:	687b      	ldr	r3, [r7, #4]
 8003f48:	691a      	ldr	r2, [r3, #16]
 8003f4a:	687b      	ldr	r3, [r7, #4]
 8003f4c:	695b      	ldr	r3, [r3, #20]
 8003f4e:	ea42 0103 	orr.w	r1, r2, r3
 8003f52:	687b      	ldr	r3, [r7, #4]
 8003f54:	699b      	ldr	r3, [r3, #24]
 8003f56:	021a      	lsls	r2, r3, #8
 8003f58:	687b      	ldr	r3, [r7, #4]
 8003f5a:	681b      	ldr	r3, [r3, #0]
 8003f5c:	430a      	orrs	r2, r1
 8003f5e:	60da      	str	r2, [r3, #12]
 8003f60:	687b      	ldr	r3, [r7, #4]
 8003f62:	69d9      	ldr	r1, [r3, #28]
 8003f64:	687b      	ldr	r3, [r7, #4]
 8003f66:	6a1a      	ldr	r2, [r3, #32]
 8003f68:	687b      	ldr	r3, [r7, #4]
 8003f6a:	681b      	ldr	r3, [r3, #0]
 8003f6c:	430a      	orrs	r2, r1
 8003f6e:	601a      	str	r2, [r3, #0]
 8003f70:	687b      	ldr	r3, [r7, #4]
 8003f72:	681b      	ldr	r3, [r3, #0]
 8003f74:	681a      	ldr	r2, [r3, #0]
 8003f76:	687b      	ldr	r3, [r7, #4]
 8003f78:	681b      	ldr	r3, [r3, #0]
 8003f7a:	f042 0201 	orr.w	r2, r2, #1
 8003f7e:	601a      	str	r2, [r3, #0]
 8003f80:	687b      	ldr	r3, [r7, #4]
 8003f82:	2200      	movs	r2, #0
 8003f84:	645a      	str	r2, [r3, #68]	@ 0x44
 8003f86:	687b      	ldr	r3, [r7, #4]
 8003f88:	2220      	movs	r2, #32
 8003f8a:	f883 2041 	strb.w	r2, [r3, #65]	@ 0x41
 8003f8e:	687b      	ldr	r3, [r7, #4]
 8003f90:	2200      	movs	r2, #0
 8003f92:	631a      	str	r2, [r3, #48]	@ 0x30
 8003f94:	687b      	ldr	r3, [r7, #4]
 8003f96:	2200      	movs	r2, #0
 8003f98:	f883 2042 	strb.w	r2, [r3, #66]	@ 0x42
 8003f9c:	2300      	movs	r3, #0
 8003f9e:	4618      	mov	r0, r3
 8003fa0:	3708      	adds	r7, #8
 8003fa2:	46bd      	mov	sp, r7
 8003fa4:	bd80      	pop	{r7, pc}
 8003fa6:	bf00      	nop
 8003fa8:	02008000 	.word	0x02008000

08003fac <HAL_I2C_Mem_Write>:
 8003fac:	b580      	push	{r7, lr}
 8003fae:	b088      	sub	sp, #32
 8003fb0:	af02      	add	r7, sp, #8
 8003fb2:	60f8      	str	r0, [r7, #12]
 8003fb4:	4608      	mov	r0, r1
 8003fb6:	4611      	mov	r1, r2
 8003fb8:	461a      	mov	r2, r3
 8003fba:	4603      	mov	r3, r0
 8003fbc:	817b      	strh	r3, [r7, #10]
 8003fbe:	460b      	mov	r3, r1
 8003fc0:	813b      	strh	r3, [r7, #8]
 8003fc2:	4613      	mov	r3, r2
 8003fc4:	80fb      	strh	r3, [r7, #6]
 8003fc6:	68fb      	ldr	r3, [r7, #12]
 8003fc8:	f893 3041 	ldrb.w	r3, [r3, #65]	@ 0x41
 8003fcc:	b2db      	uxtb	r3, r3
 8003fce:	2b20      	cmp	r3, #32
 8003fd0:	f040 80f9 	bne.w	80041c6 <HAL_I2C_Mem_Write+0x21a>
 8003fd4:	6a3b      	ldr	r3, [r7, #32]
 8003fd6:	2b00      	cmp	r3, #0
 8003fd8:	d002      	beq.n	8003fe0 <HAL_I2C_Mem_Write+0x34>
 8003fda:	8cbb      	ldrh	r3, [r7, #36]	@ 0x24
 8003fdc:	2b00      	cmp	r3, #0
 8003fde:	d105      	bne.n	8003fec <HAL_I2C_Mem_Write+0x40>
 8003fe0:	68fb      	ldr	r3, [r7, #12]
 8003fe2:	f44f 7200 	mov.w	r2, #512	@ 0x200
 8003fe6:	645a      	str	r2, [r3, #68]	@ 0x44
 8003fe8:	2301      	movs	r3, #1
 8003fea:	e0ed      	b.n	80041c8 <HAL_I2C_Mem_Write+0x21c>
 8003fec:	68fb      	ldr	r3, [r7, #12]
 8003fee:	f893 3040 	ldrb.w	r3, [r3, #64]	@ 0x40
 8003ff2:	2b01      	cmp	r3, #1
 8003ff4:	d101      	bne.n	8003ffa <HAL_I2C_Mem_Write+0x4e>
 8003ff6:	2302      	movs	r3, #2
 8003ff8:	e0e6      	b.n	80041c8 <HAL_I2C_Mem_Write+0x21c>
 8003ffa:	68fb      	ldr	r3, [r7, #12]
 8003ffc:	2201      	movs	r2, #1
 8003ffe:	f883 2040 	strb.w	r2, [r3, #64]	@ 0x40
 8004002:	f7ff f897 	bl	8003134 <HAL_GetTick>
 8004006:	6178      	str	r0, [r7, #20]
 8004008:	697b      	ldr	r3, [r7, #20]
 800400a:	9300      	str	r3, [sp, #0]
 800400c:	2319      	movs	r3, #25
 800400e:	2201      	movs	r2, #1
 8004010:	f44f 4100 	mov.w	r1, #32768	@ 0x8000
 8004014:	68f8      	ldr	r0, [r7, #12]
 8004016:	f000 fa41 	bl	800449c <I2C_WaitOnFlagUntilTimeout>
 800401a:	4603      	mov	r3, r0
 800401c:	2b00      	cmp	r3, #0
 800401e:	d001      	beq.n	8004024 <HAL_I2C_Mem_Write+0x78>
 8004020:	2301      	movs	r3, #1
 8004022:	e0d1      	b.n	80041c8 <HAL_I2C_Mem_Write+0x21c>
 8004024:	68fb      	ldr	r3, [r7, #12]
 8004026:	2221      	movs	r2, #33	@ 0x21
 8004028:	f883 2041 	strb.w	r2, [r3, #65]	@ 0x41
 800402c:	68fb      	ldr	r3, [r7, #12]
 800402e:	2240      	movs	r2, #64	@ 0x40
 8004030:	f883 2042 	strb.w	r2, [r3, #66]	@ 0x42
 8004034:	68fb      	ldr	r3, [r7, #12]
 8004036:	2200      	movs	r2, #0
 8004038:	645a      	str	r2, [r3, #68]	@ 0x44
 800403a:	68fb      	ldr	r3, [r7, #12]
 800403c:	6a3a      	ldr	r2, [r7, #32]
 800403e:	625a      	str	r2, [r3, #36]	@ 0x24
 8004040:	68fb      	ldr	r3, [r7, #12]
 8004042:	8cba      	ldrh	r2, [r7, #36]	@ 0x24
 8004044:	855a      	strh	r2, [r3, #42]	@ 0x2a
 8004046:	68fb      	ldr	r3, [r7, #12]
 8004048:	2200      	movs	r2, #0
 800404a:	635a      	str	r2, [r3, #52]	@ 0x34
 800404c:	88f8      	ldrh	r0, [r7, #6]
 800404e:	893a      	ldrh	r2, [r7, #8]
 8004050:	8979      	ldrh	r1, [r7, #10]
 8004052:	697b      	ldr	r3, [r7, #20]
 8004054:	9301      	str	r3, [sp, #4]
 8004056:	6abb      	ldr	r3, [r7, #40]	@ 0x28
 8004058:	9300      	str	r3, [sp, #0]
 800405a:	4603      	mov	r3, r0
 800405c:	68f8      	ldr	r0, [r7, #12]
 800405e:	f000 f9a5 	bl	80043ac <I2C_RequestMemoryWrite>
 8004062:	4603      	mov	r3, r0
 8004064:	2b00      	cmp	r3, #0
 8004066:	d005      	beq.n	8004074 <HAL_I2C_Mem_Write+0xc8>
 8004068:	68fb      	ldr	r3, [r7, #12]
 800406a:	2200      	movs	r2, #0
 800406c:	f883 2040 	strb.w	r2, [r3, #64]	@ 0x40
 8004070:	2301      	movs	r3, #1
 8004072:	e0a9      	b.n	80041c8 <HAL_I2C_Mem_Write+0x21c>
 8004074:	68fb      	ldr	r3, [r7, #12]
 8004076:	8d5b      	ldrh	r3, [r3, #42]	@ 0x2a
 8004078:	b29b      	uxth	r3, r3
 800407a:	2bff      	cmp	r3, #255	@ 0xff
 800407c:	d90e      	bls.n	800409c <HAL_I2C_Mem_Write+0xf0>
 800407e:	68fb      	ldr	r3, [r7, #12]
 8004080:	22ff      	movs	r2, #255	@ 0xff
 8004082:	851a      	strh	r2, [r3, #40]	@ 0x28
 8004084:	68fb      	ldr	r3, [r7, #12]
 8004086:	8d1b      	ldrh	r3, [r3, #40]	@ 0x28
 8004088:	b2da      	uxtb	r2, r3
 800408a:	8979      	ldrh	r1, [r7, #10]
 800408c:	2300      	movs	r3, #0
 800408e:	9300      	str	r3, [sp, #0]
 8004090:	f04f 7380 	mov.w	r3, #16777216	@ 0x1000000
 8004094:	68f8      	ldr	r0, [r7, #12]
 8004096:	f000 fbc5 	bl	8004824 <I2C_TransferConfig>
 800409a:	e00f      	b.n	80040bc <HAL_I2C_Mem_Write+0x110>
 800409c:	68fb      	ldr	r3, [r7, #12]
 800409e:	8d5b      	ldrh	r3, [r3, #42]	@ 0x2a
 80040a0:	b29a      	uxth	r2, r3
 80040a2:	68fb      	ldr	r3, [r7, #12]
 80040a4:	851a      	strh	r2, [r3, #40]	@ 0x28
 80040a6:	68fb      	ldr	r3, [r7, #12]
 80040a8:	8d1b      	ldrh	r3, [r3, #40]	@ 0x28
 80040aa:	b2da      	uxtb	r2, r3
 80040ac:	8979      	ldrh	r1, [r7, #10]
 80040ae:	2300      	movs	r3, #0
 80040b0:	9300      	str	r3, [sp, #0]
 80040b2:	f04f 7300 	mov.w	r3, #33554432	@ 0x2000000
 80040b6:	68f8      	ldr	r0, [r7, #12]
 80040b8:	f000 fbb4 	bl	8004824 <I2C_TransferConfig>
 80040bc:	697a      	ldr	r2, [r7, #20]
 80040be:	6ab9      	ldr	r1, [r7, #40]	@ 0x28
 80040c0:	68f8      	ldr	r0, [r7, #12]
 80040c2:	f000 fa44 	bl	800454e <I2C_WaitOnTXISFlagUntilTimeout>
 80040c6:	4603      	mov	r3, r0
 80040c8:	2b00      	cmp	r3, #0
 80040ca:	d001      	beq.n	80040d0 <HAL_I2C_Mem_Write+0x124>
 80040cc:	2301      	movs	r3, #1
 80040ce:	e07b      	b.n	80041c8 <HAL_I2C_Mem_Write+0x21c>
 80040d0:	68fb      	ldr	r3, [r7, #12]
 80040d2:	6a5b      	ldr	r3, [r3, #36]	@ 0x24
 80040d4:	781a      	ldrb	r2, [r3, #0]
 80040d6:	68fb      	ldr	r3, [r7, #12]
 80040d8:	681b      	ldr	r3, [r3, #0]
 80040da:	629a      	str	r2, [r3, #40]	@ 0x28
 80040dc:	68fb      	ldr	r3, [r7, #12]
 80040de:	6a5b      	ldr	r3, [r3, #36]	@ 0x24
 80040e0:	1c5a      	adds	r2, r3, #1
 80040e2:	68fb      	ldr	r3, [r7, #12]
 80040e4:	625a      	str	r2, [r3, #36]	@ 0x24
 80040e6:	68fb      	ldr	r3, [r7, #12]
 80040e8:	8d5b      	ldrh	r3, [r3, #42]	@ 0x2a
 80040ea:	b29b      	uxth	r3, r3
 80040ec:	3b01      	subs	r3, #1
 80040ee:	b29a      	uxth	r2, r3
 80040f0:	68fb      	ldr	r3, [r7, #12]
 80040f2:	855a      	strh	r2, [r3, #42]	@ 0x2a
 80040f4:	68fb      	ldr	r3, [r7, #12]
 80040f6:	8d1b      	ldrh	r3, [r3, #40]	@ 0x28
 80040f8:	3b01      	subs	r3, #1
 80040fa:	b29a      	uxth	r2, r3
 80040fc:	68fb      	ldr	r3, [r7, #12]
 80040fe:	851a      	strh	r2, [r3, #40]	@ 0x28
 8004100:	68fb      	ldr	r3, [r7, #12]
 8004102:	8d5b      	ldrh	r3, [r3, #42]	@ 0x2a
 8004104:	b29b      	uxth	r3, r3
 8004106:	2b00      	cmp	r3, #0
 8004108:	d034      	beq.n	8004174 <HAL_I2C_Mem_Write+0x1c8>
 800410a:	68fb      	ldr	r3, [r7, #12]
 800410c:	8d1b      	ldrh	r3, [r3, #40]	@ 0x28
 800410e:	2b00      	cmp	r3, #0
 8004110:	d130      	bne.n	8004174 <HAL_I2C_Mem_Write+0x1c8>
 8004112:	697b      	ldr	r3, [r7, #20]
 8004114:	9300      	str	r3, [sp, #0]
 8004116:	6abb      	ldr	r3, [r7, #40]	@ 0x28
 8004118:	2200      	movs	r2, #0
 800411a:	2180      	movs	r1, #128	@ 0x80
 800411c:	68f8      	ldr	r0, [r7, #12]
 800411e:	f000 f9bd 	bl	800449c <I2C_WaitOnFlagUntilTimeout>
 8004122:	4603      	mov	r3, r0
 8004124:	2b00      	cmp	r3, #0
 8004126:	d001      	beq.n	800412c <HAL_I2C_Mem_Write+0x180>
 8004128:	2301      	movs	r3, #1
 800412a:	e04d      	b.n	80041c8 <HAL_I2C_Mem_Write+0x21c>
 800412c:	68fb      	ldr	r3, [r7, #12]
 800412e:	8d5b      	ldrh	r3, [r3, #42]	@ 0x2a
 8004130:	b29b      	uxth	r3, r3
 8004132:	2bff      	cmp	r3, #255	@ 0xff
 8004134:	d90e      	bls.n	8004154 <HAL_I2C_Mem_Write+0x1a8>
 8004136:	68fb      	ldr	r3, [r7, #12]
 8004138:	22ff      	movs	r2, #255	@ 0xff
 800413a:	851a      	strh	r2, [r3, #40]	@ 0x28
 800413c:	68fb      	ldr	r3, [r7, #12]
 800413e:	8d1b      	ldrh	r3, [r3, #40]	@ 0x28
 8004140:	b2da      	uxtb	r2, r3
 8004142:	8979      	ldrh	r1, [r7, #10]
 8004144:	2300      	movs	r3, #0
 8004146:	9300      	str	r3, [sp, #0]
 8004148:	f04f 7380 	mov.w	r3, #16777216	@ 0x1000000
 800414c:	68f8      	ldr	r0, [r7, #12]
 800414e:	f000 fb69 	bl	8004824 <I2C_TransferConfig>
 8004152:	e00f      	b.n	8004174 <HAL_I2C_Mem_Write+0x1c8>
 8004154:	68fb      	ldr	r3, [r7, #12]
 8004156:	8d5b      	ldrh	r3, [r3, #42]	@ 0x2a
 8004158:	b29a      	uxth	r2, r3
 800415a:	68fb      	ldr	r3, [r7, #12]
 800415c:	851a      	strh	r2, [r3, #40]	@ 0x28
 800415e:	68fb      	ldr	r3, [r7, #12]
 8004160:	8d1b      	ldrh	r3, [r3, #40]	@ 0x28
 8004162:	b2da      	uxtb	r2, r3
 8004164:	8979      	ldrh	r1, [r7, #10]
 8004166:	2300      	movs	r3, #0
 8004168:	9300      	str	r3, [sp, #0]
 800416a:	f04f 7300 	mov.w	r3, #33554432	@ 0x2000000
 800416e:	68f8      	ldr	r0, [r7, #12]
 8004170:	f000 fb58 	bl	8004824 <I2C_TransferConfig>
 8004174:	68fb      	ldr	r3, [r7, #12]
 8004176:	8d5b      	ldrh	r3, [r3, #42]	@ 0x2a
 8004178:	b29b      	uxth	r3, r3
 800417a:	2b00      	cmp	r3, #0
 800417c:	d19e      	bne.n	80040bc <HAL_I2C_Mem_Write+0x110>
 800417e:	697a      	ldr	r2, [r7, #20]
 8004180:	6ab9      	ldr	r1, [r7, #40]	@ 0x28
 8004182:	68f8      	ldr	r0, [r7, #12]
 8004184:	f000 fa2a 	bl	80045dc <I2C_WaitOnSTOPFlagUntilTimeout>
 8004188:	4603      	mov	r3, r0
 800418a:	2b00      	cmp	r3, #0
 800418c:	d001      	beq.n	8004192 <HAL_I2C_Mem_Write+0x1e6>
 800418e:	2301      	movs	r3, #1
 8004190:	e01a      	b.n	80041c8 <HAL_I2C_Mem_Write+0x21c>
 8004192:	68fb      	ldr	r3, [r7, #12]
 8004194:	681b      	ldr	r3, [r3, #0]
 8004196:	2220      	movs	r2, #32
 8004198:	61da      	str	r2, [r3, #28]
 800419a:	68fb      	ldr	r3, [r7, #12]
 800419c:	681b      	ldr	r3, [r3, #0]
 800419e:	6859      	ldr	r1, [r3, #4]
 80041a0:	68fb      	ldr	r3, [r7, #12]
 80041a2:	681a      	ldr	r2, [r3, #0]
 80041a4:	4b0a      	ldr	r3, [pc, #40]	@ (80041d0 <HAL_I2C_Mem_Write+0x224>)
 80041a6:	400b      	ands	r3, r1
 80041a8:	6053      	str	r3, [r2, #4]
 80041aa:	68fb      	ldr	r3, [r7, #12]
 80041ac:	2220      	movs	r2, #32
 80041ae:	f883 2041 	strb.w	r2, [r3, #65]	@ 0x41
 80041b2:	68fb      	ldr	r3, [r7, #12]
 80041b4:	2200      	movs	r2, #0
 80041b6:	f883 2042 	strb.w	r2, [r3, #66]	@ 0x42
 80041ba:	68fb      	ldr	r3, [r7, #12]
 80041bc:	2200      	movs	r2, #0
 80041be:	f883 2040 	strb.w	r2, [r3, #64]	@ 0x40
 80041c2:	2300      	movs	r3, #0
 80041c4:	e000      	b.n	80041c8 <HAL_I2C_Mem_Write+0x21c>
 80041c6:	2302      	movs	r3, #2
 80041c8:	4618      	mov	r0, r3
 80041ca:	3718      	adds	r7, #24
 80041cc:	46bd      	mov	sp, r7
 80041ce:	bd80      	pop	{r7, pc}
 80041d0:	fe00e800 	.word	0xfe00e800

080041d4 <HAL_I2C_IsDeviceReady>:
 80041d4:	b580      	push	{r7, lr}
 80041d6:	b08a      	sub	sp, #40	@ 0x28
 80041d8:	af02      	add	r7, sp, #8
 80041da:	60f8      	str	r0, [r7, #12]
 80041dc:	607a      	str	r2, [r7, #4]
 80041de:	603b      	str	r3, [r7, #0]
 80041e0:	460b      	mov	r3, r1
 80041e2:	817b      	strh	r3, [r7, #10]
 80041e4:	2300      	movs	r3, #0
 80041e6:	617b      	str	r3, [r7, #20]
 80041e8:	68fb      	ldr	r3, [r7, #12]
 80041ea:	f893 3041 	ldrb.w	r3, [r3, #65]	@ 0x41
 80041ee:	b2db      	uxtb	r3, r3
 80041f0:	2b20      	cmp	r3, #32
 80041f2:	f040 80d2 	bne.w	800439a <HAL_I2C_IsDeviceReady+0x1c6>
 80041f6:	68fb      	ldr	r3, [r7, #12]
 80041f8:	681b      	ldr	r3, [r3, #0]
 80041fa:	699b      	ldr	r3, [r3, #24]
 80041fc:	f403 4300 	and.w	r3, r3, #32768	@ 0x8000
 8004200:	f5b3 4f00 	cmp.w	r3, #32768	@ 0x8000
 8004204:	d101      	bne.n	800420a <HAL_I2C_IsDeviceReady+0x36>
 8004206:	2302      	movs	r3, #2
 8004208:	e0c8      	b.n	800439c <HAL_I2C_IsDeviceReady+0x1c8>
 800420a:	68fb      	ldr	r3, [r7, #12]
 800420c:	f893 3040 	ldrb.w	r3, [r3, #64]	@ 0x40
 8004210:	2b01      	cmp	r3, #1
 8004212:	d101      	bne.n	8004218 <HAL_I2C_IsDeviceReady+0x44>
 8004214:	2302      	movs	r3, #2
 8004216:	e0c1      	b.n	800439c <HAL_I2C_IsDeviceReady+0x1c8>
 8004218:	68fb      	ldr	r3, [r7, #12]
 800421a:	2201      	movs	r2, #1
 800421c:	f883 2040 	strb.w	r2, [r3, #64]	@ 0x40
 8004220:	68fb      	ldr	r3, [r7, #12]
 8004222:	2224      	movs	r2, #36	@ 0x24
 8004224:	f883 2041 	strb.w	r2, [r3, #65]	@ 0x41
 8004228:	68fb      	ldr	r3, [r7, #12]
 800422a:	2200      	movs	r2, #0
 800422c:	645a      	str	r2, [r3, #68]	@ 0x44
 800422e:	68fb      	ldr	r3, [r7, #12]
 8004230:	68db      	ldr	r3, [r3, #12]
 8004232:	2b01      	cmp	r3, #1
 8004234:	d105      	bne.n	8004242 <HAL_I2C_IsDeviceReady+0x6e>
 8004236:	897b      	ldrh	r3, [r7, #10]
 8004238:	f3c3 0209 	ubfx	r2, r3, #0, #10
 800423c:	4b59      	ldr	r3, [pc, #356]	@ (80043a4 <HAL_I2C_IsDeviceReady+0x1d0>)
 800423e:	4313      	orrs	r3, r2
 8004240:	e004      	b.n	800424c <HAL_I2C_IsDeviceReady+0x78>
 8004242:	897b      	ldrh	r3, [r7, #10]
 8004244:	f3c3 0209 	ubfx	r2, r3, #0, #10
 8004248:	4b57      	ldr	r3, [pc, #348]	@ (80043a8 <HAL_I2C_IsDeviceReady+0x1d4>)
 800424a:	4313      	orrs	r3, r2
 800424c:	68fa      	ldr	r2, [r7, #12]
 800424e:	6812      	ldr	r2, [r2, #0]
 8004250:	6053      	str	r3, [r2, #4]
 8004252:	f7fe ff6f 	bl	8003134 <HAL_GetTick>
 8004256:	61b8      	str	r0, [r7, #24]
 8004258:	68fb      	ldr	r3, [r7, #12]
 800425a:	681b      	ldr	r3, [r3, #0]
 800425c:	699b      	ldr	r3, [r3, #24]
 800425e:	f003 0320 	and.w	r3, r3, #32
 8004262:	2b20      	cmp	r3, #32
 8004264:	bf0c      	ite	eq
 8004266:	2301      	moveq	r3, #1
 8004268:	2300      	movne	r3, #0
 800426a:	b2db      	uxtb	r3, r3
 800426c:	77fb      	strb	r3, [r7, #31]
 800426e:	68fb      	ldr	r3, [r7, #12]
 8004270:	681b      	ldr	r3, [r3, #0]
 8004272:	699b      	ldr	r3, [r3, #24]
 8004274:	f003 0310 	and.w	r3, r3, #16
 8004278:	2b10      	cmp	r3, #16
 800427a:	bf0c      	ite	eq
 800427c:	2301      	moveq	r3, #1
 800427e:	2300      	movne	r3, #0
 8004280:	b2db      	uxtb	r3, r3
 8004282:	77bb      	strb	r3, [r7, #30]
 8004284:	e034      	b.n	80042f0 <HAL_I2C_IsDeviceReady+0x11c>
 8004286:	683b      	ldr	r3, [r7, #0]
 8004288:	f1b3 3fff 	cmp.w	r3, #4294967295
 800428c:	d01a      	beq.n	80042c4 <HAL_I2C_IsDeviceReady+0xf0>
 800428e:	f7fe ff51 	bl	8003134 <HAL_GetTick>
 8004292:	4602      	mov	r2, r0
 8004294:	69bb      	ldr	r3, [r7, #24]
 8004296:	1ad3      	subs	r3, r2, r3
 8004298:	683a      	ldr	r2, [r7, #0]
 800429a:	429a      	cmp	r2, r3
 800429c:	d302      	bcc.n	80042a4 <HAL_I2C_IsDeviceReady+0xd0>
 800429e:	683b      	ldr	r3, [r7, #0]
 80042a0:	2b00      	cmp	r3, #0
 80042a2:	d10f      	bne.n	80042c4 <HAL_I2C_IsDeviceReady+0xf0>
 80042a4:	68fb      	ldr	r3, [r7, #12]
 80042a6:	2220      	movs	r2, #32
 80042a8:	f883 2041 	strb.w	r2, [r3, #65]	@ 0x41
 80042ac:	68fb      	ldr	r3, [r7, #12]
 80042ae:	6c5b      	ldr	r3, [r3, #68]	@ 0x44
 80042b0:	f043 0220 	orr.w	r2, r3, #32
 80042b4:	68fb      	ldr	r3, [r7, #12]
 80042b6:	645a      	str	r2, [r3, #68]	@ 0x44
 80042b8:	68fb      	ldr	r3, [r7, #12]
 80042ba:	2200      	movs	r2, #0
 80042bc:	f883 2040 	strb.w	r2, [r3, #64]	@ 0x40
 80042c0:	2301      	movs	r3, #1
 80042c2:	e06b      	b.n	800439c <HAL_I2C_IsDeviceReady+0x1c8>
 80042c4:	68fb      	ldr	r3, [r7, #12]
 80042c6:	681b      	ldr	r3, [r3, #0]
 80042c8:	699b      	ldr	r3, [r3, #24]
 80042ca:	f003 0320 	and.w	r3, r3, #32
 80042ce:	2b20      	cmp	r3, #32
 80042d0:	bf0c      	ite	eq
 80042d2:	2301      	moveq	r3, #1
 80042d4:	2300      	movne	r3, #0
 80042d6:	b2db      	uxtb	r3, r3
 80042d8:	77fb      	strb	r3, [r7, #31]
 80042da:	68fb      	ldr	r3, [r7, #12]
 80042dc:	681b      	ldr	r3, [r3, #0]
 80042de:	699b      	ldr	r3, [r3, #24]
 80042e0:	f003 0310 	and.w	r3, r3, #16
 80042e4:	2b10      	cmp	r3, #16
 80042e6:	bf0c      	ite	eq
 80042e8:	2301      	moveq	r3, #1
 80042ea:	2300      	movne	r3, #0
 80042ec:	b2db      	uxtb	r3, r3
 80042ee:	77bb      	strb	r3, [r7, #30]
 80042f0:	7ffb      	ldrb	r3, [r7, #31]
 80042f2:	2b00      	cmp	r3, #0
 80042f4:	d102      	bne.n	80042fc <HAL_I2C_IsDeviceReady+0x128>
 80042f6:	7fbb      	ldrb	r3, [r7, #30]
 80042f8:	2b00      	cmp	r3, #0
 80042fa:	d0c4      	beq.n	8004286 <HAL_I2C_IsDeviceReady+0xb2>
 80042fc:	68fb      	ldr	r3, [r7, #12]
 80042fe:	681b      	ldr	r3, [r3, #0]
 8004300:	699b      	ldr	r3, [r3, #24]
 8004302:	f003 0310 	and.w	r3, r3, #16
 8004306:	2b10      	cmp	r3, #16
 8004308:	d01a      	beq.n	8004340 <HAL_I2C_IsDeviceReady+0x16c>
 800430a:	69bb      	ldr	r3, [r7, #24]
 800430c:	9300      	str	r3, [sp, #0]
 800430e:	683b      	ldr	r3, [r7, #0]
 8004310:	2200      	movs	r2, #0
 8004312:	2120      	movs	r1, #32
 8004314:	68f8      	ldr	r0, [r7, #12]
 8004316:	f000 f8c1 	bl	800449c <I2C_WaitOnFlagUntilTimeout>
 800431a:	4603      	mov	r3, r0
 800431c:	2b00      	cmp	r3, #0
 800431e:	d001      	beq.n	8004324 <HAL_I2C_IsDeviceReady+0x150>
 8004320:	2301      	movs	r3, #1
 8004322:	e03b      	b.n	800439c <HAL_I2C_IsDeviceReady+0x1c8>
 8004324:	68fb      	ldr	r3, [r7, #12]
 8004326:	681b      	ldr	r3, [r3, #0]
 8004328:	2220      	movs	r2, #32
 800432a:	61da      	str	r2, [r3, #28]
 800432c:	68fb      	ldr	r3, [r7, #12]
 800432e:	2220      	movs	r2, #32
 8004330:	f883 2041 	strb.w	r2, [r3, #65]	@ 0x41
 8004334:	68fb      	ldr	r3, [r7, #12]
 8004336:	2200      	movs	r2, #0
 8004338:	f883 2040 	strb.w	r2, [r3, #64]	@ 0x40
 800433c:	2300      	movs	r3, #0
 800433e:	e02d      	b.n	800439c <HAL_I2C_IsDeviceReady+0x1c8>
 8004340:	69bb      	ldr	r3, [r7, #24]
 8004342:	9300      	str	r3, [sp, #0]
 8004344:	683b      	ldr	r3, [r7, #0]
 8004346:	2200      	movs	r2, #0
 8004348:	2120      	movs	r1, #32
 800434a:	68f8      	ldr	r0, [r7, #12]
 800434c:	f000 f8a6 	bl	800449c <I2C_WaitOnFlagUntilTimeout>
 8004350:	4603      	mov	r3, r0
 8004352:	2b00      	cmp	r3, #0
 8004354:	d001      	beq.n	800435a <HAL_I2C_IsDeviceReady+0x186>
 8004356:	2301      	movs	r3, #1
 8004358:	e020      	b.n	800439c <HAL_I2C_IsDeviceReady+0x1c8>
 800435a:	68fb      	ldr	r3, [r7, #12]
 800435c:	681b      	ldr	r3, [r3, #0]
 800435e:	2210      	movs	r2, #16
 8004360:	61da      	str	r2, [r3, #28]
 8004362:	68fb      	ldr	r3, [r7, #12]
 8004364:	681b      	ldr	r3, [r3, #0]
 8004366:	2220      	movs	r2, #32
 8004368:	61da      	str	r2, [r3, #28]
 800436a:	697b      	ldr	r3, [r7, #20]
 800436c:	3301      	adds	r3, #1
 800436e:	617b      	str	r3, [r7, #20]
 8004370:	697b      	ldr	r3, [r7, #20]
 8004372:	687a      	ldr	r2, [r7, #4]
 8004374:	429a      	cmp	r2, r3
 8004376:	f63f af5a 	bhi.w	800422e <HAL_I2C_IsDeviceReady+0x5a>
 800437a:	68fb      	ldr	r3, [r7, #12]
 800437c:	2220      	movs	r2, #32
 800437e:	f883 2041 	strb.w	r2, [r3, #65]	@ 0x41
 8004382:	68fb      	ldr	r3, [r7, #12]
 8004384:	6c5b      	ldr	r3, [r3, #68]	@ 0x44
 8004386:	f043 0220 	orr.w	r2, r3, #32
 800438a:	68fb      	ldr	r3, [r7, #12]
 800438c:	645a      	str	r2, [r3, #68]	@ 0x44
 800438e:	68fb      	ldr	r3, [r7, #12]
 8004390:	2200      	movs	r2, #0
 8004392:	f883 2040 	strb.w	r2, [r3, #64]	@ 0x40
 8004396:	2301      	movs	r3, #1
 8004398:	e000      	b.n	800439c <HAL_I2C_IsDeviceReady+0x1c8>
 800439a:	2302      	movs	r3, #2
 800439c:	4618      	mov	r0, r3
 800439e:	3720      	adds	r7, #32
 80043a0:	46bd      	mov	sp, r7
 80043a2:	bd80      	pop	{r7, pc}
 80043a4:	02002000 	.word	0x02002000
 80043a8:	02002800 	.word	0x02002800

080043ac <I2C_RequestMemoryWrite>:
 80043ac:	b580      	push	{r7, lr}
 80043ae:	b086      	sub	sp, #24
 80043b0:	af02      	add	r7, sp, #8
 80043b2:	60f8      	str	r0, [r7, #12]
 80043b4:	4608      	mov	r0, r1
 80043b6:	4611      	mov	r1, r2
 80043b8:	461a      	mov	r2, r3
 80043ba:	4603      	mov	r3, r0
 80043bc:	817b      	strh	r3, [r7, #10]
 80043be:	460b      	mov	r3, r1
 80043c0:	813b      	strh	r3, [r7, #8]
 80043c2:	4613      	mov	r3, r2
 80043c4:	80fb      	strh	r3, [r7, #6]
 80043c6:	88fb      	ldrh	r3, [r7, #6]
 80043c8:	b2da      	uxtb	r2, r3
 80043ca:	8979      	ldrh	r1, [r7, #10]
 80043cc:	4b20      	ldr	r3, [pc, #128]	@ (8004450 <I2C_RequestMemoryWrite+0xa4>)
 80043ce:	9300      	str	r3, [sp, #0]
 80043d0:	f04f 7380 	mov.w	r3, #16777216	@ 0x1000000
 80043d4:	68f8      	ldr	r0, [r7, #12]
 80043d6:	f000 fa25 	bl	8004824 <I2C_TransferConfig>
 80043da:	69fa      	ldr	r2, [r7, #28]
 80043dc:	69b9      	ldr	r1, [r7, #24]
 80043de:	68f8      	ldr	r0, [r7, #12]
 80043e0:	f000 f8b5 	bl	800454e <I2C_WaitOnTXISFlagUntilTimeout>
 80043e4:	4603      	mov	r3, r0
 80043e6:	2b00      	cmp	r3, #0
 80043e8:	d001      	beq.n	80043ee <I2C_RequestMemoryWrite+0x42>
 80043ea:	2301      	movs	r3, #1
 80043ec:	e02c      	b.n	8004448 <I2C_RequestMemoryWrite+0x9c>
 80043ee:	88fb      	ldrh	r3, [r7, #6]
 80043f0:	2b01      	cmp	r3, #1
 80043f2:	d105      	bne.n	8004400 <I2C_RequestMemoryWrite+0x54>
 80043f4:	893b      	ldrh	r3, [r7, #8]
 80043f6:	b2da      	uxtb	r2, r3
 80043f8:	68fb      	ldr	r3, [r7, #12]
 80043fa:	681b      	ldr	r3, [r3, #0]
 80043fc:	629a      	str	r2, [r3, #40]	@ 0x28
 80043fe:	e015      	b.n	800442c <I2C_RequestMemoryWrite+0x80>
 8004400:	893b      	ldrh	r3, [r7, #8]
 8004402:	0a1b      	lsrs	r3, r3, #8
 8004404:	b29b      	uxth	r3, r3
 8004406:	b2da      	uxtb	r2, r3
 8004408:	68fb      	ldr	r3, [r7, #12]
 800440a:	681b      	ldr	r3, [r3, #0]
 800440c:	629a      	str	r2, [r3, #40]	@ 0x28
 800440e:	69fa      	ldr	r2, [r7, #28]
 8004410:	69b9      	ldr	r1, [r7, #24]
 8004412:	68f8      	ldr	r0, [r7, #12]
 8004414:	f000 f89b 	bl	800454e <I2C_WaitOnTXISFlagUntilTimeout>
 8004418:	4603      	mov	r3, r0
 800441a:	2b00      	cmp	r3, #0
 800441c:	d001      	beq.n	8004422 <I2C_RequestMemoryWrite+0x76>
 800441e:	2301      	movs	r3, #1
 8004420:	e012      	b.n	8004448 <I2C_RequestMemoryWrite+0x9c>
 8004422:	893b      	ldrh	r3, [r7, #8]
 8004424:	b2da      	uxtb	r2, r3
 8004426:	68fb      	ldr	r3, [r7, #12]
 8004428:	681b      	ldr	r3, [r3, #0]
 800442a:	629a      	str	r2, [r3, #40]	@ 0x28
 800442c:	69fb      	ldr	r3, [r7, #28]
 800442e:	9300      	str	r3, [sp, #0]
 8004430:	69bb      	ldr	r3, [r7, #24]
 8004432:	2200      	movs	r2, #0
 8004434:	2180      	movs	r1, #128	@ 0x80
 8004436:	68f8      	ldr	r0, [r7, #12]
 8004438:	f000 f830 	bl	800449c <I2C_WaitOnFlagUntilTimeout>
 800443c:	4603      	mov	r3, r0
 800443e:	2b00      	cmp	r3, #0
 8004440:	d001      	beq.n	8004446 <I2C_RequestMemoryWrite+0x9a>
 8004442:	2301      	movs	r3, #1
 8004444:	e000      	b.n	8004448 <I2C_RequestMemoryWrite+0x9c>
 8004446:	2300      	movs	r3, #0
 8004448:	4618      	mov	r0, r3
 800444a:	3710      	adds	r7, #16
 800444c:	46bd      	mov	sp, r7
 800444e:	bd80      	pop	{r7, pc}
 8004450:	80002000 	.word	0x80002000

08004454 <I2C_Flush_TXDR>:
 8004454:	b480      	push	{r7}
 8004456:	b083      	sub	sp, #12
 8004458:	af00      	add	r7, sp, #0
 800445a:	6078      	str	r0, [r7, #4]
 800445c:	687b      	ldr	r3, [r7, #4]
 800445e:	681b      	ldr	r3, [r3, #0]
 8004460:	699b      	ldr	r3, [r3, #24]
 8004462:	f003 0302 	and.w	r3, r3, #2
 8004466:	2b02      	cmp	r3, #2
 8004468:	d103      	bne.n	8004472 <I2C_Flush_TXDR+0x1e>
 800446a:	687b      	ldr	r3, [r7, #4]
 800446c:	681b      	ldr	r3, [r3, #0]
 800446e:	2200      	movs	r2, #0
 8004470:	629a      	str	r2, [r3, #40]	@ 0x28
 8004472:	687b      	ldr	r3, [r7, #4]
 8004474:	681b      	ldr	r3, [r3, #0]
 8004476:	699b      	ldr	r3, [r3, #24]
 8004478:	f003 0301 	and.w	r3, r3, #1
 800447c:	2b01      	cmp	r3, #1
 800447e:	d007      	beq.n	8004490 <I2C_Flush_TXDR+0x3c>
 8004480:	687b      	ldr	r3, [r7, #4]
 8004482:	681b      	ldr	r3, [r3, #0]
 8004484:	699a      	ldr	r2, [r3, #24]
 8004486:	687b      	ldr	r3, [r7, #4]
 8004488:	681b      	ldr	r3, [r3, #0]
 800448a:	f042 0201 	orr.w	r2, r2, #1
 800448e:	619a      	str	r2, [r3, #24]
 8004490:	bf00      	nop
 8004492:	370c      	adds	r7, #12
 8004494:	46bd      	mov	sp, r7
 8004496:	f85d 7b04 	ldr.w	r7, [sp], #4
 800449a:	4770      	bx	lr

0800449c <I2C_WaitOnFlagUntilTimeout>:
 800449c:	b580      	push	{r7, lr}
 800449e:	b084      	sub	sp, #16
 80044a0:	af00      	add	r7, sp, #0
 80044a2:	60f8      	str	r0, [r7, #12]
 80044a4:	60b9      	str	r1, [r7, #8]
 80044a6:	603b      	str	r3, [r7, #0]
 80044a8:	4613      	mov	r3, r2
 80044aa:	71fb      	strb	r3, [r7, #7]
 80044ac:	e03b      	b.n	8004526 <I2C_WaitOnFlagUntilTimeout+0x8a>
 80044ae:	69ba      	ldr	r2, [r7, #24]
 80044b0:	6839      	ldr	r1, [r7, #0]
 80044b2:	68f8      	ldr	r0, [r7, #12]
 80044b4:	f000 f8d6 	bl	8004664 <I2C_IsErrorOccurred>
 80044b8:	4603      	mov	r3, r0
 80044ba:	2b00      	cmp	r3, #0
 80044bc:	d001      	beq.n	80044c2 <I2C_WaitOnFlagUntilTimeout+0x26>
 80044be:	2301      	movs	r3, #1
 80044c0:	e041      	b.n	8004546 <I2C_WaitOnFlagUntilTimeout+0xaa>
 80044c2:	683b      	ldr	r3, [r7, #0]
 80044c4:	f1b3 3fff 	cmp.w	r3, #4294967295
 80044c8:	d02d      	beq.n	8004526 <I2C_WaitOnFlagUntilTimeout+0x8a>
 80044ca:	f7fe fe33 	bl	8003134 <HAL_GetTick>
 80044ce:	4602      	mov	r2, r0
 80044d0:	69bb      	ldr	r3, [r7, #24]
 80044d2:	1ad3      	subs	r3, r2, r3
 80044d4:	683a      	ldr	r2, [r7, #0]
 80044d6:	429a      	cmp	r2, r3
 80044d8:	d302      	bcc.n	80044e0 <I2C_WaitOnFlagUntilTimeout+0x44>
 80044da:	683b      	ldr	r3, [r7, #0]
 80044dc:	2b00      	cmp	r3, #0
 80044de:	d122      	bne.n	8004526 <I2C_WaitOnFlagUntilTimeout+0x8a>
 80044e0:	68fb      	ldr	r3, [r7, #12]
 80044e2:	681b      	ldr	r3, [r3, #0]
 80044e4:	699a      	ldr	r2, [r3, #24]
 80044e6:	68bb      	ldr	r3, [r7, #8]
 80044e8:	4013      	ands	r3, r2
 80044ea:	68ba      	ldr	r2, [r7, #8]
 80044ec:	429a      	cmp	r2, r3
 80044ee:	bf0c      	ite	eq
 80044f0:	2301      	moveq	r3, #1
 80044f2:	2300      	movne	r3, #0
 80044f4:	b2db      	uxtb	r3, r3
 80044f6:	461a      	mov	r2, r3
 80044f8:	79fb      	ldrb	r3, [r7, #7]
 80044fa:	429a      	cmp	r2, r3
 80044fc:	d113      	bne.n	8004526 <I2C_WaitOnFlagUntilTimeout+0x8a>
 80044fe:	68fb      	ldr	r3, [r7, #12]
 8004500:	6c5b      	ldr	r3, [r3, #68]	@ 0x44
 8004502:	f043 0220 	orr.w	r2, r3, #32
 8004506:	68fb      	ldr	r3, [r7, #12]
 8004508:	645a      	str	r2, [r3, #68]	@ 0x44
 800450a:	68fb      	ldr	r3, [r7, #12]
 800450c:	2220      	movs	r2, #32
 800450e:	f883 2041 	strb.w	r2, [r3, #65]	@ 0x41
 8004512:	68fb      	ldr	r3, [r7, #12]
 8004514:	2200      	movs	r2, #0
 8004516:	f883 2042 	strb.w	r2, [r3, #66]	@ 0x42
 800451a:	68fb      	ldr	r3, [r7, #12]
 800451c:	2200      	movs	r2, #0
 800451e:	f883 2040 	strb.w	r2, [r3, #64]	@ 0x40
 8004522:	2301      	movs	r3, #1
 8004524:	e00f      	b.n	8004546 <I2C_WaitOnFlagUntilTimeout+0xaa>
 8004526:	68fb      	ldr	r3, [r7, #12]
 8004528:	681b      	ldr	r3, [r3, #0]
 800452a:	699a      	ldr	r2, [r3, #24]
 800452c:	68bb      	ldr	r3, [r7, #8]
 800452e:	4013      	ands	r3, r2
 8004530:	68ba      	ldr	r2, [r7, #8]
 8004532:	429a      	cmp	r2, r3
 8004534:	bf0c      	ite	eq
 8004536:	2301      	moveq	r3, #1
 8004538:	2300      	movne	r3, #0
 800453a:	b2db      	uxtb	r3, r3
 800453c:	461a      	mov	r2, r3
 800453e:	79fb      	ldrb	r3, [r7, #7]
 8004540:	429a      	cmp	r2, r3
 8004542:	d0b4      	beq.n	80044ae <I2C_WaitOnFlagUntilTimeout+0x12>
 8004544:	2300      	movs	r3, #0
 8004546:	4618      	mov	r0, r3
 8004548:	3710      	adds	r7, #16
 800454a:	46bd      	mov	sp, r7
 800454c:	bd80      	pop	{r7, pc}

0800454e <I2C_WaitOnTXISFlagUntilTimeout>:
 800454e:	b580      	push	{r7, lr}
 8004550:	b084      	sub	sp, #16
 8004552:	af00      	add	r7, sp, #0
 8004554:	60f8      	str	r0, [r7, #12]
 8004556:	60b9      	str	r1, [r7, #8]
 8004558:	607a      	str	r2, [r7, #4]
 800455a:	e033      	b.n	80045c4 <I2C_WaitOnTXISFlagUntilTimeout+0x76>
 800455c:	687a      	ldr	r2, [r7, #4]
 800455e:	68b9      	ldr	r1, [r7, #8]
 8004560:	68f8      	ldr	r0, [r7, #12]
 8004562:	f000 f87f 	bl	8004664 <I2C_IsErrorOccurred>
 8004566:	4603      	mov	r3, r0
 8004568:	2b00      	cmp	r3, #0
 800456a:	d001      	beq.n	8004570 <I2C_WaitOnTXISFlagUntilTimeout+0x22>
 800456c:	2301      	movs	r3, #1
 800456e:	e031      	b.n	80045d4 <I2C_WaitOnTXISFlagUntilTimeout+0x86>
 8004570:	68bb      	ldr	r3, [r7, #8]
 8004572:	f1b3 3fff 	cmp.w	r3, #4294967295
 8004576:	d025      	beq.n	80045c4 <I2C_WaitOnTXISFlagUntilTimeout+0x76>
 8004578:	f7fe fddc 	bl	8003134 <HAL_GetTick>
 800457c:	4602      	mov	r2, r0
 800457e:	687b      	ldr	r3, [r7, #4]
 8004580:	1ad3      	subs	r3, r2, r3
 8004582:	68ba      	ldr	r2, [r7, #8]
 8004584:	429a      	cmp	r2, r3
 8004586:	d302      	bcc.n	800458e <I2C_WaitOnTXISFlagUntilTimeout+0x40>
 8004588:	68bb      	ldr	r3, [r7, #8]
 800458a:	2b00      	cmp	r3, #0
 800458c:	d11a      	bne.n	80045c4 <I2C_WaitOnTXISFlagUntilTimeout+0x76>
 800458e:	68fb      	ldr	r3, [r7, #12]
 8004590:	681b      	ldr	r3, [r3, #0]
 8004592:	699b      	ldr	r3, [r3, #24]
 8004594:	f003 0302 	and.w	r3, r3, #2
 8004598:	2b02      	cmp	r3, #2
 800459a:	d013      	beq.n	80045c4 <I2C_WaitOnTXISFlagUntilTimeout+0x76>
 800459c:	68fb      	ldr	r3, [r7, #12]
 800459e:	6c5b      	ldr	r3, [r3, #68]	@ 0x44
 80045a0:	f043 0220 	orr.w	r2, r3, #32
 80045a4:	68fb      	ldr	r3, [r7, #12]
 80045a6:	645a      	str	r2, [r3, #68]	@ 0x44
 80045a8:	68fb      	ldr	r3, [r7, #12]
 80045aa:	2220      	movs	r2, #32
 80045ac:	f883 2041 	strb.w	r2, [r3, #65]	@ 0x41
 80045b0:	68fb      	ldr	r3, [r7, #12]
 80045b2:	2200      	movs	r2, #0
 80045b4:	f883 2042 	strb.w	r2, [r3, #66]	@ 0x42
 80045b8:	68fb      	ldr	r3, [r7, #12]
 80045ba:	2200      	movs	r2, #0
 80045bc:	f883 2040 	strb.w	r2, [r3, #64]	@ 0x40
 80045c0:	2301      	movs	r3, #1
 80045c2:	e007      	b.n	80045d4 <I2C_WaitOnTXISFlagUntilTimeout+0x86>
 80045c4:	68fb      	ldr	r3, [r7, #12]
 80045c6:	681b      	ldr	r3, [r3, #0]
 80045c8:	699b      	ldr	r3, [r3, #24]
 80045ca:	f003 0302 	and.w	r3, r3, #2
 80045ce:	2b02      	cmp	r3, #2
 80045d0:	d1c4      	bne.n	800455c <I2C_WaitOnTXISFlagUntilTimeout+0xe>
 80045d2:	2300      	movs	r3, #0
 80045d4:	4618      	mov	r0, r3
 80045d6:	3710      	adds	r7, #16
 80045d8:	46bd      	mov	sp, r7
 80045da:	bd80      	pop	{r7, pc}

080045dc <I2C_WaitOnSTOPFlagUntilTimeout>:
 80045dc:	b580      	push	{r7, lr}
 80045de:	b084      	sub	sp, #16
 80045e0:	af00      	add	r7, sp, #0
 80045e2:	60f8      	str	r0, [r7, #12]
 80045e4:	60b9      	str	r1, [r7, #8]
 80045e6:	607a      	str	r2, [r7, #4]
 80045e8:	e02f      	b.n	800464a <I2C_WaitOnSTOPFlagUntilTimeout+0x6e>
 80045ea:	687a      	ldr	r2, [r7, #4]
 80045ec:	68b9      	ldr	r1, [r7, #8]
 80045ee:	68f8      	ldr	r0, [r7, #12]
 80045f0:	f000 f838 	bl	8004664 <I2C_IsErrorOccurred>
 80045f4:	4603      	mov	r3, r0
 80045f6:	2b00      	cmp	r3, #0
 80045f8:	d001      	beq.n	80045fe <I2C_WaitOnSTOPFlagUntilTimeout+0x22>
 80045fa:	2301      	movs	r3, #1
 80045fc:	e02d      	b.n	800465a <I2C_WaitOnSTOPFlagUntilTimeout+0x7e>
 80045fe:	f7fe fd99 	bl	8003134 <HAL_GetTick>
 8004602:	4602      	mov	r2, r0
 8004604:	687b      	ldr	r3, [r7, #4]
 8004606:	1ad3      	subs	r3, r2, r3
 8004608:	68ba      	ldr	r2, [r7, #8]
 800460a:	429a      	cmp	r2, r3
 800460c:	d302      	bcc.n	8004614 <I2C_WaitOnSTOPFlagUntilTimeout+0x38>
 800460e:	68bb      	ldr	r3, [r7, #8]
 8004610:	2b00      	cmp	r3, #0
 8004612:	d11a      	bne.n	800464a <I2C_WaitOnSTOPFlagUntilTimeout+0x6e>
 8004614:	68fb      	ldr	r3, [r7, #12]
 8004616:	681b      	ldr	r3, [r3, #0]
 8004618:	699b      	ldr	r3, [r3, #24]
 800461a:	f003 0320 	and.w	r3, r3, #32
 800461e:	2b20      	cmp	r3, #32
 8004620:	d013      	beq.n	800464a <I2C_WaitOnSTOPFlagUntilTimeout+0x6e>
 8004622:	68fb      	ldr	r3, [r7, #12]
 8004624:	6c5b      	ldr	r3, [r3, #68]	@ 0x44
 8004626:	f043 0220 	orr.w	r2, r3, #32
 800462a:	68fb      	ldr	r3, [r7, #12]
 800462c:	645a      	str	r2, [r3, #68]	@ 0x44
 800462e:	68fb      	ldr	r3, [r7, #12]
 8004630:	2220      	movs	r2, #32
 8004632:	f883 2041 	strb.w	r2, [r3, #65]	@ 0x41
 8004636:	68fb      	ldr	r3, [r7, #12]
 8004638:	2200      	movs	r2, #0
 800463a:	f883 2042 	strb.w	r2, [r3, #66]	@ 0x42
 800463e:	68fb      	ldr	r3, [r7, #12]
 8004640:	2200      	movs	r2, #0
 8004642:	f883 2040 	strb.w	r2, [r3, #64]	@ 0x40
 8004646:	2301      	movs	r3, #1
 8004648:	e007      	b.n	800465a <I2C_WaitOnSTOPFlagUntilTimeout+0x7e>
 800464a:	68fb      	ldr	r3, [r7, #12]
 800464c:	681b      	ldr	r3, [r3, #0]
 800464e:	699b      	ldr	r3, [r3, #24]
 8004650:	f003 0320 	and.w	r3, r3, #32
 8004654:	2b20      	cmp	r3, #32
 8004656:	d1c8      	bne.n	80045ea <I2C_WaitOnSTOPFlagUntilTimeout+0xe>
 8004658:	2300      	movs	r3, #0
 800465a:	4618      	mov	r0, r3
 800465c:	3710      	adds	r7, #16
 800465e:	46bd      	mov	sp, r7
 8004660:	bd80      	pop	{r7, pc}
	...

08004664 <I2C_IsErrorOccurred>:
 8004664:	b580      	push	{r7, lr}
 8004666:	b08a      	sub	sp, #40	@ 0x28
 8004668:	af00      	add	r7, sp, #0
 800466a:	60f8      	str	r0, [r7, #12]
 800466c:	60b9      	str	r1, [r7, #8]
 800466e:	607a      	str	r2, [r7, #4]
 8004670:	2300      	movs	r3, #0
 8004672:	f887 3027 	strb.w	r3, [r7, #39]	@ 0x27
 8004676:	68fb      	ldr	r3, [r7, #12]
 8004678:	681b      	ldr	r3, [r3, #0]
 800467a:	699b      	ldr	r3, [r3, #24]
 800467c:	61bb      	str	r3, [r7, #24]
 800467e:	2300      	movs	r3, #0
 8004680:	623b      	str	r3, [r7, #32]
 8004682:	687b      	ldr	r3, [r7, #4]
 8004684:	61fb      	str	r3, [r7, #28]
 8004686:	69bb      	ldr	r3, [r7, #24]
 8004688:	f003 0310 	and.w	r3, r3, #16
 800468c:	2b00      	cmp	r3, #0
 800468e:	d068      	beq.n	8004762 <I2C_IsErrorOccurred+0xfe>
 8004690:	68fb      	ldr	r3, [r7, #12]
 8004692:	681b      	ldr	r3, [r3, #0]
 8004694:	2210      	movs	r2, #16
 8004696:	61da      	str	r2, [r3, #28]
 8004698:	e049      	b.n	800472e <I2C_IsErrorOccurred+0xca>
 800469a:	68bb      	ldr	r3, [r7, #8]
 800469c:	f1b3 3fff 	cmp.w	r3, #4294967295
 80046a0:	d045      	beq.n	800472e <I2C_IsErrorOccurred+0xca>
 80046a2:	f7fe fd47 	bl	8003134 <HAL_GetTick>
 80046a6:	4602      	mov	r2, r0
 80046a8:	69fb      	ldr	r3, [r7, #28]
 80046aa:	1ad3      	subs	r3, r2, r3
 80046ac:	68ba      	ldr	r2, [r7, #8]
 80046ae:	429a      	cmp	r2, r3
 80046b0:	d302      	bcc.n	80046b8 <I2C_IsErrorOccurred+0x54>
 80046b2:	68bb      	ldr	r3, [r7, #8]
 80046b4:	2b00      	cmp	r3, #0
 80046b6:	d13a      	bne.n	800472e <I2C_IsErrorOccurred+0xca>
 80046b8:	68fb      	ldr	r3, [r7, #12]
 80046ba:	681b      	ldr	r3, [r3, #0]
 80046bc:	685b      	ldr	r3, [r3, #4]
 80046be:	f403 4380 	and.w	r3, r3, #16384	@ 0x4000
 80046c2:	617b      	str	r3, [r7, #20]
 80046c4:	68fb      	ldr	r3, [r7, #12]
 80046c6:	f893 3042 	ldrb.w	r3, [r3, #66]	@ 0x42
 80046ca:	74fb      	strb	r3, [r7, #19]
 80046cc:	68fb      	ldr	r3, [r7, #12]
 80046ce:	681b      	ldr	r3, [r3, #0]
 80046d0:	699b      	ldr	r3, [r3, #24]
 80046d2:	f403 4300 	and.w	r3, r3, #32768	@ 0x8000
 80046d6:	f5b3 4f00 	cmp.w	r3, #32768	@ 0x8000
 80046da:	d121      	bne.n	8004720 <I2C_IsErrorOccurred+0xbc>
 80046dc:	697b      	ldr	r3, [r7, #20]
 80046de:	f5b3 4f80 	cmp.w	r3, #16384	@ 0x4000
 80046e2:	d01d      	beq.n	8004720 <I2C_IsErrorOccurred+0xbc>
 80046e4:	7cfb      	ldrb	r3, [r7, #19]
 80046e6:	2b20      	cmp	r3, #32
 80046e8:	d01a      	beq.n	8004720 <I2C_IsErrorOccurred+0xbc>
 80046ea:	68fb      	ldr	r3, [r7, #12]
 80046ec:	681b      	ldr	r3, [r3, #0]
 80046ee:	685a      	ldr	r2, [r3, #4]
 80046f0:	68fb      	ldr	r3, [r7, #12]
 80046f2:	681b      	ldr	r3, [r3, #0]
 80046f4:	f442 4280 	orr.w	r2, r2, #16384	@ 0x4000
 80046f8:	605a      	str	r2, [r3, #4]
 80046fa:	f7fe fd1b 	bl	8003134 <HAL_GetTick>
 80046fe:	61f8      	str	r0, [r7, #28]
 8004700:	e00e      	b.n	8004720 <I2C_IsErrorOccurred+0xbc>
 8004702:	f7fe fd17 	bl	8003134 <HAL_GetTick>
 8004706:	4602      	mov	r2, r0
 8004708:	69fb      	ldr	r3, [r7, #28]
 800470a:	1ad3      	subs	r3, r2, r3
 800470c:	2b19      	cmp	r3, #25
 800470e:	d907      	bls.n	8004720 <I2C_IsErrorOccurred+0xbc>
 8004710:	6a3b      	ldr	r3, [r7, #32]
 8004712:	f043 0320 	orr.w	r3, r3, #32
 8004716:	623b      	str	r3, [r7, #32]
 8004718:	2301      	movs	r3, #1
 800471a:	f887 3027 	strb.w	r3, [r7, #39]	@ 0x27
 800471e:	e006      	b.n	800472e <I2C_IsErrorOccurred+0xca>
 8004720:	68fb      	ldr	r3, [r7, #12]
 8004722:	681b      	ldr	r3, [r3, #0]
 8004724:	699b      	ldr	r3, [r3, #24]
 8004726:	f003 0320 	and.w	r3, r3, #32
 800472a:	2b20      	cmp	r3, #32
 800472c:	d1e9      	bne.n	8004702 <I2C_IsErrorOccurred+0x9e>
 800472e:	68fb      	ldr	r3, [r7, #12]
 8004730:	681b      	ldr	r3, [r3, #0]
 8004732:	699b      	ldr	r3, [r3, #24]
 8004734:	f003 0320 	and.w	r3, r3, #32
 8004738:	2b20      	cmp	r3, #32
 800473a:	d003      	beq.n	8004744 <I2C_IsErrorOccurred+0xe0>
 800473c:	f897 3027 	ldrb.w	r3, [r7, #39]	@ 0x27
 8004740:	2b00      	cmp	r3, #0
 8004742:	d0aa      	beq.n	800469a <I2C_IsErrorOccurred+0x36>
 8004744:	f897 3027 	ldrb.w	r3, [r7, #39]	@ 0x27
 8004748:	2b00      	cmp	r3, #0
 800474a:	d103      	bne.n	8004754 <I2C_IsErrorOccurred+0xf0>
 800474c:	68fb      	ldr	r3, [r7, #12]
 800474e:	681b      	ldr	r3, [r3, #0]
 8004750:	2220      	movs	r2, #32
 8004752:	61da      	str	r2, [r3, #28]
 8004754:	6a3b      	ldr	r3, [r7, #32]
 8004756:	f043 0304 	orr.w	r3, r3, #4
 800475a:	623b      	str	r3, [r7, #32]
 800475c:	2301      	movs	r3, #1
 800475e:	f887 3027 	strb.w	r3, [r7, #39]	@ 0x27
 8004762:	68fb      	ldr	r3, [r7, #12]
 8004764:	681b      	ldr	r3, [r3, #0]
 8004766:	699b      	ldr	r3, [r3, #24]
 8004768:	61bb      	str	r3, [r7, #24]
 800476a:	69bb      	ldr	r3, [r7, #24]
 800476c:	f403 7380 	and.w	r3, r3, #256	@ 0x100
 8004770:	2b00      	cmp	r3, #0
 8004772:	d00b      	beq.n	800478c <I2C_IsErrorOccurred+0x128>
 8004774:	6a3b      	ldr	r3, [r7, #32]
 8004776:	f043 0301 	orr.w	r3, r3, #1
 800477a:	623b      	str	r3, [r7, #32]
 800477c:	68fb      	ldr	r3, [r7, #12]
 800477e:	681b      	ldr	r3, [r3, #0]
 8004780:	f44f 7280 	mov.w	r2, #256	@ 0x100
 8004784:	61da      	str	r2, [r3, #28]
 8004786:	2301      	movs	r3, #1
 8004788:	f887 3027 	strb.w	r3, [r7, #39]	@ 0x27
 800478c:	69bb      	ldr	r3, [r7, #24]
 800478e:	f403 6380 	and.w	r3, r3, #1024	@ 0x400
 8004792:	2b00      	cmp	r3, #0
 8004794:	d00b      	beq.n	80047ae <I2C_IsErrorOccurred+0x14a>
 8004796:	6a3b      	ldr	r3, [r7, #32]
 8004798:	f043 0308 	orr.w	r3, r3, #8
 800479c:	623b      	str	r3, [r7, #32]
 800479e:	68fb      	ldr	r3, [r7, #12]
 80047a0:	681b      	ldr	r3, [r3, #0]
 80047a2:	f44f 6280 	mov.w	r2, #1024	@ 0x400
 80047a6:	61da      	str	r2, [r3, #28]
 80047a8:	2301      	movs	r3, #1
 80047aa:	f887 3027 	strb.w	r3, [r7, #39]	@ 0x27
 80047ae:	69bb      	ldr	r3, [r7, #24]
 80047b0:	f403 7300 	and.w	r3, r3, #512	@ 0x200
 80047b4:	2b00      	cmp	r3, #0
 80047b6:	d00b      	beq.n	80047d0 <I2C_IsErrorOccurred+0x16c>
 80047b8:	6a3b      	ldr	r3, [r7, #32]
 80047ba:	f043 0302 	orr.w	r3, r3, #2
 80047be:	623b      	str	r3, [r7, #32]
 80047c0:	68fb      	ldr	r3, [r7, #12]
 80047c2:	681b      	ldr	r3, [r3, #0]
 80047c4:	f44f 7200 	mov.w	r2, #512	@ 0x200
 80047c8:	61da      	str	r2, [r3, #28]
 80047ca:	2301      	movs	r3, #1
 80047cc:	f887 3027 	strb.w	r3, [r7, #39]	@ 0x27
 80047d0:	f897 3027 	ldrb.w	r3, [r7, #39]	@ 0x27
 80047d4:	2b00      	cmp	r3, #0
 80047d6:	d01c      	beq.n	8004812 <I2C_IsErrorOccurred+0x1ae>
 80047d8:	68f8      	ldr	r0, [r7, #12]
 80047da:	f7ff fe3b 	bl	8004454 <I2C_Flush_TXDR>
 80047de:	68fb      	ldr	r3, [r7, #12]
 80047e0:	681b      	ldr	r3, [r3, #0]
 80047e2:	6859      	ldr	r1, [r3, #4]
 80047e4:	68fb      	ldr	r3, [r7, #12]
 80047e6:	681a      	ldr	r2, [r3, #0]
 80047e8:	4b0d      	ldr	r3, [pc, #52]	@ (8004820 <I2C_IsErrorOccurred+0x1bc>)
 80047ea:	400b      	ands	r3, r1
 80047ec:	6053      	str	r3, [r2, #4]
 80047ee:	68fb      	ldr	r3, [r7, #12]
 80047f0:	6c5a      	ldr	r2, [r3, #68]	@ 0x44
 80047f2:	6a3b      	ldr	r3, [r7, #32]
 80047f4:	431a      	orrs	r2, r3
 80047f6:	68fb      	ldr	r3, [r7, #12]
 80047f8:	645a      	str	r2, [r3, #68]	@ 0x44
 80047fa:	68fb      	ldr	r3, [r7, #12]
 80047fc:	2220      	movs	r2, #32
 80047fe:	f883 2041 	strb.w	r2, [r3, #65]	@ 0x41
 8004802:	68fb      	ldr	r3, [r7, #12]
 8004804:	2200      	movs	r2, #0
 8004806:	f883 2042 	strb.w	r2, [r3, #66]	@ 0x42
 800480a:	68fb      	ldr	r3, [r7, #12]
 800480c:	2200      	movs	r2, #0
 800480e:	f883 2040 	strb.w	r2, [r3, #64]	@ 0x40
 8004812:	f897 3027 	ldrb.w	r3, [r7, #39]	@ 0x27
 8004816:	4618      	mov	r0, r3
 8004818:	3728      	adds	r7, #40	@ 0x28
 800481a:	46bd      	mov	sp, r7
 800481c:	bd80      	pop	{r7, pc}
 800481e:	bf00      	nop
 8004820:	fe00e800 	.word	0xfe00e800

08004824 <I2C_TransferConfig>:
 8004824:	b480      	push	{r7}
 8004826:	b087      	sub	sp, #28
 8004828:	af00      	add	r7, sp, #0
 800482a:	60f8      	str	r0, [r7, #12]
 800482c:	607b      	str	r3, [r7, #4]
 800482e:	460b      	mov	r3, r1
 8004830:	817b      	strh	r3, [r7, #10]
 8004832:	4613      	mov	r3, r2
 8004834:	727b      	strb	r3, [r7, #9]
 8004836:	897b      	ldrh	r3, [r7, #10]
 8004838:	f3c3 0209 	ubfx	r2, r3, #0, #10
 800483c:	7a7b      	ldrb	r3, [r7, #9]
 800483e:	041b      	lsls	r3, r3, #16
 8004840:	f403 037f 	and.w	r3, r3, #16711680	@ 0xff0000
 8004844:	431a      	orrs	r2, r3
 8004846:	687b      	ldr	r3, [r7, #4]
 8004848:	431a      	orrs	r2, r3
 800484a:	6a3b      	ldr	r3, [r7, #32]
 800484c:	4313      	orrs	r3, r2
 800484e:	f023 4300 	bic.w	r3, r3, #2147483648	@ 0x80000000
 8004852:	617b      	str	r3, [r7, #20]
 8004854:	68fb      	ldr	r3, [r7, #12]
 8004856:	681b      	ldr	r3, [r3, #0]
 8004858:	685a      	ldr	r2, [r3, #4]
 800485a:	6a3b      	ldr	r3, [r7, #32]
 800485c:	0d5b      	lsrs	r3, r3, #21
 800485e:	f403 6180 	and.w	r1, r3, #1024	@ 0x400
 8004862:	4b08      	ldr	r3, [pc, #32]	@ (8004884 <I2C_TransferConfig+0x60>)
 8004864:	430b      	orrs	r3, r1
 8004866:	43db      	mvns	r3, r3
 8004868:	ea02 0103 	and.w	r1, r2, r3
 800486c:	68fb      	ldr	r3, [r7, #12]
 800486e:	681b      	ldr	r3, [r3, #0]
 8004870:	697a      	ldr	r2, [r7, #20]
 8004872:	430a      	orrs	r2, r1
 8004874:	605a      	str	r2, [r3, #4]
 8004876:	bf00      	nop
 8004878:	371c      	adds	r7, #28
 800487a:	46bd      	mov	sp, r7
 800487c:	f85d 7b04 	ldr.w	r7, [sp], #4
 8004880:	4770      	bx	lr
 8004882:	bf00      	nop
 8004884:	03ff63ff 	.word	0x03ff63ff

08004888 <HAL_I2CEx_ConfigAnalogFilter>:
 8004888:	b480      	push	{r7}
 800488a:	b083      	sub	sp, #12
 800488c:	af00      	add	r7, sp, #0
 800488e:	6078      	str	r0, [r7, #4]
 8004890:	6039      	str	r1, [r7, #0]
 8004892:	687b      	ldr	r3, [r7, #4]
 8004894:	f893 3041 	ldrb.w	r3, [r3, #65]	@ 0x41
 8004898:	b2db      	uxtb	r3, r3
 800489a:	2b20      	cmp	r3, #32
 800489c:	d138      	bne.n	8004910 <HAL_I2CEx_ConfigAnalogFilter+0x88>
 800489e:	687b      	ldr	r3, [r7, #4]
 80048a0:	f893 3040 	ldrb.w	r3, [r3, #64]	@ 0x40
 80048a4:	2b01      	cmp	r3, #1
 80048a6:	d101      	bne.n	80048ac <HAL_I2CEx_ConfigAnalogFilter+0x24>
 80048a8:	2302      	movs	r3, #2
 80048aa:	e032      	b.n	8004912 <HAL_I2CEx_ConfigAnalogFilter+0x8a>
 80048ac:	687b      	ldr	r3, [r7, #4]
 80048ae:	2201      	movs	r2, #1
 80048b0:	f883 2040 	strb.w	r2, [r3, #64]	@ 0x40
 80048b4:	687b      	ldr	r3, [r7, #4]
 80048b6:	2224      	movs	r2, #36	@ 0x24
 80048b8:	f883 2041 	strb.w	r2, [r3, #65]	@ 0x41
 80048bc:	687b      	ldr	r3, [r7, #4]
 80048be:	681b      	ldr	r3, [r3, #0]
 80048c0:	681a      	ldr	r2, [r3, #0]
 80048c2:	687b      	ldr	r3, [r7, #4]
 80048c4:	681b      	ldr	r3, [r3, #0]
 80048c6:	f022 0201 	bic.w	r2, r2, #1
 80048ca:	601a      	str	r2, [r3, #0]
 80048cc:	687b      	ldr	r3, [r7, #4]
 80048ce:	681b      	ldr	r3, [r3, #0]
 80048d0:	681a      	ldr	r2, [r3, #0]
 80048d2:	687b      	ldr	r3, [r7, #4]
 80048d4:	681b      	ldr	r3, [r3, #0]
 80048d6:	f422 5280 	bic.w	r2, r2, #4096	@ 0x1000
 80048da:	601a      	str	r2, [r3, #0]
 80048dc:	687b      	ldr	r3, [r7, #4]
 80048de:	681b      	ldr	r3, [r3, #0]
 80048e0:	6819      	ldr	r1, [r3, #0]
 80048e2:	687b      	ldr	r3, [r7, #4]
 80048e4:	681b      	ldr	r3, [r3, #0]
 80048e6:	683a      	ldr	r2, [r7, #0]
 80048e8:	430a      	orrs	r2, r1
 80048ea:	601a      	str	r2, [r3, #0]
 80048ec:	687b      	ldr	r3, [r7, #4]
 80048ee:	681b      	ldr	r3, [r3, #0]
 80048f0:	681a      	ldr	r2, [r3, #0]
 80048f2:	687b      	ldr	r3, [r7, #4]
 80048f4:	681b      	ldr	r3, [r3, #0]
 80048f6:	f042 0201 	orr.w	r2, r2, #1
 80048fa:	601a      	str	r2, [r3, #0]
 80048fc:	687b      	ldr	r3, [r7, #4]
 80048fe:	2220      	movs	r2, #32
 8004900:	f883 2041 	strb.w	r2, [r3, #65]	@ 0x41
 8004904:	687b      	ldr	r3, [r7, #4]
 8004906:	2200      	movs	r2, #0
 8004908:	f883 2040 	strb.w	r2, [r3, #64]	@ 0x40
 800490c:	2300      	movs	r3, #0
 800490e:	e000      	b.n	8004912 <HAL_I2CEx_ConfigAnalogFilter+0x8a>
 8004910:	2302      	movs	r3, #2
 8004912:	4618      	mov	r0, r3
 8004914:	370c      	adds	r7, #12
 8004916:	46bd      	mov	sp, r7
 8004918:	f85d 7b04 	ldr.w	r7, [sp], #4
 800491c:	4770      	bx	lr

0800491e <HAL_I2CEx_ConfigDigitalFilter>:
 800491e:	b480      	push	{r7}
 8004920:	b085      	sub	sp, #20
 8004922:	af00      	add	r7, sp, #0
 8004924:	6078      	str	r0, [r7, #4]
 8004926:	6039      	str	r1, [r7, #0]
 8004928:	687b      	ldr	r3, [r7, #4]
 800492a:	f893 3041 	ldrb.w	r3, [r3, #65]	@ 0x41
 800492e:	b2db      	uxtb	r3, r3
 8004930:	2b20      	cmp	r3, #32
 8004932:	d139      	bne.n	80049a8 <HAL_I2CEx_ConfigDigitalFilter+0x8a>
 8004934:	687b      	ldr	r3, [r7, #4]
 8004936:	f893 3040 	ldrb.w	r3, [r3, #64]	@ 0x40
 800493a:	2b01      	cmp	r3, #1
 800493c:	d101      	bne.n	8004942 <HAL_I2CEx_ConfigDigitalFilter+0x24>
 800493e:	2302      	movs	r3, #2
 8004940:	e033      	b.n	80049aa <HAL_I2CEx_ConfigDigitalFilter+0x8c>
 8004942:	687b      	ldr	r3, [r7, #4]
 8004944:	2201      	movs	r2, #1
 8004946:	f883 2040 	strb.w	r2, [r3, #64]	@ 0x40
 800494a:	687b      	ldr	r3, [r7, #4]
 800494c:	2224      	movs	r2, #36	@ 0x24
 800494e:	f883 2041 	strb.w	r2, [r3, #65]	@ 0x41
 8004952:	687b      	ldr	r3, [r7, #4]
 8004954:	681b      	ldr	r3, [r3, #0]
 8004956:	681a      	ldr	r2, [r3, #0]
 8004958:	687b      	ldr	r3, [r7, #4]
 800495a:	681b      	ldr	r3, [r3, #0]
 800495c:	f022 0201 	bic.w	r2, r2, #1
 8004960:	601a      	str	r2, [r3, #0]
 8004962:	687b      	ldr	r3, [r7, #4]
 8004964:	681b      	ldr	r3, [r3, #0]
 8004966:	681b      	ldr	r3, [r3, #0]
 8004968:	60fb      	str	r3, [r7, #12]
 800496a:	68fb      	ldr	r3, [r7, #12]
 800496c:	f423 6370 	bic.w	r3, r3, #3840	@ 0xf00
 8004970:	60fb      	str	r3, [r7, #12]
 8004972:	683b      	ldr	r3, [r7, #0]
 8004974:	021b      	lsls	r3, r3, #8
 8004976:	68fa      	ldr	r2, [r7, #12]
 8004978:	4313      	orrs	r3, r2
 800497a:	60fb      	str	r3, [r7, #12]
 800497c:	687b      	ldr	r3, [r7, #4]
 800497e:	681b      	ldr	r3, [r3, #0]
 8004980:	68fa      	ldr	r2, [r7, #12]
 8004982:	601a      	str	r2, [r3, #0]
 8004984:	687b      	ldr	r3, [r7, #4]
 8004986:	681b      	ldr	r3, [r3, #0]
 8004988:	681a      	ldr	r2, [r3, #0]
 800498a:	687b      	ldr	r3, [r7, #4]
 800498c:	681b      	ldr	r3, [r3, #0]
 800498e:	f042 0201 	orr.w	r2, r2, #1
 8004992:	601a      	str	r2, [r3, #0]
 8004994:	687b      	ldr	r3, [r7, #4]
 8004996:	2220      	movs	r2, #32
 8004998:	f883 2041 	strb.w	r2, [r3, #65]	@ 0x41
 800499c:	687b      	ldr	r3, [r7, #4]
 800499e:	2200      	movs	r2, #0
 80049a0:	f883 2040 	strb.w	r2, [r3, #64]	@ 0x40
 80049a4:	2300      	movs	r3, #0
 80049a6:	e000      	b.n	80049aa <HAL_I2CEx_ConfigDigitalFilter+0x8c>
 80049a8:	2302      	movs	r3, #2
 80049aa:	4618      	mov	r0, r3
 80049ac:	3714      	adds	r7, #20
 80049ae:	46bd      	mov	sp, r7
 80049b0:	f85d 7b04 	ldr.w	r7, [sp], #4
 80049b4:	4770      	bx	lr
	...

080049b8 <HAL_I2CEx_EnableFastModePlus>:
 80049b8:	b480      	push	{r7}
 80049ba:	b085      	sub	sp, #20
 80049bc:	af00      	add	r7, sp, #0
 80049be:	6078      	str	r0, [r7, #4]
 80049c0:	4b0b      	ldr	r3, [pc, #44]	@ (80049f0 <HAL_I2CEx_EnableFastModePlus+0x38>)
 80049c2:	6c5b      	ldr	r3, [r3, #68]	@ 0x44
 80049c4:	4a0a      	ldr	r2, [pc, #40]	@ (80049f0 <HAL_I2CEx_EnableFastModePlus+0x38>)
 80049c6:	f443 4380 	orr.w	r3, r3, #16384	@ 0x4000
 80049ca:	6453      	str	r3, [r2, #68]	@ 0x44
 80049cc:	4b08      	ldr	r3, [pc, #32]	@ (80049f0 <HAL_I2CEx_EnableFastModePlus+0x38>)
 80049ce:	6c5b      	ldr	r3, [r3, #68]	@ 0x44
 80049d0:	f403 4380 	and.w	r3, r3, #16384	@ 0x4000
 80049d4:	60fb      	str	r3, [r7, #12]
 80049d6:	68fb      	ldr	r3, [r7, #12]
 80049d8:	4b06      	ldr	r3, [pc, #24]	@ (80049f4 <HAL_I2CEx_EnableFastModePlus+0x3c>)
 80049da:	685a      	ldr	r2, [r3, #4]
 80049dc:	4905      	ldr	r1, [pc, #20]	@ (80049f4 <HAL_I2CEx_EnableFastModePlus+0x3c>)
 80049de:	687b      	ldr	r3, [r7, #4]
 80049e0:	4313      	orrs	r3, r2
 80049e2:	604b      	str	r3, [r1, #4]
 80049e4:	bf00      	nop
 80049e6:	3714      	adds	r7, #20
 80049e8:	46bd      	mov	sp, r7
 80049ea:	f85d 7b04 	ldr.w	r7, [sp], #4
 80049ee:	4770      	bx	lr
 80049f0:	40023800 	.word	0x40023800
 80049f4:	40013800 	.word	0x40013800

080049f8 <HAL_PCD_Init>:
 80049f8:	b580      	push	{r7, lr}
 80049fa:	b086      	sub	sp, #24
 80049fc:	af02      	add	r7, sp, #8
 80049fe:	6078      	str	r0, [r7, #4]
 8004a00:	687b      	ldr	r3, [r7, #4]
 8004a02:	2b00      	cmp	r3, #0
 8004a04:	d101      	bne.n	8004a0a <HAL_PCD_Init+0x12>
 8004a06:	2301      	movs	r3, #1
 8004a08:	e108      	b.n	8004c1c <HAL_PCD_Init+0x224>
 8004a0a:	687b      	ldr	r3, [r7, #4]
 8004a0c:	681b      	ldr	r3, [r3, #0]
 8004a0e:	60bb      	str	r3, [r7, #8]
 8004a10:	687b      	ldr	r3, [r7, #4]
 8004a12:	f893 3495 	ldrb.w	r3, [r3, #1173]	@ 0x495
 8004a16:	b2db      	uxtb	r3, r3
 8004a18:	2b00      	cmp	r3, #0
 8004a1a:	d106      	bne.n	8004a2a <HAL_PCD_Init+0x32>
 8004a1c:	687b      	ldr	r3, [r7, #4]
 8004a1e:	2200      	movs	r2, #0
 8004a20:	f883 2494 	strb.w	r2, [r3, #1172]	@ 0x494
 8004a24:	6878      	ldr	r0, [r7, #4]
 8004a26:	f7fd fe97 	bl	8002758 <HAL_PCD_MspInit>
 8004a2a:	687b      	ldr	r3, [r7, #4]
 8004a2c:	2203      	movs	r2, #3
 8004a2e:	f883 2495 	strb.w	r2, [r3, #1173]	@ 0x495
 8004a32:	68bb      	ldr	r3, [r7, #8]
 8004a34:	f1b3 4fa0 	cmp.w	r3, #1342177280	@ 0x50000000
 8004a38:	d102      	bne.n	8004a40 <HAL_PCD_Init+0x48>
 8004a3a:	687b      	ldr	r3, [r7, #4]
 8004a3c:	2200      	movs	r2, #0
 8004a3e:	719a      	strb	r2, [r3, #6]
 8004a40:	687b      	ldr	r3, [r7, #4]
 8004a42:	681b      	ldr	r3, [r3, #0]
 8004a44:	4618      	mov	r0, r3
 8004a46:	f003 f951 	bl	8007cec <USB_DisableGlobalInt>
 8004a4a:	687b      	ldr	r3, [r7, #4]
 8004a4c:	6818      	ldr	r0, [r3, #0]
 8004a4e:	687b      	ldr	r3, [r7, #4]
 8004a50:	7c1a      	ldrb	r2, [r3, #16]
 8004a52:	f88d 2000 	strb.w	r2, [sp]
 8004a56:	3304      	adds	r3, #4
 8004a58:	cb0e      	ldmia	r3, {r1, r2, r3}
 8004a5a:	f003 f8ed 	bl	8007c38 <USB_CoreInit>
 8004a5e:	4603      	mov	r3, r0
 8004a60:	2b00      	cmp	r3, #0
 8004a62:	d005      	beq.n	8004a70 <HAL_PCD_Init+0x78>
 8004a64:	687b      	ldr	r3, [r7, #4]
 8004a66:	2202      	movs	r2, #2
 8004a68:	f883 2495 	strb.w	r2, [r3, #1173]	@ 0x495
 8004a6c:	2301      	movs	r3, #1
 8004a6e:	e0d5      	b.n	8004c1c <HAL_PCD_Init+0x224>
 8004a70:	687b      	ldr	r3, [r7, #4]
 8004a72:	681b      	ldr	r3, [r3, #0]
 8004a74:	2100      	movs	r1, #0
 8004a76:	4618      	mov	r0, r3
 8004a78:	f003 f949 	bl	8007d0e <USB_SetCurrentMode>
 8004a7c:	4603      	mov	r3, r0
 8004a7e:	2b00      	cmp	r3, #0
 8004a80:	d005      	beq.n	8004a8e <HAL_PCD_Init+0x96>
 8004a82:	687b      	ldr	r3, [r7, #4]
 8004a84:	2202      	movs	r2, #2
 8004a86:	f883 2495 	strb.w	r2, [r3, #1173]	@ 0x495
 8004a8a:	2301      	movs	r3, #1
 8004a8c:	e0c6      	b.n	8004c1c <HAL_PCD_Init+0x224>
 8004a8e:	2300      	movs	r3, #0
 8004a90:	73fb      	strb	r3, [r7, #15]
 8004a92:	e04a      	b.n	8004b2a <HAL_PCD_Init+0x132>
 8004a94:	7bfa      	ldrb	r2, [r7, #15]
 8004a96:	6879      	ldr	r1, [r7, #4]
 8004a98:	4613      	mov	r3, r2
 8004a9a:	00db      	lsls	r3, r3, #3
 8004a9c:	4413      	add	r3, r2
 8004a9e:	009b      	lsls	r3, r3, #2
 8004aa0:	440b      	add	r3, r1
 8004aa2:	3315      	adds	r3, #21
 8004aa4:	2201      	movs	r2, #1
 8004aa6:	701a      	strb	r2, [r3, #0]
 8004aa8:	7bfa      	ldrb	r2, [r7, #15]
 8004aaa:	6879      	ldr	r1, [r7, #4]
 8004aac:	4613      	mov	r3, r2
 8004aae:	00db      	lsls	r3, r3, #3
 8004ab0:	4413      	add	r3, r2
 8004ab2:	009b      	lsls	r3, r3, #2
 8004ab4:	440b      	add	r3, r1
 8004ab6:	3314      	adds	r3, #20
 8004ab8:	7bfa      	ldrb	r2, [r7, #15]
 8004aba:	701a      	strb	r2, [r3, #0]
 8004abc:	7bfa      	ldrb	r2, [r7, #15]
 8004abe:	7bfb      	ldrb	r3, [r7, #15]
 8004ac0:	b298      	uxth	r0, r3
 8004ac2:	6879      	ldr	r1, [r7, #4]
 8004ac4:	4613      	mov	r3, r2
 8004ac6:	00db      	lsls	r3, r3, #3
 8004ac8:	4413      	add	r3, r2
 8004aca:	009b      	lsls	r3, r3, #2
 8004acc:	440b      	add	r3, r1
 8004ace:	332e      	adds	r3, #46	@ 0x2e
 8004ad0:	4602      	mov	r2, r0
 8004ad2:	801a      	strh	r2, [r3, #0]
 8004ad4:	7bfa      	ldrb	r2, [r7, #15]
 8004ad6:	6879      	ldr	r1, [r7, #4]
 8004ad8:	4613      	mov	r3, r2
 8004ada:	00db      	lsls	r3, r3, #3
 8004adc:	4413      	add	r3, r2
 8004ade:	009b      	lsls	r3, r3, #2
 8004ae0:	440b      	add	r3, r1
 8004ae2:	3318      	adds	r3, #24
 8004ae4:	2200      	movs	r2, #0
 8004ae6:	701a      	strb	r2, [r3, #0]
 8004ae8:	7bfa      	ldrb	r2, [r7, #15]
 8004aea:	6879      	ldr	r1, [r7, #4]
 8004aec:	4613      	mov	r3, r2
 8004aee:	00db      	lsls	r3, r3, #3
 8004af0:	4413      	add	r3, r2
 8004af2:	009b      	lsls	r3, r3, #2
 8004af4:	440b      	add	r3, r1
 8004af6:	331c      	adds	r3, #28
 8004af8:	2200      	movs	r2, #0
 8004afa:	601a      	str	r2, [r3, #0]
 8004afc:	7bfa      	ldrb	r2, [r7, #15]
 8004afe:	6879      	ldr	r1, [r7, #4]
 8004b00:	4613      	mov	r3, r2
 8004b02:	00db      	lsls	r3, r3, #3
 8004b04:	4413      	add	r3, r2
 8004b06:	009b      	lsls	r3, r3, #2
 8004b08:	440b      	add	r3, r1
 8004b0a:	3320      	adds	r3, #32
 8004b0c:	2200      	movs	r2, #0
 8004b0e:	601a      	str	r2, [r3, #0]
 8004b10:	7bfa      	ldrb	r2, [r7, #15]
 8004b12:	6879      	ldr	r1, [r7, #4]
 8004b14:	4613      	mov	r3, r2
 8004b16:	00db      	lsls	r3, r3, #3
 8004b18:	4413      	add	r3, r2
 8004b1a:	009b      	lsls	r3, r3, #2
 8004b1c:	440b      	add	r3, r1
 8004b1e:	3324      	adds	r3, #36	@ 0x24
 8004b20:	2200      	movs	r2, #0
 8004b22:	601a      	str	r2, [r3, #0]
 8004b24:	7bfb      	ldrb	r3, [r7, #15]
 8004b26:	3301      	adds	r3, #1
 8004b28:	73fb      	strb	r3, [r7, #15]
 8004b2a:	687b      	ldr	r3, [r7, #4]
 8004b2c:	791b      	ldrb	r3, [r3, #4]
 8004b2e:	7bfa      	ldrb	r2, [r7, #15]
 8004b30:	429a      	cmp	r2, r3
 8004b32:	d3af      	bcc.n	8004a94 <HAL_PCD_Init+0x9c>
 8004b34:	2300      	movs	r3, #0
 8004b36:	73fb      	strb	r3, [r7, #15]
 8004b38:	e044      	b.n	8004bc4 <HAL_PCD_Init+0x1cc>
 8004b3a:	7bfa      	ldrb	r2, [r7, #15]
 8004b3c:	6879      	ldr	r1, [r7, #4]
 8004b3e:	4613      	mov	r3, r2
 8004b40:	00db      	lsls	r3, r3, #3
 8004b42:	4413      	add	r3, r2
 8004b44:	009b      	lsls	r3, r3, #2
 8004b46:	440b      	add	r3, r1
 8004b48:	f203 2355 	addw	r3, r3, #597	@ 0x255
 8004b4c:	2200      	movs	r2, #0
 8004b4e:	701a      	strb	r2, [r3, #0]
 8004b50:	7bfa      	ldrb	r2, [r7, #15]
 8004b52:	6879      	ldr	r1, [r7, #4]
 8004b54:	4613      	mov	r3, r2
 8004b56:	00db      	lsls	r3, r3, #3
 8004b58:	4413      	add	r3, r2
 8004b5a:	009b      	lsls	r3, r3, #2
 8004b5c:	440b      	add	r3, r1
 8004b5e:	f503 7315 	add.w	r3, r3, #596	@ 0x254
 8004b62:	7bfa      	ldrb	r2, [r7, #15]
 8004b64:	701a      	strb	r2, [r3, #0]
 8004b66:	7bfa      	ldrb	r2, [r7, #15]
 8004b68:	6879      	ldr	r1, [r7, #4]
 8004b6a:	4613      	mov	r3, r2
 8004b6c:	00db      	lsls	r3, r3, #3
 8004b6e:	4413      	add	r3, r2
 8004b70:	009b      	lsls	r3, r3, #2
 8004b72:	440b      	add	r3, r1
 8004b74:	f503 7316 	add.w	r3, r3, #600	@ 0x258
 8004b78:	2200      	movs	r2, #0
 8004b7a:	701a      	strb	r2, [r3, #0]
 8004b7c:	7bfa      	ldrb	r2, [r7, #15]
 8004b7e:	6879      	ldr	r1, [r7, #4]
 8004b80:	4613      	mov	r3, r2
 8004b82:	00db      	lsls	r3, r3, #3
 8004b84:	4413      	add	r3, r2
 8004b86:	009b      	lsls	r3, r3, #2
 8004b88:	440b      	add	r3, r1
 8004b8a:	f503 7317 	add.w	r3, r3, #604	@ 0x25c
 8004b8e:	2200      	movs	r2, #0
 8004b90:	601a      	str	r2, [r3, #0]
 8004b92:	7bfa      	ldrb	r2, [r7, #15]
 8004b94:	6879      	ldr	r1, [r7, #4]
 8004b96:	4613      	mov	r3, r2
 8004b98:	00db      	lsls	r3, r3, #3
 8004b9a:	4413      	add	r3, r2
 8004b9c:	009b      	lsls	r3, r3, #2
 8004b9e:	440b      	add	r3, r1
 8004ba0:	f503 7318 	add.w	r3, r3, #608	@ 0x260
 8004ba4:	2200      	movs	r2, #0
 8004ba6:	601a      	str	r2, [r3, #0]
 8004ba8:	7bfa      	ldrb	r2, [r7, #15]
 8004baa:	6879      	ldr	r1, [r7, #4]
 8004bac:	4613      	mov	r3, r2
 8004bae:	00db      	lsls	r3, r3, #3
 8004bb0:	4413      	add	r3, r2
 8004bb2:	009b      	lsls	r3, r3, #2
 8004bb4:	440b      	add	r3, r1
 8004bb6:	f503 7319 	add.w	r3, r3, #612	@ 0x264
 8004bba:	2200      	movs	r2, #0
 8004bbc:	601a      	str	r2, [r3, #0]
 8004bbe:	7bfb      	ldrb	r3, [r7, #15]
 8004bc0:	3301      	adds	r3, #1
 8004bc2:	73fb      	strb	r3, [r7, #15]
 8004bc4:	687b      	ldr	r3, [r7, #4]
 8004bc6:	791b      	ldrb	r3, [r3, #4]
 8004bc8:	7bfa      	ldrb	r2, [r7, #15]
 8004bca:	429a      	cmp	r2, r3
 8004bcc:	d3b5      	bcc.n	8004b3a <HAL_PCD_Init+0x142>
 8004bce:	687b      	ldr	r3, [r7, #4]
 8004bd0:	6818      	ldr	r0, [r3, #0]
 8004bd2:	687b      	ldr	r3, [r7, #4]
 8004bd4:	7c1a      	ldrb	r2, [r3, #16]
 8004bd6:	f88d 2000 	strb.w	r2, [sp]
 8004bda:	3304      	adds	r3, #4
 8004bdc:	cb0e      	ldmia	r3, {r1, r2, r3}
 8004bde:	f003 f8e3 	bl	8007da8 <USB_DevInit>
 8004be2:	4603      	mov	r3, r0
 8004be4:	2b00      	cmp	r3, #0
 8004be6:	d005      	beq.n	8004bf4 <HAL_PCD_Init+0x1fc>
 8004be8:	687b      	ldr	r3, [r7, #4]
 8004bea:	2202      	movs	r2, #2
 8004bec:	f883 2495 	strb.w	r2, [r3, #1173]	@ 0x495
 8004bf0:	2301      	movs	r3, #1
 8004bf2:	e013      	b.n	8004c1c <HAL_PCD_Init+0x224>
 8004bf4:	687b      	ldr	r3, [r7, #4]
 8004bf6:	2200      	movs	r2, #0
 8004bf8:	745a      	strb	r2, [r3, #17]
 8004bfa:	687b      	ldr	r3, [r7, #4]
 8004bfc:	2201      	movs	r2, #1
 8004bfe:	f883 2495 	strb.w	r2, [r3, #1173]	@ 0x495
 8004c02:	687b      	ldr	r3, [r7, #4]
 8004c04:	7b1b      	ldrb	r3, [r3, #12]
 8004c06:	2b01      	cmp	r3, #1
 8004c08:	d102      	bne.n	8004c10 <HAL_PCD_Init+0x218>
 8004c0a:	6878      	ldr	r0, [r7, #4]
 8004c0c:	f000 f80a 	bl	8004c24 <HAL_PCDEx_ActivateLPM>
 8004c10:	687b      	ldr	r3, [r7, #4]
 8004c12:	681b      	ldr	r3, [r3, #0]
 8004c14:	4618      	mov	r0, r3
 8004c16:	f003 fa9e 	bl	8008156 <USB_DevDisconnect>
 8004c1a:	2300      	movs	r3, #0
 8004c1c:	4618      	mov	r0, r3
 8004c1e:	3710      	adds	r7, #16
 8004c20:	46bd      	mov	sp, r7
 8004c22:	bd80      	pop	{r7, pc}

08004c24 <HAL_PCDEx_ActivateLPM>:
 8004c24:	b480      	push	{r7}
 8004c26:	b085      	sub	sp, #20
 8004c28:	af00      	add	r7, sp, #0
 8004c2a:	6078      	str	r0, [r7, #4]
 8004c2c:	687b      	ldr	r3, [r7, #4]
 8004c2e:	681b      	ldr	r3, [r3, #0]
 8004c30:	60fb      	str	r3, [r7, #12]
 8004c32:	687b      	ldr	r3, [r7, #4]
 8004c34:	2201      	movs	r2, #1
 8004c36:	f8c3 24d8 	str.w	r2, [r3, #1240]	@ 0x4d8
 8004c3a:	687b      	ldr	r3, [r7, #4]
 8004c3c:	2200      	movs	r2, #0
 8004c3e:	f883 24cc 	strb.w	r2, [r3, #1228]	@ 0x4cc
 8004c42:	68fb      	ldr	r3, [r7, #12]
 8004c44:	699b      	ldr	r3, [r3, #24]
 8004c46:	f043 6200 	orr.w	r2, r3, #134217728	@ 0x8000000
 8004c4a:	68fb      	ldr	r3, [r7, #12]
 8004c4c:	619a      	str	r2, [r3, #24]
 8004c4e:	68fb      	ldr	r3, [r7, #12]
 8004c50:	6d5a      	ldr	r2, [r3, #84]	@ 0x54
 8004c52:	4b05      	ldr	r3, [pc, #20]	@ (8004c68 <HAL_PCDEx_ActivateLPM+0x44>)
 8004c54:	4313      	orrs	r3, r2
 8004c56:	68fa      	ldr	r2, [r7, #12]
 8004c58:	6553      	str	r3, [r2, #84]	@ 0x54
 8004c5a:	2300      	movs	r3, #0
 8004c5c:	4618      	mov	r0, r3
 8004c5e:	3714      	adds	r7, #20
 8004c60:	46bd      	mov	sp, r7
 8004c62:	f85d 7b04 	ldr.w	r7, [sp], #4
 8004c66:	4770      	bx	lr
 8004c68:	10000003 	.word	0x10000003

08004c6c <HAL_PWR_EnableBkUpAccess>:
 8004c6c:	b480      	push	{r7}
 8004c6e:	af00      	add	r7, sp, #0
 8004c70:	4b05      	ldr	r3, [pc, #20]	@ (8004c88 <HAL_PWR_EnableBkUpAccess+0x1c>)
 8004c72:	681b      	ldr	r3, [r3, #0]
 8004c74:	4a04      	ldr	r2, [pc, #16]	@ (8004c88 <HAL_PWR_EnableBkUpAccess+0x1c>)
 8004c76:	f443 7380 	orr.w	r3, r3, #256	@ 0x100
 8004c7a:	6013      	str	r3, [r2, #0]
 8004c7c:	bf00      	nop
 8004c7e:	46bd      	mov	sp, r7
 8004c80:	f85d 7b04 	ldr.w	r7, [sp], #4
 8004c84:	4770      	bx	lr
 8004c86:	bf00      	nop
 8004c88:	40007000 	.word	0x40007000

08004c8c <HAL_PWREx_EnableOverDrive>:
 8004c8c:	b580      	push	{r7, lr}
 8004c8e:	b082      	sub	sp, #8
 8004c90:	af00      	add	r7, sp, #0
 8004c92:	2300      	movs	r3, #0
 8004c94:	607b      	str	r3, [r7, #4]
 8004c96:	4b23      	ldr	r3, [pc, #140]	@ (8004d24 <HAL_PWREx_EnableOverDrive+0x98>)
 8004c98:	6c1b      	ldr	r3, [r3, #64]	@ 0x40
 8004c9a:	4a22      	ldr	r2, [pc, #136]	@ (8004d24 <HAL_PWREx_EnableOverDrive+0x98>)
 8004c9c:	f043 5380 	orr.w	r3, r3, #268435456	@ 0x10000000
 8004ca0:	6413      	str	r3, [r2, #64]	@ 0x40
 8004ca2:	4b20      	ldr	r3, [pc, #128]	@ (8004d24 <HAL_PWREx_EnableOverDrive+0x98>)
 8004ca4:	6c1b      	ldr	r3, [r3, #64]	@ 0x40
 8004ca6:	f003 5380 	and.w	r3, r3, #268435456	@ 0x10000000
 8004caa:	603b      	str	r3, [r7, #0]
 8004cac:	683b      	ldr	r3, [r7, #0]
 8004cae:	4b1e      	ldr	r3, [pc, #120]	@ (8004d28 <HAL_PWREx_EnableOverDrive+0x9c>)
 8004cb0:	681b      	ldr	r3, [r3, #0]
 8004cb2:	4a1d      	ldr	r2, [pc, #116]	@ (8004d28 <HAL_PWREx_EnableOverDrive+0x9c>)
 8004cb4:	f443 3380 	orr.w	r3, r3, #65536	@ 0x10000
 8004cb8:	6013      	str	r3, [r2, #0]
 8004cba:	f7fe fa3b 	bl	8003134 <HAL_GetTick>
 8004cbe:	6078      	str	r0, [r7, #4]
 8004cc0:	e009      	b.n	8004cd6 <HAL_PWREx_EnableOverDrive+0x4a>
 8004cc2:	f7fe fa37 	bl	8003134 <HAL_GetTick>
 8004cc6:	4602      	mov	r2, r0
 8004cc8:	687b      	ldr	r3, [r7, #4]
 8004cca:	1ad3      	subs	r3, r2, r3
 8004ccc:	f5b3 7f7a 	cmp.w	r3, #1000	@ 0x3e8
 8004cd0:	d901      	bls.n	8004cd6 <HAL_PWREx_EnableOverDrive+0x4a>
 8004cd2:	2303      	movs	r3, #3
 8004cd4:	e022      	b.n	8004d1c <HAL_PWREx_EnableOverDrive+0x90>
 8004cd6:	4b14      	ldr	r3, [pc, #80]	@ (8004d28 <HAL_PWREx_EnableOverDrive+0x9c>)
 8004cd8:	685b      	ldr	r3, [r3, #4]
 8004cda:	f403 3380 	and.w	r3, r3, #65536	@ 0x10000
 8004cde:	f5b3 3f80 	cmp.w	r3, #65536	@ 0x10000
 8004ce2:	d1ee      	bne.n	8004cc2 <HAL_PWREx_EnableOverDrive+0x36>
 8004ce4:	4b10      	ldr	r3, [pc, #64]	@ (8004d28 <HAL_PWREx_EnableOverDrive+0x9c>)
 8004ce6:	681b      	ldr	r3, [r3, #0]
 8004ce8:	4a0f      	ldr	r2, [pc, #60]	@ (8004d28 <HAL_PWREx_EnableOverDrive+0x9c>)
 8004cea:	f443 3300 	orr.w	r3, r3, #131072	@ 0x20000
 8004cee:	6013      	str	r3, [r2, #0]
 8004cf0:	f7fe fa20 	bl	8003134 <HAL_GetTick>
 8004cf4:	6078      	str	r0, [r7, #4]
 8004cf6:	e009      	b.n	8004d0c <HAL_PWREx_EnableOverDrive+0x80>
 8004cf8:	f7fe fa1c 	bl	8003134 <HAL_GetTick>
 8004cfc:	4602      	mov	r2, r0
 8004cfe:	687b      	ldr	r3, [r7, #4]
 8004d00:	1ad3      	subs	r3, r2, r3
 8004d02:	f5b3 7f7a 	cmp.w	r3, #1000	@ 0x3e8
 8004d06:	d901      	bls.n	8004d0c <HAL_PWREx_EnableOverDrive+0x80>
 8004d08:	2303      	movs	r3, #3
 8004d0a:	e007      	b.n	8004d1c <HAL_PWREx_EnableOverDrive+0x90>
 8004d0c:	4b06      	ldr	r3, [pc, #24]	@ (8004d28 <HAL_PWREx_EnableOverDrive+0x9c>)
 8004d0e:	685b      	ldr	r3, [r3, #4]
 8004d10:	f403 3300 	and.w	r3, r3, #131072	@ 0x20000
 8004d14:	f5b3 3f00 	cmp.w	r3, #131072	@ 0x20000
 8004d18:	d1ee      	bne.n	8004cf8 <HAL_PWREx_EnableOverDrive+0x6c>
 8004d1a:	2300      	movs	r3, #0
 8004d1c:	4618      	mov	r0, r3
 8004d1e:	3708      	adds	r7, #8
 8004d20:	46bd      	mov	sp, r7
 8004d22:	bd80      	pop	{r7, pc}
 8004d24:	40023800 	.word	0x40023800
 8004d28:	40007000 	.word	0x40007000

08004d2c <HAL_RCC_OscConfig>:
 8004d2c:	b580      	push	{r7, lr}
 8004d2e:	b086      	sub	sp, #24
 8004d30:	af00      	add	r7, sp, #0
 8004d32:	6078      	str	r0, [r7, #4]
 8004d34:	2300      	movs	r3, #0
 8004d36:	75fb      	strb	r3, [r7, #23]
 8004d38:	687b      	ldr	r3, [r7, #4]
 8004d3a:	2b00      	cmp	r3, #0
 8004d3c:	d101      	bne.n	8004d42 <HAL_RCC_OscConfig+0x16>
 8004d3e:	2301      	movs	r3, #1
 8004d40:	e291      	b.n	8005266 <HAL_RCC_OscConfig+0x53a>
 8004d42:	687b      	ldr	r3, [r7, #4]
 8004d44:	681b      	ldr	r3, [r3, #0]
 8004d46:	f003 0301 	and.w	r3, r3, #1
 8004d4a:	2b00      	cmp	r3, #0
 8004d4c:	f000 8087 	beq.w	8004e5e <HAL_RCC_OscConfig+0x132>
 8004d50:	4b96      	ldr	r3, [pc, #600]	@ (8004fac <HAL_RCC_OscConfig+0x280>)
 8004d52:	689b      	ldr	r3, [r3, #8]
 8004d54:	f003 030c 	and.w	r3, r3, #12
 8004d58:	2b04      	cmp	r3, #4
 8004d5a:	d00c      	beq.n	8004d76 <HAL_RCC_OscConfig+0x4a>
 8004d5c:	4b93      	ldr	r3, [pc, #588]	@ (8004fac <HAL_RCC_OscConfig+0x280>)
 8004d5e:	689b      	ldr	r3, [r3, #8]
 8004d60:	f003 030c 	and.w	r3, r3, #12
 8004d64:	2b08      	cmp	r3, #8
 8004d66:	d112      	bne.n	8004d8e <HAL_RCC_OscConfig+0x62>
 8004d68:	4b90      	ldr	r3, [pc, #576]	@ (8004fac <HAL_RCC_OscConfig+0x280>)
 8004d6a:	685b      	ldr	r3, [r3, #4]
 8004d6c:	f403 0380 	and.w	r3, r3, #4194304	@ 0x400000
 8004d70:	f5b3 0f80 	cmp.w	r3, #4194304	@ 0x400000
 8004d74:	d10b      	bne.n	8004d8e <HAL_RCC_OscConfig+0x62>
 8004d76:	4b8d      	ldr	r3, [pc, #564]	@ (8004fac <HAL_RCC_OscConfig+0x280>)
 8004d78:	681b      	ldr	r3, [r3, #0]
 8004d7a:	f403 3300 	and.w	r3, r3, #131072	@ 0x20000
 8004d7e:	2b00      	cmp	r3, #0
 8004d80:	d06c      	beq.n	8004e5c <HAL_RCC_OscConfig+0x130>
 8004d82:	687b      	ldr	r3, [r7, #4]
 8004d84:	685b      	ldr	r3, [r3, #4]
 8004d86:	2b00      	cmp	r3, #0
 8004d88:	d168      	bne.n	8004e5c <HAL_RCC_OscConfig+0x130>
 8004d8a:	2301      	movs	r3, #1
 8004d8c:	e26b      	b.n	8005266 <HAL_RCC_OscConfig+0x53a>
 8004d8e:	687b      	ldr	r3, [r7, #4]
 8004d90:	685b      	ldr	r3, [r3, #4]
 8004d92:	f5b3 3f80 	cmp.w	r3, #65536	@ 0x10000
 8004d96:	d106      	bne.n	8004da6 <HAL_RCC_OscConfig+0x7a>
 8004d98:	4b84      	ldr	r3, [pc, #528]	@ (8004fac <HAL_RCC_OscConfig+0x280>)
 8004d9a:	681b      	ldr	r3, [r3, #0]
 8004d9c:	4a83      	ldr	r2, [pc, #524]	@ (8004fac <HAL_RCC_OscConfig+0x280>)
 8004d9e:	f443 3380 	orr.w	r3, r3, #65536	@ 0x10000
 8004da2:	6013      	str	r3, [r2, #0]
 8004da4:	e02e      	b.n	8004e04 <HAL_RCC_OscConfig+0xd8>
 8004da6:	687b      	ldr	r3, [r7, #4]
 8004da8:	685b      	ldr	r3, [r3, #4]
 8004daa:	2b00      	cmp	r3, #0
 8004dac:	d10c      	bne.n	8004dc8 <HAL_RCC_OscConfig+0x9c>
 8004dae:	4b7f      	ldr	r3, [pc, #508]	@ (8004fac <HAL_RCC_OscConfig+0x280>)
 8004db0:	681b      	ldr	r3, [r3, #0]
 8004db2:	4a7e      	ldr	r2, [pc, #504]	@ (8004fac <HAL_RCC_OscConfig+0x280>)
 8004db4:	f423 3380 	bic.w	r3, r3, #65536	@ 0x10000
 8004db8:	6013      	str	r3, [r2, #0]
 8004dba:	4b7c      	ldr	r3, [pc, #496]	@ (8004fac <HAL_RCC_OscConfig+0x280>)
 8004dbc:	681b      	ldr	r3, [r3, #0]
 8004dbe:	4a7b      	ldr	r2, [pc, #492]	@ (8004fac <HAL_RCC_OscConfig+0x280>)
 8004dc0:	f423 2380 	bic.w	r3, r3, #262144	@ 0x40000
 8004dc4:	6013      	str	r3, [r2, #0]
 8004dc6:	e01d      	b.n	8004e04 <HAL_RCC_OscConfig+0xd8>
 8004dc8:	687b      	ldr	r3, [r7, #4]
 8004dca:	685b      	ldr	r3, [r3, #4]
 8004dcc:	f5b3 2fa0 	cmp.w	r3, #327680	@ 0x50000
 8004dd0:	d10c      	bne.n	8004dec <HAL_RCC_OscConfig+0xc0>
 8004dd2:	4b76      	ldr	r3, [pc, #472]	@ (8004fac <HAL_RCC_OscConfig+0x280>)
 8004dd4:	681b      	ldr	r3, [r3, #0]
 8004dd6:	4a75      	ldr	r2, [pc, #468]	@ (8004fac <HAL_RCC_OscConfig+0x280>)
 8004dd8:	f443 2380 	orr.w	r3, r3, #262144	@ 0x40000
 8004ddc:	6013      	str	r3, [r2, #0]
 8004dde:	4b73      	ldr	r3, [pc, #460]	@ (8004fac <HAL_RCC_OscConfig+0x280>)
 8004de0:	681b      	ldr	r3, [r3, #0]
 8004de2:	4a72      	ldr	r2, [pc, #456]	@ (8004fac <HAL_RCC_OscConfig+0x280>)
 8004de4:	f443 3380 	orr.w	r3, r3, #65536	@ 0x10000
 8004de8:	6013      	str	r3, [r2, #0]
 8004dea:	e00b      	b.n	8004e04 <HAL_RCC_OscConfig+0xd8>
 8004dec:	4b6f      	ldr	r3, [pc, #444]	@ (8004fac <HAL_RCC_OscConfig+0x280>)
 8004dee:	681b      	ldr	r3, [r3, #0]
 8004df0:	4a6e      	ldr	r2, [pc, #440]	@ (8004fac <HAL_RCC_OscConfig+0x280>)
 8004df2:	f423 3380 	bic.w	r3, r3, #65536	@ 0x10000
 8004df6:	6013      	str	r3, [r2, #0]
 8004df8:	4b6c      	ldr	r3, [pc, #432]	@ (8004fac <HAL_RCC_OscConfig+0x280>)
 8004dfa:	681b      	ldr	r3, [r3, #0]
 8004dfc:	4a6b      	ldr	r2, [pc, #428]	@ (8004fac <HAL_RCC_OscConfig+0x280>)
 8004dfe:	f423 2380 	bic.w	r3, r3, #262144	@ 0x40000
 8004e02:	6013      	str	r3, [r2, #0]
 8004e04:	687b      	ldr	r3, [r7, #4]
 8004e06:	685b      	ldr	r3, [r3, #4]
 8004e08:	2b00      	cmp	r3, #0
 8004e0a:	d013      	beq.n	8004e34 <HAL_RCC_OscConfig+0x108>
 8004e0c:	f7fe f992 	bl	8003134 <HAL_GetTick>
 8004e10:	6138      	str	r0, [r7, #16]
 8004e12:	e008      	b.n	8004e26 <HAL_RCC_OscConfig+0xfa>
 8004e14:	f7fe f98e 	bl	8003134 <HAL_GetTick>
 8004e18:	4602      	mov	r2, r0
 8004e1a:	693b      	ldr	r3, [r7, #16]
 8004e1c:	1ad3      	subs	r3, r2, r3
 8004e1e:	2b64      	cmp	r3, #100	@ 0x64
 8004e20:	d901      	bls.n	8004e26 <HAL_RCC_OscConfig+0xfa>
 8004e22:	2303      	movs	r3, #3
 8004e24:	e21f      	b.n	8005266 <HAL_RCC_OscConfig+0x53a>
 8004e26:	4b61      	ldr	r3, [pc, #388]	@ (8004fac <HAL_RCC_OscConfig+0x280>)
 8004e28:	681b      	ldr	r3, [r3, #0]
 8004e2a:	f403 3300 	and.w	r3, r3, #131072	@ 0x20000
 8004e2e:	2b00      	cmp	r3, #0
 8004e30:	d0f0      	beq.n	8004e14 <HAL_RCC_OscConfig+0xe8>
 8004e32:	e014      	b.n	8004e5e <HAL_RCC_OscConfig+0x132>
 8004e34:	f7fe f97e 	bl	8003134 <HAL_GetTick>
 8004e38:	6138      	str	r0, [r7, #16]
 8004e3a:	e008      	b.n	8004e4e <HAL_RCC_OscConfig+0x122>
 8004e3c:	f7fe f97a 	bl	8003134 <HAL_GetTick>
 8004e40:	4602      	mov	r2, r0
 8004e42:	693b      	ldr	r3, [r7, #16]
 8004e44:	1ad3      	subs	r3, r2, r3
 8004e46:	2b64      	cmp	r3, #100	@ 0x64
 8004e48:	d901      	bls.n	8004e4e <HAL_RCC_OscConfig+0x122>
 8004e4a:	2303      	movs	r3, #3
 8004e4c:	e20b      	b.n	8005266 <HAL_RCC_OscConfig+0x53a>
 8004e4e:	4b57      	ldr	r3, [pc, #348]	@ (8004fac <HAL_RCC_OscConfig+0x280>)
 8004e50:	681b      	ldr	r3, [r3, #0]
 8004e52:	f403 3300 	and.w	r3, r3, #131072	@ 0x20000
 8004e56:	2b00      	cmp	r3, #0
 8004e58:	d1f0      	bne.n	8004e3c <HAL_RCC_OscConfig+0x110>
 8004e5a:	e000      	b.n	8004e5e <HAL_RCC_OscConfig+0x132>
 8004e5c:	bf00      	nop
 8004e5e:	687b      	ldr	r3, [r7, #4]
 8004e60:	681b      	ldr	r3, [r3, #0]
 8004e62:	f003 0302 	and.w	r3, r3, #2
 8004e66:	2b00      	cmp	r3, #0
 8004e68:	d069      	beq.n	8004f3e <HAL_RCC_OscConfig+0x212>
 8004e6a:	4b50      	ldr	r3, [pc, #320]	@ (8004fac <HAL_RCC_OscConfig+0x280>)
 8004e6c:	689b      	ldr	r3, [r3, #8]
 8004e6e:	f003 030c 	and.w	r3, r3, #12
 8004e72:	2b00      	cmp	r3, #0
 8004e74:	d00b      	beq.n	8004e8e <HAL_RCC_OscConfig+0x162>
 8004e76:	4b4d      	ldr	r3, [pc, #308]	@ (8004fac <HAL_RCC_OscConfig+0x280>)
 8004e78:	689b      	ldr	r3, [r3, #8]
 8004e7a:	f003 030c 	and.w	r3, r3, #12
 8004e7e:	2b08      	cmp	r3, #8
 8004e80:	d11c      	bne.n	8004ebc <HAL_RCC_OscConfig+0x190>
 8004e82:	4b4a      	ldr	r3, [pc, #296]	@ (8004fac <HAL_RCC_OscConfig+0x280>)
 8004e84:	685b      	ldr	r3, [r3, #4]
 8004e86:	f403 0380 	and.w	r3, r3, #4194304	@ 0x400000
 8004e8a:	2b00      	cmp	r3, #0
 8004e8c:	d116      	bne.n	8004ebc <HAL_RCC_OscConfig+0x190>
 8004e8e:	4b47      	ldr	r3, [pc, #284]	@ (8004fac <HAL_RCC_OscConfig+0x280>)
 8004e90:	681b      	ldr	r3, [r3, #0]
 8004e92:	f003 0302 	and.w	r3, r3, #2
 8004e96:	2b00      	cmp	r3, #0
 8004e98:	d005      	beq.n	8004ea6 <HAL_RCC_OscConfig+0x17a>
 8004e9a:	687b      	ldr	r3, [r7, #4]
 8004e9c:	68db      	ldr	r3, [r3, #12]
 8004e9e:	2b01      	cmp	r3, #1
 8004ea0:	d001      	beq.n	8004ea6 <HAL_RCC_OscConfig+0x17a>
 8004ea2:	2301      	movs	r3, #1
 8004ea4:	e1df      	b.n	8005266 <HAL_RCC_OscConfig+0x53a>
 8004ea6:	4b41      	ldr	r3, [pc, #260]	@ (8004fac <HAL_RCC_OscConfig+0x280>)
 8004ea8:	681b      	ldr	r3, [r3, #0]
 8004eaa:	f023 02f8 	bic.w	r2, r3, #248	@ 0xf8
 8004eae:	687b      	ldr	r3, [r7, #4]
 8004eb0:	691b      	ldr	r3, [r3, #16]
 8004eb2:	00db      	lsls	r3, r3, #3
 8004eb4:	493d      	ldr	r1, [pc, #244]	@ (8004fac <HAL_RCC_OscConfig+0x280>)
 8004eb6:	4313      	orrs	r3, r2
 8004eb8:	600b      	str	r3, [r1, #0]
 8004eba:	e040      	b.n	8004f3e <HAL_RCC_OscConfig+0x212>
 8004ebc:	687b      	ldr	r3, [r7, #4]
 8004ebe:	68db      	ldr	r3, [r3, #12]
 8004ec0:	2b00      	cmp	r3, #0
 8004ec2:	d023      	beq.n	8004f0c <HAL_RCC_OscConfig+0x1e0>
 8004ec4:	4b39      	ldr	r3, [pc, #228]	@ (8004fac <HAL_RCC_OscConfig+0x280>)
 8004ec6:	681b      	ldr	r3, [r3, #0]
 8004ec8:	4a38      	ldr	r2, [pc, #224]	@ (8004fac <HAL_RCC_OscConfig+0x280>)
 8004eca:	f043 0301 	orr.w	r3, r3, #1
 8004ece:	6013      	str	r3, [r2, #0]
 8004ed0:	f7fe f930 	bl	8003134 <HAL_GetTick>
 8004ed4:	6138      	str	r0, [r7, #16]
 8004ed6:	e008      	b.n	8004eea <HAL_RCC_OscConfig+0x1be>
 8004ed8:	f7fe f92c 	bl	8003134 <HAL_GetTick>
 8004edc:	4602      	mov	r2, r0
 8004ede:	693b      	ldr	r3, [r7, #16]
 8004ee0:	1ad3      	subs	r3, r2, r3
 8004ee2:	2b02      	cmp	r3, #2
 8004ee4:	d901      	bls.n	8004eea <HAL_RCC_OscConfig+0x1be>
 8004ee6:	2303      	movs	r3, #3
 8004ee8:	e1bd      	b.n	8005266 <HAL_RCC_OscConfig+0x53a>
 8004eea:	4b30      	ldr	r3, [pc, #192]	@ (8004fac <HAL_RCC_OscConfig+0x280>)
 8004eec:	681b      	ldr	r3, [r3, #0]
 8004eee:	f003 0302 	and.w	r3, r3, #2
 8004ef2:	2b00      	cmp	r3, #0
 8004ef4:	d0f0      	beq.n	8004ed8 <HAL_RCC_OscConfig+0x1ac>
 8004ef6:	4b2d      	ldr	r3, [pc, #180]	@ (8004fac <HAL_RCC_OscConfig+0x280>)
 8004ef8:	681b      	ldr	r3, [r3, #0]
 8004efa:	f023 02f8 	bic.w	r2, r3, #248	@ 0xf8
 8004efe:	687b      	ldr	r3, [r7, #4]
 8004f00:	691b      	ldr	r3, [r3, #16]
 8004f02:	00db      	lsls	r3, r3, #3
 8004f04:	4929      	ldr	r1, [pc, #164]	@ (8004fac <HAL_RCC_OscConfig+0x280>)
 8004f06:	4313      	orrs	r3, r2
 8004f08:	600b      	str	r3, [r1, #0]
 8004f0a:	e018      	b.n	8004f3e <HAL_RCC_OscConfig+0x212>
 8004f0c:	4b27      	ldr	r3, [pc, #156]	@ (8004fac <HAL_RCC_OscConfig+0x280>)
 8004f0e:	681b      	ldr	r3, [r3, #0]
 8004f10:	4a26      	ldr	r2, [pc, #152]	@ (8004fac <HAL_RCC_OscConfig+0x280>)
 8004f12:	f023 0301 	bic.w	r3, r3, #1
 8004f16:	6013      	str	r3, [r2, #0]
 8004f18:	f7fe f90c 	bl	8003134 <HAL_GetTick>
 8004f1c:	6138      	str	r0, [r7, #16]
 8004f1e:	e008      	b.n	8004f32 <HAL_RCC_OscConfig+0x206>
 8004f20:	f7fe f908 	bl	8003134 <HAL_GetTick>
 8004f24:	4602      	mov	r2, r0
 8004f26:	693b      	ldr	r3, [r7, #16]
 8004f28:	1ad3      	subs	r3, r2, r3
 8004f2a:	2b02      	cmp	r3, #2
 8004f2c:	d901      	bls.n	8004f32 <HAL_RCC_OscConfig+0x206>
 8004f2e:	2303      	movs	r3, #3
 8004f30:	e199      	b.n	8005266 <HAL_RCC_OscConfig+0x53a>
 8004f32:	4b1e      	ldr	r3, [pc, #120]	@ (8004fac <HAL_RCC_OscConfig+0x280>)
 8004f34:	681b      	ldr	r3, [r3, #0]
 8004f36:	f003 0302 	and.w	r3, r3, #2
 8004f3a:	2b00      	cmp	r3, #0
 8004f3c:	d1f0      	bne.n	8004f20 <HAL_RCC_OscConfig+0x1f4>
 8004f3e:	687b      	ldr	r3, [r7, #4]
 8004f40:	681b      	ldr	r3, [r3, #0]
 8004f42:	f003 0308 	and.w	r3, r3, #8
 8004f46:	2b00      	cmp	r3, #0
 8004f48:	d038      	beq.n	8004fbc <HAL_RCC_OscConfig+0x290>
 8004f4a:	687b      	ldr	r3, [r7, #4]
 8004f4c:	695b      	ldr	r3, [r3, #20]
 8004f4e:	2b00      	cmp	r3, #0
 8004f50:	d019      	beq.n	8004f86 <HAL_RCC_OscConfig+0x25a>
 8004f52:	4b16      	ldr	r3, [pc, #88]	@ (8004fac <HAL_RCC_OscConfig+0x280>)
 8004f54:	6f5b      	ldr	r3, [r3, #116]	@ 0x74
 8004f56:	4a15      	ldr	r2, [pc, #84]	@ (8004fac <HAL_RCC_OscConfig+0x280>)
 8004f58:	f043 0301 	orr.w	r3, r3, #1
 8004f5c:	6753      	str	r3, [r2, #116]	@ 0x74
 8004f5e:	f7fe f8e9 	bl	8003134 <HAL_GetTick>
 8004f62:	6138      	str	r0, [r7, #16]
 8004f64:	e008      	b.n	8004f78 <HAL_RCC_OscConfig+0x24c>
 8004f66:	f7fe f8e5 	bl	8003134 <HAL_GetTick>
 8004f6a:	4602      	mov	r2, r0
 8004f6c:	693b      	ldr	r3, [r7, #16]
 8004f6e:	1ad3      	subs	r3, r2, r3
 8004f70:	2b02      	cmp	r3, #2
 8004f72:	d901      	bls.n	8004f78 <HAL_RCC_OscConfig+0x24c>
 8004f74:	2303      	movs	r3, #3
 8004f76:	e176      	b.n	8005266 <HAL_RCC_OscConfig+0x53a>
 8004f78:	4b0c      	ldr	r3, [pc, #48]	@ (8004fac <HAL_RCC_OscConfig+0x280>)
 8004f7a:	6f5b      	ldr	r3, [r3, #116]	@ 0x74
 8004f7c:	f003 0302 	and.w	r3, r3, #2
 8004f80:	2b00      	cmp	r3, #0
 8004f82:	d0f0      	beq.n	8004f66 <HAL_RCC_OscConfig+0x23a>
 8004f84:	e01a      	b.n	8004fbc <HAL_RCC_OscConfig+0x290>
 8004f86:	4b09      	ldr	r3, [pc, #36]	@ (8004fac <HAL_RCC_OscConfig+0x280>)
 8004f88:	6f5b      	ldr	r3, [r3, #116]	@ 0x74
 8004f8a:	4a08      	ldr	r2, [pc, #32]	@ (8004fac <HAL_RCC_OscConfig+0x280>)
 8004f8c:	f023 0301 	bic.w	r3, r3, #1
 8004f90:	6753      	str	r3, [r2, #116]	@ 0x74
 8004f92:	f7fe f8cf 	bl	8003134 <HAL_GetTick>
 8004f96:	6138      	str	r0, [r7, #16]
 8004f98:	e00a      	b.n	8004fb0 <HAL_RCC_OscConfig+0x284>
 8004f9a:	f7fe f8cb 	bl	8003134 <HAL_GetTick>
 8004f9e:	4602      	mov	r2, r0
 8004fa0:	693b      	ldr	r3, [r7, #16]
 8004fa2:	1ad3      	subs	r3, r2, r3
 8004fa4:	2b02      	cmp	r3, #2
 8004fa6:	d903      	bls.n	8004fb0 <HAL_RCC_OscConfig+0x284>
 8004fa8:	2303      	movs	r3, #3
 8004faa:	e15c      	b.n	8005266 <HAL_RCC_OscConfig+0x53a>
 8004fac:	40023800 	.word	0x40023800
 8004fb0:	4b91      	ldr	r3, [pc, #580]	@ (80051f8 <HAL_RCC_OscConfig+0x4cc>)
 8004fb2:	6f5b      	ldr	r3, [r3, #116]	@ 0x74
 8004fb4:	f003 0302 	and.w	r3, r3, #2
 8004fb8:	2b00      	cmp	r3, #0
 8004fba:	d1ee      	bne.n	8004f9a <HAL_RCC_OscConfig+0x26e>
 8004fbc:	687b      	ldr	r3, [r7, #4]
 8004fbe:	681b      	ldr	r3, [r3, #0]
 8004fc0:	f003 0304 	and.w	r3, r3, #4
 8004fc4:	2b00      	cmp	r3, #0
 8004fc6:	f000 80a4 	beq.w	8005112 <HAL_RCC_OscConfig+0x3e6>
 8004fca:	4b8b      	ldr	r3, [pc, #556]	@ (80051f8 <HAL_RCC_OscConfig+0x4cc>)
 8004fcc:	6c1b      	ldr	r3, [r3, #64]	@ 0x40
 8004fce:	f003 5380 	and.w	r3, r3, #268435456	@ 0x10000000
 8004fd2:	2b00      	cmp	r3, #0
 8004fd4:	d10d      	bne.n	8004ff2 <HAL_RCC_OscConfig+0x2c6>
 8004fd6:	4b88      	ldr	r3, [pc, #544]	@ (80051f8 <HAL_RCC_OscConfig+0x4cc>)
 8004fd8:	6c1b      	ldr	r3, [r3, #64]	@ 0x40
 8004fda:	4a87      	ldr	r2, [pc, #540]	@ (80051f8 <HAL_RCC_OscConfig+0x4cc>)
 8004fdc:	f043 5380 	orr.w	r3, r3, #268435456	@ 0x10000000
 8004fe0:	6413      	str	r3, [r2, #64]	@ 0x40
 8004fe2:	4b85      	ldr	r3, [pc, #532]	@ (80051f8 <HAL_RCC_OscConfig+0x4cc>)
 8004fe4:	6c1b      	ldr	r3, [r3, #64]	@ 0x40
 8004fe6:	f003 5380 	and.w	r3, r3, #268435456	@ 0x10000000
 8004fea:	60bb      	str	r3, [r7, #8]
 8004fec:	68bb      	ldr	r3, [r7, #8]
 8004fee:	2301      	movs	r3, #1
 8004ff0:	75fb      	strb	r3, [r7, #23]
 8004ff2:	4b82      	ldr	r3, [pc, #520]	@ (80051fc <HAL_RCC_OscConfig+0x4d0>)
 8004ff4:	681b      	ldr	r3, [r3, #0]
 8004ff6:	f403 7380 	and.w	r3, r3, #256	@ 0x100
 8004ffa:	2b00      	cmp	r3, #0
 8004ffc:	d118      	bne.n	8005030 <HAL_RCC_OscConfig+0x304>
 8004ffe:	4b7f      	ldr	r3, [pc, #508]	@ (80051fc <HAL_RCC_OscConfig+0x4d0>)
 8005000:	681b      	ldr	r3, [r3, #0]
 8005002:	4a7e      	ldr	r2, [pc, #504]	@ (80051fc <HAL_RCC_OscConfig+0x4d0>)
 8005004:	f443 7380 	orr.w	r3, r3, #256	@ 0x100
 8005008:	6013      	str	r3, [r2, #0]
 800500a:	f7fe f893 	bl	8003134 <HAL_GetTick>
 800500e:	6138      	str	r0, [r7, #16]
 8005010:	e008      	b.n	8005024 <HAL_RCC_OscConfig+0x2f8>
 8005012:	f7fe f88f 	bl	8003134 <HAL_GetTick>
 8005016:	4602      	mov	r2, r0
 8005018:	693b      	ldr	r3, [r7, #16]
 800501a:	1ad3      	subs	r3, r2, r3
 800501c:	2b64      	cmp	r3, #100	@ 0x64
 800501e:	d901      	bls.n	8005024 <HAL_RCC_OscConfig+0x2f8>
 8005020:	2303      	movs	r3, #3
 8005022:	e120      	b.n	8005266 <HAL_RCC_OscConfig+0x53a>
 8005024:	4b75      	ldr	r3, [pc, #468]	@ (80051fc <HAL_RCC_OscConfig+0x4d0>)
 8005026:	681b      	ldr	r3, [r3, #0]
 8005028:	f403 7380 	and.w	r3, r3, #256	@ 0x100
 800502c:	2b00      	cmp	r3, #0
 800502e:	d0f0      	beq.n	8005012 <HAL_RCC_OscConfig+0x2e6>
 8005030:	687b      	ldr	r3, [r7, #4]
 8005032:	689b      	ldr	r3, [r3, #8]
 8005034:	2b01      	cmp	r3, #1
 8005036:	d106      	bne.n	8005046 <HAL_RCC_OscConfig+0x31a>
 8005038:	4b6f      	ldr	r3, [pc, #444]	@ (80051f8 <HAL_RCC_OscConfig+0x4cc>)
 800503a:	6f1b      	ldr	r3, [r3, #112]	@ 0x70
 800503c:	4a6e      	ldr	r2, [pc, #440]	@ (80051f8 <HAL_RCC_OscConfig+0x4cc>)
 800503e:	f043 0301 	orr.w	r3, r3, #1
 8005042:	6713      	str	r3, [r2, #112]	@ 0x70
 8005044:	e02d      	b.n	80050a2 <HAL_RCC_OscConfig+0x376>
 8005046:	687b      	ldr	r3, [r7, #4]
 8005048:	689b      	ldr	r3, [r3, #8]
 800504a:	2b00      	cmp	r3, #0
 800504c:	d10c      	bne.n	8005068 <HAL_RCC_OscConfig+0x33c>
 800504e:	4b6a      	ldr	r3, [pc, #424]	@ (80051f8 <HAL_RCC_OscConfig+0x4cc>)
 8005050:	6f1b      	ldr	r3, [r3, #112]	@ 0x70
 8005052:	4a69      	ldr	r2, [pc, #420]	@ (80051f8 <HAL_RCC_OscConfig+0x4cc>)
 8005054:	f023 0301 	bic.w	r3, r3, #1
 8005058:	6713      	str	r3, [r2, #112]	@ 0x70
 800505a:	4b67      	ldr	r3, [pc, #412]	@ (80051f8 <HAL_RCC_OscConfig+0x4cc>)
 800505c:	6f1b      	ldr	r3, [r3, #112]	@ 0x70
 800505e:	4a66      	ldr	r2, [pc, #408]	@ (80051f8 <HAL_RCC_OscConfig+0x4cc>)
 8005060:	f023 0304 	bic.w	r3, r3, #4
 8005064:	6713      	str	r3, [r2, #112]	@ 0x70
 8005066:	e01c      	b.n	80050a2 <HAL_RCC_OscConfig+0x376>
 8005068:	687b      	ldr	r3, [r7, #4]
 800506a:	689b      	ldr	r3, [r3, #8]
 800506c:	2b05      	cmp	r3, #5
 800506e:	d10c      	bne.n	800508a <HAL_RCC_OscConfig+0x35e>
 8005070:	4b61      	ldr	r3, [pc, #388]	@ (80051f8 <HAL_RCC_OscConfig+0x4cc>)
 8005072:	6f1b      	ldr	r3, [r3, #112]	@ 0x70
 8005074:	4a60      	ldr	r2, [pc, #384]	@ (80051f8 <HAL_RCC_OscConfig+0x4cc>)
 8005076:	f043 0304 	orr.w	r3, r3, #4
 800507a:	6713      	str	r3, [r2, #112]	@ 0x70
 800507c:	4b5e      	ldr	r3, [pc, #376]	@ (80051f8 <HAL_RCC_OscConfig+0x4cc>)
 800507e:	6f1b      	ldr	r3, [r3, #112]	@ 0x70
 8005080:	4a5d      	ldr	r2, [pc, #372]	@ (80051f8 <HAL_RCC_OscConfig+0x4cc>)
 8005082:	f043 0301 	orr.w	r3, r3, #1
 8005086:	6713      	str	r3, [r2, #112]	@ 0x70
 8005088:	e00b      	b.n	80050a2 <HAL_RCC_OscConfig+0x376>
 800508a:	4b5b      	ldr	r3, [pc, #364]	@ (80051f8 <HAL_RCC_OscConfig+0x4cc>)
 800508c:	6f1b      	ldr	r3, [r3, #112]	@ 0x70
 800508e:	4a5a      	ldr	r2, [pc, #360]	@ (80051f8 <HAL_RCC_OscConfig+0x4cc>)
 8005090:	f023 0301 	bic.w	r3, r3, #1
 8005094:	6713      	str	r3, [r2, #112]	@ 0x70
 8005096:	4b58      	ldr	r3, [pc, #352]	@ (80051f8 <HAL_RCC_OscConfig+0x4cc>)
 8005098:	6f1b      	ldr	r3, [r3, #112]	@ 0x70
 800509a:	4a57      	ldr	r2, [pc, #348]	@ (80051f8 <HAL_RCC_OscConfig+0x4cc>)
 800509c:	f023 0304 	bic.w	r3, r3, #4
 80050a0:	6713      	str	r3, [r2, #112]	@ 0x70
 80050a2:	687b      	ldr	r3, [r7, #4]
 80050a4:	689b      	ldr	r3, [r3, #8]
 80050a6:	2b00      	cmp	r3, #0
 80050a8:	d015      	beq.n	80050d6 <HAL_RCC_OscConfig+0x3aa>
 80050aa:	f7fe f843 	bl	8003134 <HAL_GetTick>
 80050ae:	6138      	str	r0, [r7, #16]
 80050b0:	e00a      	b.n	80050c8 <HAL_RCC_OscConfig+0x39c>
 80050b2:	f7fe f83f 	bl	8003134 <HAL_GetTick>
 80050b6:	4602      	mov	r2, r0
 80050b8:	693b      	ldr	r3, [r7, #16]
 80050ba:	1ad3      	subs	r3, r2, r3
 80050bc:	f241 3288 	movw	r2, #5000	@ 0x1388
 80050c0:	4293      	cmp	r3, r2
 80050c2:	d901      	bls.n	80050c8 <HAL_RCC_OscConfig+0x39c>
 80050c4:	2303      	movs	r3, #3
 80050c6:	e0ce      	b.n	8005266 <HAL_RCC_OscConfig+0x53a>
 80050c8:	4b4b      	ldr	r3, [pc, #300]	@ (80051f8 <HAL_RCC_OscConfig+0x4cc>)
 80050ca:	6f1b      	ldr	r3, [r3, #112]	@ 0x70
 80050cc:	f003 0302 	and.w	r3, r3, #2
 80050d0:	2b00      	cmp	r3, #0
 80050d2:	d0ee      	beq.n	80050b2 <HAL_RCC_OscConfig+0x386>
 80050d4:	e014      	b.n	8005100 <HAL_RCC_OscConfig+0x3d4>
 80050d6:	f7fe f82d 	bl	8003134 <HAL_GetTick>
 80050da:	6138      	str	r0, [r7, #16]
 80050dc:	e00a      	b.n	80050f4 <HAL_RCC_OscConfig+0x3c8>
 80050de:	f7fe f829 	bl	8003134 <HAL_GetTick>
 80050e2:	4602      	mov	r2, r0
 80050e4:	693b      	ldr	r3, [r7, #16]
 80050e6:	1ad3      	subs	r3, r2, r3
 80050e8:	f241 3288 	movw	r2, #5000	@ 0x1388
 80050ec:	4293      	cmp	r3, r2
 80050ee:	d901      	bls.n	80050f4 <HAL_RCC_OscConfig+0x3c8>
 80050f0:	2303      	movs	r3, #3
 80050f2:	e0b8      	b.n	8005266 <HAL_RCC_OscConfig+0x53a>
 80050f4:	4b40      	ldr	r3, [pc, #256]	@ (80051f8 <HAL_RCC_OscConfig+0x4cc>)
 80050f6:	6f1b      	ldr	r3, [r3, #112]	@ 0x70
 80050f8:	f003 0302 	and.w	r3, r3, #2
 80050fc:	2b00      	cmp	r3, #0
 80050fe:	d1ee      	bne.n	80050de <HAL_RCC_OscConfig+0x3b2>
 8005100:	7dfb      	ldrb	r3, [r7, #23]
 8005102:	2b01      	cmp	r3, #1
 8005104:	d105      	bne.n	8005112 <HAL_RCC_OscConfig+0x3e6>
 8005106:	4b3c      	ldr	r3, [pc, #240]	@ (80051f8 <HAL_RCC_OscConfig+0x4cc>)
 8005108:	6c1b      	ldr	r3, [r3, #64]	@ 0x40
 800510a:	4a3b      	ldr	r2, [pc, #236]	@ (80051f8 <HAL_RCC_OscConfig+0x4cc>)
 800510c:	f023 5380 	bic.w	r3, r3, #268435456	@ 0x10000000
 8005110:	6413      	str	r3, [r2, #64]	@ 0x40
 8005112:	687b      	ldr	r3, [r7, #4]
 8005114:	699b      	ldr	r3, [r3, #24]
 8005116:	2b00      	cmp	r3, #0
 8005118:	f000 80a4 	beq.w	8005264 <HAL_RCC_OscConfig+0x538>
 800511c:	4b36      	ldr	r3, [pc, #216]	@ (80051f8 <HAL_RCC_OscConfig+0x4cc>)
 800511e:	689b      	ldr	r3, [r3, #8]
 8005120:	f003 030c 	and.w	r3, r3, #12
 8005124:	2b08      	cmp	r3, #8
 8005126:	d06b      	beq.n	8005200 <HAL_RCC_OscConfig+0x4d4>
 8005128:	687b      	ldr	r3, [r7, #4]
 800512a:	699b      	ldr	r3, [r3, #24]
 800512c:	2b02      	cmp	r3, #2
 800512e:	d149      	bne.n	80051c4 <HAL_RCC_OscConfig+0x498>
 8005130:	4b31      	ldr	r3, [pc, #196]	@ (80051f8 <HAL_RCC_OscConfig+0x4cc>)
 8005132:	681b      	ldr	r3, [r3, #0]
 8005134:	4a30      	ldr	r2, [pc, #192]	@ (80051f8 <HAL_RCC_OscConfig+0x4cc>)
 8005136:	f023 7380 	bic.w	r3, r3, #16777216	@ 0x1000000
 800513a:	6013      	str	r3, [r2, #0]
 800513c:	f7fd fffa 	bl	8003134 <HAL_GetTick>
 8005140:	6138      	str	r0, [r7, #16]
 8005142:	e008      	b.n	8005156 <HAL_RCC_OscConfig+0x42a>
 8005144:	f7fd fff6 	bl	8003134 <HAL_GetTick>
 8005148:	4602      	mov	r2, r0
 800514a:	693b      	ldr	r3, [r7, #16]
 800514c:	1ad3      	subs	r3, r2, r3
 800514e:	2b02      	cmp	r3, #2
 8005150:	d901      	bls.n	8005156 <HAL_RCC_OscConfig+0x42a>
 8005152:	2303      	movs	r3, #3
 8005154:	e087      	b.n	8005266 <HAL_RCC_OscConfig+0x53a>
 8005156:	4b28      	ldr	r3, [pc, #160]	@ (80051f8 <HAL_RCC_OscConfig+0x4cc>)
 8005158:	681b      	ldr	r3, [r3, #0]
 800515a:	f003 7300 	and.w	r3, r3, #33554432	@ 0x2000000
 800515e:	2b00      	cmp	r3, #0
 8005160:	d1f0      	bne.n	8005144 <HAL_RCC_OscConfig+0x418>
 8005162:	687b      	ldr	r3, [r7, #4]
 8005164:	69da      	ldr	r2, [r3, #28]
 8005166:	687b      	ldr	r3, [r7, #4]
 8005168:	6a1b      	ldr	r3, [r3, #32]
 800516a:	431a      	orrs	r2, r3
 800516c:	687b      	ldr	r3, [r7, #4]
 800516e:	6a5b      	ldr	r3, [r3, #36]	@ 0x24
 8005170:	019b      	lsls	r3, r3, #6
 8005172:	431a      	orrs	r2, r3
 8005174:	687b      	ldr	r3, [r7, #4]
 8005176:	6a9b      	ldr	r3, [r3, #40]	@ 0x28
 8005178:	085b      	lsrs	r3, r3, #1
 800517a:	3b01      	subs	r3, #1
 800517c:	041b      	lsls	r3, r3, #16
 800517e:	431a      	orrs	r2, r3
 8005180:	687b      	ldr	r3, [r7, #4]
 8005182:	6adb      	ldr	r3, [r3, #44]	@ 0x2c
 8005184:	061b      	lsls	r3, r3, #24
 8005186:	4313      	orrs	r3, r2
 8005188:	4a1b      	ldr	r2, [pc, #108]	@ (80051f8 <HAL_RCC_OscConfig+0x4cc>)
 800518a:	f043 5300 	orr.w	r3, r3, #536870912	@ 0x20000000
 800518e:	6053      	str	r3, [r2, #4]
 8005190:	4b19      	ldr	r3, [pc, #100]	@ (80051f8 <HAL_RCC_OscConfig+0x4cc>)
 8005192:	681b      	ldr	r3, [r3, #0]
 8005194:	4a18      	ldr	r2, [pc, #96]	@ (80051f8 <HAL_RCC_OscConfig+0x4cc>)
 8005196:	f043 7380 	orr.w	r3, r3, #16777216	@ 0x1000000
 800519a:	6013      	str	r3, [r2, #0]
 800519c:	f7fd ffca 	bl	8003134 <HAL_GetTick>
 80051a0:	6138      	str	r0, [r7, #16]
 80051a2:	e008      	b.n	80051b6 <HAL_RCC_OscConfig+0x48a>
 80051a4:	f7fd ffc6 	bl	8003134 <HAL_GetTick>
 80051a8:	4602      	mov	r2, r0
 80051aa:	693b      	ldr	r3, [r7, #16]
 80051ac:	1ad3      	subs	r3, r2, r3
 80051ae:	2b02      	cmp	r3, #2
 80051b0:	d901      	bls.n	80051b6 <HAL_RCC_OscConfig+0x48a>
 80051b2:	2303      	movs	r3, #3
 80051b4:	e057      	b.n	8005266 <HAL_RCC_OscConfig+0x53a>
 80051b6:	4b10      	ldr	r3, [pc, #64]	@ (80051f8 <HAL_RCC_OscConfig+0x4cc>)
 80051b8:	681b      	ldr	r3, [r3, #0]
 80051ba:	f003 7300 	and.w	r3, r3, #33554432	@ 0x2000000
 80051be:	2b00      	cmp	r3, #0
 80051c0:	d0f0      	beq.n	80051a4 <HAL_RCC_OscConfig+0x478>
 80051c2:	e04f      	b.n	8005264 <HAL_RCC_OscConfig+0x538>
 80051c4:	4b0c      	ldr	r3, [pc, #48]	@ (80051f8 <HAL_RCC_OscConfig+0x4cc>)
 80051c6:	681b      	ldr	r3, [r3, #0]
 80051c8:	4a0b      	ldr	r2, [pc, #44]	@ (80051f8 <HAL_RCC_OscConfig+0x4cc>)
 80051ca:	f023 7380 	bic.w	r3, r3, #16777216	@ 0x1000000
 80051ce:	6013      	str	r3, [r2, #0]
 80051d0:	f7fd ffb0 	bl	8003134 <HAL_GetTick>
 80051d4:	6138      	str	r0, [r7, #16]
 80051d6:	e008      	b.n	80051ea <HAL_RCC_OscConfig+0x4be>
 80051d8:	f7fd ffac 	bl	8003134 <HAL_GetTick>
 80051dc:	4602      	mov	r2, r0
 80051de:	693b      	ldr	r3, [r7, #16]
 80051e0:	1ad3      	subs	r3, r2, r3
 80051e2:	2b02      	cmp	r3, #2
 80051e4:	d901      	bls.n	80051ea <HAL_RCC_OscConfig+0x4be>
 80051e6:	2303      	movs	r3, #3
 80051e8:	e03d      	b.n	8005266 <HAL_RCC_OscConfig+0x53a>
 80051ea:	4b03      	ldr	r3, [pc, #12]	@ (80051f8 <HAL_RCC_OscConfig+0x4cc>)
 80051ec:	681b      	ldr	r3, [r3, #0]
 80051ee:	f003 7300 	and.w	r3, r3, #33554432	@ 0x2000000
 80051f2:	2b00      	cmp	r3, #0
 80051f4:	d1f0      	bne.n	80051d8 <HAL_RCC_OscConfig+0x4ac>
 80051f6:	e035      	b.n	8005264 <HAL_RCC_OscConfig+0x538>
 80051f8:	40023800 	.word	0x40023800
 80051fc:	40007000 	.word	0x40007000
 8005200:	4b1b      	ldr	r3, [pc, #108]	@ (8005270 <HAL_RCC_OscConfig+0x544>)
 8005202:	685b      	ldr	r3, [r3, #4]
 8005204:	60fb      	str	r3, [r7, #12]
 8005206:	687b      	ldr	r3, [r7, #4]
 8005208:	699b      	ldr	r3, [r3, #24]
 800520a:	2b01      	cmp	r3, #1
 800520c:	d028      	beq.n	8005260 <HAL_RCC_OscConfig+0x534>
 800520e:	68fb      	ldr	r3, [r7, #12]
 8005210:	f403 0280 	and.w	r2, r3, #4194304	@ 0x400000
 8005214:	687b      	ldr	r3, [r7, #4]
 8005216:	69db      	ldr	r3, [r3, #28]
 8005218:	429a      	cmp	r2, r3
 800521a:	d121      	bne.n	8005260 <HAL_RCC_OscConfig+0x534>
 800521c:	68fb      	ldr	r3, [r7, #12]
 800521e:	f003 023f 	and.w	r2, r3, #63	@ 0x3f
 8005222:	687b      	ldr	r3, [r7, #4]
 8005224:	6a1b      	ldr	r3, [r3, #32]
 8005226:	429a      	cmp	r2, r3
 8005228:	d11a      	bne.n	8005260 <HAL_RCC_OscConfig+0x534>
 800522a:	68fa      	ldr	r2, [r7, #12]
 800522c:	f647 73c0 	movw	r3, #32704	@ 0x7fc0
 8005230:	4013      	ands	r3, r2
 8005232:	687a      	ldr	r2, [r7, #4]
 8005234:	6a52      	ldr	r2, [r2, #36]	@ 0x24
 8005236:	0192      	lsls	r2, r2, #6
 8005238:	4293      	cmp	r3, r2
 800523a:	d111      	bne.n	8005260 <HAL_RCC_OscConfig+0x534>
 800523c:	68fb      	ldr	r3, [r7, #12]
 800523e:	f403 3240 	and.w	r2, r3, #196608	@ 0x30000
 8005242:	687b      	ldr	r3, [r7, #4]
 8005244:	6a9b      	ldr	r3, [r3, #40]	@ 0x28
 8005246:	085b      	lsrs	r3, r3, #1
 8005248:	3b01      	subs	r3, #1
 800524a:	041b      	lsls	r3, r3, #16
 800524c:	429a      	cmp	r2, r3
 800524e:	d107      	bne.n	8005260 <HAL_RCC_OscConfig+0x534>
 8005250:	68fb      	ldr	r3, [r7, #12]
 8005252:	f003 6270 	and.w	r2, r3, #251658240	@ 0xf000000
 8005256:	687b      	ldr	r3, [r7, #4]
 8005258:	6adb      	ldr	r3, [r3, #44]	@ 0x2c
 800525a:	061b      	lsls	r3, r3, #24
 800525c:	429a      	cmp	r2, r3
 800525e:	d001      	beq.n	8005264 <HAL_RCC_OscConfig+0x538>
 8005260:	2301      	movs	r3, #1
 8005262:	e000      	b.n	8005266 <HAL_RCC_OscConfig+0x53a>
 8005264:	2300      	movs	r3, #0
 8005266:	4618      	mov	r0, r3
 8005268:	3718      	adds	r7, #24
 800526a:	46bd      	mov	sp, r7
 800526c:	bd80      	pop	{r7, pc}
 800526e:	bf00      	nop
 8005270:	40023800 	.word	0x40023800

08005274 <HAL_RCC_ClockConfig>:
 8005274:	b580      	push	{r7, lr}
 8005276:	b084      	sub	sp, #16
 8005278:	af00      	add	r7, sp, #0
 800527a:	6078      	str	r0, [r7, #4]
 800527c:	6039      	str	r1, [r7, #0]
 800527e:	2300      	movs	r3, #0
 8005280:	60fb      	str	r3, [r7, #12]
 8005282:	687b      	ldr	r3, [r7, #4]
 8005284:	2b00      	cmp	r3, #0
 8005286:	d101      	bne.n	800528c <HAL_RCC_ClockConfig+0x18>
 8005288:	2301      	movs	r3, #1
 800528a:	e0d0      	b.n	800542e <HAL_RCC_ClockConfig+0x1ba>
 800528c:	4b6a      	ldr	r3, [pc, #424]	@ (8005438 <HAL_RCC_ClockConfig+0x1c4>)
 800528e:	681b      	ldr	r3, [r3, #0]
 8005290:	f003 030f 	and.w	r3, r3, #15
 8005294:	683a      	ldr	r2, [r7, #0]
 8005296:	429a      	cmp	r2, r3
 8005298:	d910      	bls.n	80052bc <HAL_RCC_ClockConfig+0x48>
 800529a:	4b67      	ldr	r3, [pc, #412]	@ (8005438 <HAL_RCC_ClockConfig+0x1c4>)
 800529c:	681b      	ldr	r3, [r3, #0]
 800529e:	f023 020f 	bic.w	r2, r3, #15
 80052a2:	4965      	ldr	r1, [pc, #404]	@ (8005438 <HAL_RCC_ClockConfig+0x1c4>)
 80052a4:	683b      	ldr	r3, [r7, #0]
 80052a6:	4313      	orrs	r3, r2
 80052a8:	600b      	str	r3, [r1, #0]
 80052aa:	4b63      	ldr	r3, [pc, #396]	@ (8005438 <HAL_RCC_ClockConfig+0x1c4>)
 80052ac:	681b      	ldr	r3, [r3, #0]
 80052ae:	f003 030f 	and.w	r3, r3, #15
 80052b2:	683a      	ldr	r2, [r7, #0]
 80052b4:	429a      	cmp	r2, r3
 80052b6:	d001      	beq.n	80052bc <HAL_RCC_ClockConfig+0x48>
 80052b8:	2301      	movs	r3, #1
 80052ba:	e0b8      	b.n	800542e <HAL_RCC_ClockConfig+0x1ba>
 80052bc:	687b      	ldr	r3, [r7, #4]
 80052be:	681b      	ldr	r3, [r3, #0]
 80052c0:	f003 0302 	and.w	r3, r3, #2
 80052c4:	2b00      	cmp	r3, #0
 80052c6:	d020      	beq.n	800530a <HAL_RCC_ClockConfig+0x96>
 80052c8:	687b      	ldr	r3, [r7, #4]
 80052ca:	681b      	ldr	r3, [r3, #0]
 80052cc:	f003 0304 	and.w	r3, r3, #4
 80052d0:	2b00      	cmp	r3, #0
 80052d2:	d005      	beq.n	80052e0 <HAL_RCC_ClockConfig+0x6c>
 80052d4:	4b59      	ldr	r3, [pc, #356]	@ (800543c <HAL_RCC_ClockConfig+0x1c8>)
 80052d6:	689b      	ldr	r3, [r3, #8]
 80052d8:	4a58      	ldr	r2, [pc, #352]	@ (800543c <HAL_RCC_ClockConfig+0x1c8>)
 80052da:	f443 53e0 	orr.w	r3, r3, #7168	@ 0x1c00
 80052de:	6093      	str	r3, [r2, #8]
 80052e0:	687b      	ldr	r3, [r7, #4]
 80052e2:	681b      	ldr	r3, [r3, #0]
 80052e4:	f003 0308 	and.w	r3, r3, #8
 80052e8:	2b00      	cmp	r3, #0
 80052ea:	d005      	beq.n	80052f8 <HAL_RCC_ClockConfig+0x84>
 80052ec:	4b53      	ldr	r3, [pc, #332]	@ (800543c <HAL_RCC_ClockConfig+0x1c8>)
 80052ee:	689b      	ldr	r3, [r3, #8]
 80052f0:	4a52      	ldr	r2, [pc, #328]	@ (800543c <HAL_RCC_ClockConfig+0x1c8>)
 80052f2:	f443 4360 	orr.w	r3, r3, #57344	@ 0xe000
 80052f6:	6093      	str	r3, [r2, #8]
 80052f8:	4b50      	ldr	r3, [pc, #320]	@ (800543c <HAL_RCC_ClockConfig+0x1c8>)
 80052fa:	689b      	ldr	r3, [r3, #8]
 80052fc:	f023 02f0 	bic.w	r2, r3, #240	@ 0xf0
 8005300:	687b      	ldr	r3, [r7, #4]
 8005302:	689b      	ldr	r3, [r3, #8]
 8005304:	494d      	ldr	r1, [pc, #308]	@ (800543c <HAL_RCC_ClockConfig+0x1c8>)
 8005306:	4313      	orrs	r3, r2
 8005308:	608b      	str	r3, [r1, #8]
 800530a:	687b      	ldr	r3, [r7, #4]
 800530c:	681b      	ldr	r3, [r3, #0]
 800530e:	f003 0301 	and.w	r3, r3, #1
 8005312:	2b00      	cmp	r3, #0
 8005314:	d040      	beq.n	8005398 <HAL_RCC_ClockConfig+0x124>
 8005316:	687b      	ldr	r3, [r7, #4]
 8005318:	685b      	ldr	r3, [r3, #4]
 800531a:	2b01      	cmp	r3, #1
 800531c:	d107      	bne.n	800532e <HAL_RCC_ClockConfig+0xba>
 800531e:	4b47      	ldr	r3, [pc, #284]	@ (800543c <HAL_RCC_ClockConfig+0x1c8>)
 8005320:	681b      	ldr	r3, [r3, #0]
 8005322:	f403 3300 	and.w	r3, r3, #131072	@ 0x20000
 8005326:	2b00      	cmp	r3, #0
 8005328:	d115      	bne.n	8005356 <HAL_RCC_ClockConfig+0xe2>
 800532a:	2301      	movs	r3, #1
 800532c:	e07f      	b.n	800542e <HAL_RCC_ClockConfig+0x1ba>
 800532e:	687b      	ldr	r3, [r7, #4]
 8005330:	685b      	ldr	r3, [r3, #4]
 8005332:	2b02      	cmp	r3, #2
 8005334:	d107      	bne.n	8005346 <HAL_RCC_ClockConfig+0xd2>
 8005336:	4b41      	ldr	r3, [pc, #260]	@ (800543c <HAL_RCC_ClockConfig+0x1c8>)
 8005338:	681b      	ldr	r3, [r3, #0]
 800533a:	f003 7300 	and.w	r3, r3, #33554432	@ 0x2000000
 800533e:	2b00      	cmp	r3, #0
 8005340:	d109      	bne.n	8005356 <HAL_RCC_ClockConfig+0xe2>
 8005342:	2301      	movs	r3, #1
 8005344:	e073      	b.n	800542e <HAL_RCC_ClockConfig+0x1ba>
 8005346:	4b3d      	ldr	r3, [pc, #244]	@ (800543c <HAL_RCC_ClockConfig+0x1c8>)
 8005348:	681b      	ldr	r3, [r3, #0]
 800534a:	f003 0302 	and.w	r3, r3, #2
 800534e:	2b00      	cmp	r3, #0
 8005350:	d101      	bne.n	8005356 <HAL_RCC_ClockConfig+0xe2>
 8005352:	2301      	movs	r3, #1
 8005354:	e06b      	b.n	800542e <HAL_RCC_ClockConfig+0x1ba>
 8005356:	4b39      	ldr	r3, [pc, #228]	@ (800543c <HAL_RCC_ClockConfig+0x1c8>)
 8005358:	689b      	ldr	r3, [r3, #8]
 800535a:	f023 0203 	bic.w	r2, r3, #3
 800535e:	687b      	ldr	r3, [r7, #4]
 8005360:	685b      	ldr	r3, [r3, #4]
 8005362:	4936      	ldr	r1, [pc, #216]	@ (800543c <HAL_RCC_ClockConfig+0x1c8>)
 8005364:	4313      	orrs	r3, r2
 8005366:	608b      	str	r3, [r1, #8]
 8005368:	f7fd fee4 	bl	8003134 <HAL_GetTick>
 800536c:	60f8      	str	r0, [r7, #12]
 800536e:	e00a      	b.n	8005386 <HAL_RCC_ClockConfig+0x112>
 8005370:	f7fd fee0 	bl	8003134 <HAL_GetTick>
 8005374:	4602      	mov	r2, r0
 8005376:	68fb      	ldr	r3, [r7, #12]
 8005378:	1ad3      	subs	r3, r2, r3
 800537a:	f241 3288 	movw	r2, #5000	@ 0x1388
 800537e:	4293      	cmp	r3, r2
 8005380:	d901      	bls.n	8005386 <HAL_RCC_ClockConfig+0x112>
 8005382:	2303      	movs	r3, #3
 8005384:	e053      	b.n	800542e <HAL_RCC_ClockConfig+0x1ba>
 8005386:	4b2d      	ldr	r3, [pc, #180]	@ (800543c <HAL_RCC_ClockConfig+0x1c8>)
 8005388:	689b      	ldr	r3, [r3, #8]
 800538a:	f003 020c 	and.w	r2, r3, #12
 800538e:	687b      	ldr	r3, [r7, #4]
 8005390:	685b      	ldr	r3, [r3, #4]
 8005392:	009b      	lsls	r3, r3, #2
 8005394:	429a      	cmp	r2, r3
 8005396:	d1eb      	bne.n	8005370 <HAL_RCC_ClockConfig+0xfc>
 8005398:	4b27      	ldr	r3, [pc, #156]	@ (8005438 <HAL_RCC_ClockConfig+0x1c4>)
 800539a:	681b      	ldr	r3, [r3, #0]
 800539c:	f003 030f 	and.w	r3, r3, #15
 80053a0:	683a      	ldr	r2, [r7, #0]
 80053a2:	429a      	cmp	r2, r3
 80053a4:	d210      	bcs.n	80053c8 <HAL_RCC_ClockConfig+0x154>
 80053a6:	4b24      	ldr	r3, [pc, #144]	@ (8005438 <HAL_RCC_ClockConfig+0x1c4>)
 80053a8:	681b      	ldr	r3, [r3, #0]
 80053aa:	f023 020f 	bic.w	r2, r3, #15
 80053ae:	4922      	ldr	r1, [pc, #136]	@ (8005438 <HAL_RCC_ClockConfig+0x1c4>)
 80053b0:	683b      	ldr	r3, [r7, #0]
 80053b2:	4313      	orrs	r3, r2
 80053b4:	600b      	str	r3, [r1, #0]
 80053b6:	4b20      	ldr	r3, [pc, #128]	@ (8005438 <HAL_RCC_ClockConfig+0x1c4>)
 80053b8:	681b      	ldr	r3, [r3, #0]
 80053ba:	f003 030f 	and.w	r3, r3, #15
 80053be:	683a      	ldr	r2, [r7, #0]
 80053c0:	429a      	cmp	r2, r3
 80053c2:	d001      	beq.n	80053c8 <HAL_RCC_ClockConfig+0x154>
 80053c4:	2301      	movs	r3, #1
 80053c6:	e032      	b.n	800542e <HAL_RCC_ClockConfig+0x1ba>
 80053c8:	687b      	ldr	r3, [r7, #4]
 80053ca:	681b      	ldr	r3, [r3, #0]
 80053cc:	f003 0304 	and.w	r3, r3, #4
 80053d0:	2b00      	cmp	r3, #0
 80053d2:	d008      	beq.n	80053e6 <HAL_RCC_ClockConfig+0x172>
 80053d4:	4b19      	ldr	r3, [pc, #100]	@ (800543c <HAL_RCC_ClockConfig+0x1c8>)
 80053d6:	689b      	ldr	r3, [r3, #8]
 80053d8:	f423 52e0 	bic.w	r2, r3, #7168	@ 0x1c00
 80053dc:	687b      	ldr	r3, [r7, #4]
 80053de:	68db      	ldr	r3, [r3, #12]
 80053e0:	4916      	ldr	r1, [pc, #88]	@ (800543c <HAL_RCC_ClockConfig+0x1c8>)
 80053e2:	4313      	orrs	r3, r2
 80053e4:	608b      	str	r3, [r1, #8]
 80053e6:	687b      	ldr	r3, [r7, #4]
 80053e8:	681b      	ldr	r3, [r3, #0]
 80053ea:	f003 0308 	and.w	r3, r3, #8
 80053ee:	2b00      	cmp	r3, #0
 80053f0:	d009      	beq.n	8005406 <HAL_RCC_ClockConfig+0x192>
 80053f2:	4b12      	ldr	r3, [pc, #72]	@ (800543c <HAL_RCC_ClockConfig+0x1c8>)
 80053f4:	689b      	ldr	r3, [r3, #8]
 80053f6:	f423 4260 	bic.w	r2, r3, #57344	@ 0xe000
 80053fa:	687b      	ldr	r3, [r7, #4]
 80053fc:	691b      	ldr	r3, [r3, #16]
 80053fe:	00db      	lsls	r3, r3, #3
 8005400:	490e      	ldr	r1, [pc, #56]	@ (800543c <HAL_RCC_ClockConfig+0x1c8>)
 8005402:	4313      	orrs	r3, r2
 8005404:	608b      	str	r3, [r1, #8]
 8005406:	f000 f821 	bl	800544c <HAL_RCC_GetSysClockFreq>
 800540a:	4602      	mov	r2, r0
 800540c:	4b0b      	ldr	r3, [pc, #44]	@ (800543c <HAL_RCC_ClockConfig+0x1c8>)
 800540e:	689b      	ldr	r3, [r3, #8]
 8005410:	091b      	lsrs	r3, r3, #4
 8005412:	f003 030f 	and.w	r3, r3, #15
 8005416:	490a      	ldr	r1, [pc, #40]	@ (8005440 <HAL_RCC_ClockConfig+0x1cc>)
 8005418:	5ccb      	ldrb	r3, [r1, r3]
 800541a:	fa22 f303 	lsr.w	r3, r2, r3
 800541e:	4a09      	ldr	r2, [pc, #36]	@ (8005444 <HAL_RCC_ClockConfig+0x1d0>)
 8005420:	6013      	str	r3, [r2, #0]
 8005422:	4b09      	ldr	r3, [pc, #36]	@ (8005448 <HAL_RCC_ClockConfig+0x1d4>)
 8005424:	681b      	ldr	r3, [r3, #0]
 8005426:	4618      	mov	r0, r3
 8005428:	f7fd fe40 	bl	80030ac <HAL_InitTick>
 800542c:	2300      	movs	r3, #0
 800542e:	4618      	mov	r0, r3
 8005430:	3710      	adds	r7, #16
 8005432:	46bd      	mov	sp, r7
 8005434:	bd80      	pop	{r7, pc}
 8005436:	bf00      	nop
 8005438:	40023c00 	.word	0x40023c00
 800543c:	40023800 	.word	0x40023800
 8005440:	0800af5c 	.word	0x0800af5c
 8005444:	20000154 	.word	0x20000154
 8005448:	20000158 	.word	0x20000158

0800544c <HAL_RCC_GetSysClockFreq>:
 800544c:	e92d 4fb0 	stmdb	sp!, {r4, r5, r7, r8, r9, sl, fp, lr}
 8005450:	b094      	sub	sp, #80	@ 0x50
 8005452:	af00      	add	r7, sp, #0
 8005454:	2300      	movs	r3, #0
 8005456:	647b      	str	r3, [r7, #68]	@ 0x44
 8005458:	2300      	movs	r3, #0
 800545a:	64fb      	str	r3, [r7, #76]	@ 0x4c
 800545c:	2300      	movs	r3, #0
 800545e:	643b      	str	r3, [r7, #64]	@ 0x40
 8005460:	2300      	movs	r3, #0
 8005462:	64bb      	str	r3, [r7, #72]	@ 0x48
 8005464:	4b79      	ldr	r3, [pc, #484]	@ (800564c <HAL_RCC_GetSysClockFreq+0x200>)
 8005466:	689b      	ldr	r3, [r3, #8]
 8005468:	f003 030c 	and.w	r3, r3, #12
 800546c:	2b08      	cmp	r3, #8
 800546e:	d00d      	beq.n	800548c <HAL_RCC_GetSysClockFreq+0x40>
 8005470:	2b08      	cmp	r3, #8
 8005472:	f200 80e1 	bhi.w	8005638 <HAL_RCC_GetSysClockFreq+0x1ec>
 8005476:	2b00      	cmp	r3, #0
 8005478:	d002      	beq.n	8005480 <HAL_RCC_GetSysClockFreq+0x34>
 800547a:	2b04      	cmp	r3, #4
 800547c:	d003      	beq.n	8005486 <HAL_RCC_GetSysClockFreq+0x3a>
 800547e:	e0db      	b.n	8005638 <HAL_RCC_GetSysClockFreq+0x1ec>
 8005480:	4b73      	ldr	r3, [pc, #460]	@ (8005650 <HAL_RCC_GetSysClockFreq+0x204>)
 8005482:	64bb      	str	r3, [r7, #72]	@ 0x48
 8005484:	e0db      	b.n	800563e <HAL_RCC_GetSysClockFreq+0x1f2>
 8005486:	4b73      	ldr	r3, [pc, #460]	@ (8005654 <HAL_RCC_GetSysClockFreq+0x208>)
 8005488:	64bb      	str	r3, [r7, #72]	@ 0x48
 800548a:	e0d8      	b.n	800563e <HAL_RCC_GetSysClockFreq+0x1f2>
 800548c:	4b6f      	ldr	r3, [pc, #444]	@ (800564c <HAL_RCC_GetSysClockFreq+0x200>)
 800548e:	685b      	ldr	r3, [r3, #4]
 8005490:	f003 033f 	and.w	r3, r3, #63	@ 0x3f
 8005494:	647b      	str	r3, [r7, #68]	@ 0x44
 8005496:	4b6d      	ldr	r3, [pc, #436]	@ (800564c <HAL_RCC_GetSysClockFreq+0x200>)
 8005498:	685b      	ldr	r3, [r3, #4]
 800549a:	f403 0380 	and.w	r3, r3, #4194304	@ 0x400000
 800549e:	2b00      	cmp	r3, #0
 80054a0:	d063      	beq.n	800556a <HAL_RCC_GetSysClockFreq+0x11e>
 80054a2:	4b6a      	ldr	r3, [pc, #424]	@ (800564c <HAL_RCC_GetSysClockFreq+0x200>)
 80054a4:	685b      	ldr	r3, [r3, #4]
 80054a6:	099b      	lsrs	r3, r3, #6
 80054a8:	2200      	movs	r2, #0
 80054aa:	63bb      	str	r3, [r7, #56]	@ 0x38
 80054ac:	63fa      	str	r2, [r7, #60]	@ 0x3c
 80054ae:	6bbb      	ldr	r3, [r7, #56]	@ 0x38
 80054b0:	f3c3 0308 	ubfx	r3, r3, #0, #9
 80054b4:	633b      	str	r3, [r7, #48]	@ 0x30
 80054b6:	2300      	movs	r3, #0
 80054b8:	637b      	str	r3, [r7, #52]	@ 0x34
 80054ba:	e9d7 450c 	ldrd	r4, r5, [r7, #48]	@ 0x30
 80054be:	4622      	mov	r2, r4
 80054c0:	462b      	mov	r3, r5
 80054c2:	f04f 0000 	mov.w	r0, #0
 80054c6:	f04f 0100 	mov.w	r1, #0
 80054ca:	0159      	lsls	r1, r3, #5
 80054cc:	ea41 61d2 	orr.w	r1, r1, r2, lsr #27
 80054d0:	0150      	lsls	r0, r2, #5
 80054d2:	4602      	mov	r2, r0
 80054d4:	460b      	mov	r3, r1
 80054d6:	4621      	mov	r1, r4
 80054d8:	1a51      	subs	r1, r2, r1
 80054da:	6139      	str	r1, [r7, #16]
 80054dc:	4629      	mov	r1, r5
 80054de:	eb63 0301 	sbc.w	r3, r3, r1
 80054e2:	617b      	str	r3, [r7, #20]
 80054e4:	f04f 0200 	mov.w	r2, #0
 80054e8:	f04f 0300 	mov.w	r3, #0
 80054ec:	e9d7 ab04 	ldrd	sl, fp, [r7, #16]
 80054f0:	4659      	mov	r1, fp
 80054f2:	018b      	lsls	r3, r1, #6
 80054f4:	4651      	mov	r1, sl
 80054f6:	ea43 6391 	orr.w	r3, r3, r1, lsr #26
 80054fa:	4651      	mov	r1, sl
 80054fc:	018a      	lsls	r2, r1, #6
 80054fe:	4651      	mov	r1, sl
 8005500:	ebb2 0801 	subs.w	r8, r2, r1
 8005504:	4659      	mov	r1, fp
 8005506:	eb63 0901 	sbc.w	r9, r3, r1
 800550a:	f04f 0200 	mov.w	r2, #0
 800550e:	f04f 0300 	mov.w	r3, #0
 8005512:	ea4f 03c9 	mov.w	r3, r9, lsl #3
 8005516:	ea43 7358 	orr.w	r3, r3, r8, lsr #29
 800551a:	ea4f 02c8 	mov.w	r2, r8, lsl #3
 800551e:	4690      	mov	r8, r2
 8005520:	4699      	mov	r9, r3
 8005522:	4623      	mov	r3, r4
 8005524:	eb18 0303 	adds.w	r3, r8, r3
 8005528:	60bb      	str	r3, [r7, #8]
 800552a:	462b      	mov	r3, r5
 800552c:	eb49 0303 	adc.w	r3, r9, r3
 8005530:	60fb      	str	r3, [r7, #12]
 8005532:	f04f 0200 	mov.w	r2, #0
 8005536:	f04f 0300 	mov.w	r3, #0
 800553a:	e9d7 4502 	ldrd	r4, r5, [r7, #8]
 800553e:	4629      	mov	r1, r5
 8005540:	024b      	lsls	r3, r1, #9
 8005542:	4621      	mov	r1, r4
 8005544:	ea43 53d1 	orr.w	r3, r3, r1, lsr #23
 8005548:	4621      	mov	r1, r4
 800554a:	024a      	lsls	r2, r1, #9
 800554c:	4610      	mov	r0, r2
 800554e:	4619      	mov	r1, r3
 8005550:	6c7b      	ldr	r3, [r7, #68]	@ 0x44
 8005552:	2200      	movs	r2, #0
 8005554:	62bb      	str	r3, [r7, #40]	@ 0x28
 8005556:	62fa      	str	r2, [r7, #44]	@ 0x2c
 8005558:	e9d7 230a 	ldrd	r2, r3, [r7, #40]	@ 0x28
 800555c:	f7fb fb44 	bl	8000be8 <__aeabi_uldivmod>
 8005560:	4602      	mov	r2, r0
 8005562:	460b      	mov	r3, r1
 8005564:	4613      	mov	r3, r2
 8005566:	64fb      	str	r3, [r7, #76]	@ 0x4c
 8005568:	e058      	b.n	800561c <HAL_RCC_GetSysClockFreq+0x1d0>
 800556a:	4b38      	ldr	r3, [pc, #224]	@ (800564c <HAL_RCC_GetSysClockFreq+0x200>)
 800556c:	685b      	ldr	r3, [r3, #4]
 800556e:	099b      	lsrs	r3, r3, #6
 8005570:	2200      	movs	r2, #0
 8005572:	4618      	mov	r0, r3
 8005574:	4611      	mov	r1, r2
 8005576:	f3c0 0308 	ubfx	r3, r0, #0, #9
 800557a:	623b      	str	r3, [r7, #32]
 800557c:	2300      	movs	r3, #0
 800557e:	627b      	str	r3, [r7, #36]	@ 0x24
 8005580:	e9d7 8908 	ldrd	r8, r9, [r7, #32]
 8005584:	4642      	mov	r2, r8
 8005586:	464b      	mov	r3, r9
 8005588:	f04f 0000 	mov.w	r0, #0
 800558c:	f04f 0100 	mov.w	r1, #0
 8005590:	0159      	lsls	r1, r3, #5
 8005592:	ea41 61d2 	orr.w	r1, r1, r2, lsr #27
 8005596:	0150      	lsls	r0, r2, #5
 8005598:	4602      	mov	r2, r0
 800559a:	460b      	mov	r3, r1
 800559c:	4641      	mov	r1, r8
 800559e:	ebb2 0a01 	subs.w	sl, r2, r1
 80055a2:	4649      	mov	r1, r9
 80055a4:	eb63 0b01 	sbc.w	fp, r3, r1
 80055a8:	f04f 0200 	mov.w	r2, #0
 80055ac:	f04f 0300 	mov.w	r3, #0
 80055b0:	ea4f 138b 	mov.w	r3, fp, lsl #6
 80055b4:	ea43 639a 	orr.w	r3, r3, sl, lsr #26
 80055b8:	ea4f 128a 	mov.w	r2, sl, lsl #6
 80055bc:	ebb2 040a 	subs.w	r4, r2, sl
 80055c0:	eb63 050b 	sbc.w	r5, r3, fp
 80055c4:	f04f 0200 	mov.w	r2, #0
 80055c8:	f04f 0300 	mov.w	r3, #0
 80055cc:	00eb      	lsls	r3, r5, #3
 80055ce:	ea43 7354 	orr.w	r3, r3, r4, lsr #29
 80055d2:	00e2      	lsls	r2, r4, #3
 80055d4:	4614      	mov	r4, r2
 80055d6:	461d      	mov	r5, r3
 80055d8:	4643      	mov	r3, r8
 80055da:	18e3      	adds	r3, r4, r3
 80055dc:	603b      	str	r3, [r7, #0]
 80055de:	464b      	mov	r3, r9
 80055e0:	eb45 0303 	adc.w	r3, r5, r3
 80055e4:	607b      	str	r3, [r7, #4]
 80055e6:	f04f 0200 	mov.w	r2, #0
 80055ea:	f04f 0300 	mov.w	r3, #0
 80055ee:	e9d7 4500 	ldrd	r4, r5, [r7]
 80055f2:	4629      	mov	r1, r5
 80055f4:	028b      	lsls	r3, r1, #10
 80055f6:	4621      	mov	r1, r4
 80055f8:	ea43 5391 	orr.w	r3, r3, r1, lsr #22
 80055fc:	4621      	mov	r1, r4
 80055fe:	028a      	lsls	r2, r1, #10
 8005600:	4610      	mov	r0, r2
 8005602:	4619      	mov	r1, r3
 8005604:	6c7b      	ldr	r3, [r7, #68]	@ 0x44
 8005606:	2200      	movs	r2, #0
 8005608:	61bb      	str	r3, [r7, #24]
 800560a:	61fa      	str	r2, [r7, #28]
 800560c:	e9d7 2306 	ldrd	r2, r3, [r7, #24]
 8005610:	f7fb faea 	bl	8000be8 <__aeabi_uldivmod>
 8005614:	4602      	mov	r2, r0
 8005616:	460b      	mov	r3, r1
 8005618:	4613      	mov	r3, r2
 800561a:	64fb      	str	r3, [r7, #76]	@ 0x4c
 800561c:	4b0b      	ldr	r3, [pc, #44]	@ (800564c <HAL_RCC_GetSysClockFreq+0x200>)
 800561e:	685b      	ldr	r3, [r3, #4]
 8005620:	0c1b      	lsrs	r3, r3, #16
 8005622:	f003 0303 	and.w	r3, r3, #3
 8005626:	3301      	adds	r3, #1
 8005628:	005b      	lsls	r3, r3, #1
 800562a:	643b      	str	r3, [r7, #64]	@ 0x40
 800562c:	6cfa      	ldr	r2, [r7, #76]	@ 0x4c
 800562e:	6c3b      	ldr	r3, [r7, #64]	@ 0x40
 8005630:	fbb2 f3f3 	udiv	r3, r2, r3
 8005634:	64bb      	str	r3, [r7, #72]	@ 0x48
 8005636:	e002      	b.n	800563e <HAL_RCC_GetSysClockFreq+0x1f2>
 8005638:	4b05      	ldr	r3, [pc, #20]	@ (8005650 <HAL_RCC_GetSysClockFreq+0x204>)
 800563a:	64bb      	str	r3, [r7, #72]	@ 0x48
 800563c:	bf00      	nop
 800563e:	6cbb      	ldr	r3, [r7, #72]	@ 0x48
 8005640:	4618      	mov	r0, r3
 8005642:	3750      	adds	r7, #80	@ 0x50
 8005644:	46bd      	mov	sp, r7
 8005646:	e8bd 8fb0 	ldmia.w	sp!, {r4, r5, r7, r8, r9, sl, fp, pc}
 800564a:	bf00      	nop
 800564c:	40023800 	.word	0x40023800
 8005650:	00f42400 	.word	0x00f42400
 8005654:	007a1200 	.word	0x007a1200

08005658 <HAL_RCC_GetHCLKFreq>:
 8005658:	b480      	push	{r7}
 800565a:	af00      	add	r7, sp, #0
 800565c:	4b03      	ldr	r3, [pc, #12]	@ (800566c <HAL_RCC_GetHCLKFreq+0x14>)
 800565e:	681b      	ldr	r3, [r3, #0]
 8005660:	4618      	mov	r0, r3
 8005662:	46bd      	mov	sp, r7
 8005664:	f85d 7b04 	ldr.w	r7, [sp], #4
 8005668:	4770      	bx	lr
 800566a:	bf00      	nop
 800566c:	20000154 	.word	0x20000154

08005670 <HAL_RCC_GetPCLK1Freq>:
 8005670:	b580      	push	{r7, lr}
 8005672:	af00      	add	r7, sp, #0
 8005674:	f7ff fff0 	bl	8005658 <HAL_RCC_GetHCLKFreq>
 8005678:	4602      	mov	r2, r0
 800567a:	4b05      	ldr	r3, [pc, #20]	@ (8005690 <HAL_RCC_GetPCLK1Freq+0x20>)
 800567c:	689b      	ldr	r3, [r3, #8]
 800567e:	0a9b      	lsrs	r3, r3, #10
 8005680:	f003 0307 	and.w	r3, r3, #7
 8005684:	4903      	ldr	r1, [pc, #12]	@ (8005694 <HAL_RCC_GetPCLK1Freq+0x24>)
 8005686:	5ccb      	ldrb	r3, [r1, r3]
 8005688:	fa22 f303 	lsr.w	r3, r2, r3
 800568c:	4618      	mov	r0, r3
 800568e:	bd80      	pop	{r7, pc}
 8005690:	40023800 	.word	0x40023800
 8005694:	0800af6c 	.word	0x0800af6c

08005698 <HAL_RCC_GetPCLK2Freq>:
 8005698:	b580      	push	{r7, lr}
 800569a:	af00      	add	r7, sp, #0
 800569c:	f7ff ffdc 	bl	8005658 <HAL_RCC_GetHCLKFreq>
 80056a0:	4602      	mov	r2, r0
 80056a2:	4b05      	ldr	r3, [pc, #20]	@ (80056b8 <HAL_RCC_GetPCLK2Freq+0x20>)
 80056a4:	689b      	ldr	r3, [r3, #8]
 80056a6:	0b5b      	lsrs	r3, r3, #13
 80056a8:	f003 0307 	and.w	r3, r3, #7
 80056ac:	4903      	ldr	r1, [pc, #12]	@ (80056bc <HAL_RCC_GetPCLK2Freq+0x24>)
 80056ae:	5ccb      	ldrb	r3, [r1, r3]
 80056b0:	fa22 f303 	lsr.w	r3, r2, r3
 80056b4:	4618      	mov	r0, r3
 80056b6:	bd80      	pop	{r7, pc}
 80056b8:	40023800 	.word	0x40023800
 80056bc:	0800af6c 	.word	0x0800af6c

080056c0 <HAL_RCCEx_PeriphCLKConfig>:
 80056c0:	b580      	push	{r7, lr}
 80056c2:	b088      	sub	sp, #32
 80056c4:	af00      	add	r7, sp, #0
 80056c6:	6078      	str	r0, [r7, #4]
 80056c8:	2300      	movs	r3, #0
 80056ca:	617b      	str	r3, [r7, #20]
 80056cc:	2300      	movs	r3, #0
 80056ce:	613b      	str	r3, [r7, #16]
 80056d0:	2300      	movs	r3, #0
 80056d2:	60fb      	str	r3, [r7, #12]
 80056d4:	2300      	movs	r3, #0
 80056d6:	61fb      	str	r3, [r7, #28]
 80056d8:	2300      	movs	r3, #0
 80056da:	61bb      	str	r3, [r7, #24]
 80056dc:	687b      	ldr	r3, [r7, #4]
 80056de:	681b      	ldr	r3, [r3, #0]
 80056e0:	f003 0301 	and.w	r3, r3, #1
 80056e4:	2b00      	cmp	r3, #0
 80056e6:	d012      	beq.n	800570e <HAL_RCCEx_PeriphCLKConfig+0x4e>
 80056e8:	4b69      	ldr	r3, [pc, #420]	@ (8005890 <HAL_RCCEx_PeriphCLKConfig+0x1d0>)
 80056ea:	689b      	ldr	r3, [r3, #8]
 80056ec:	4a68      	ldr	r2, [pc, #416]	@ (8005890 <HAL_RCCEx_PeriphCLKConfig+0x1d0>)
 80056ee:	f423 0300 	bic.w	r3, r3, #8388608	@ 0x800000
 80056f2:	6093      	str	r3, [r2, #8]
 80056f4:	4b66      	ldr	r3, [pc, #408]	@ (8005890 <HAL_RCCEx_PeriphCLKConfig+0x1d0>)
 80056f6:	689a      	ldr	r2, [r3, #8]
 80056f8:	687b      	ldr	r3, [r7, #4]
 80056fa:	6b5b      	ldr	r3, [r3, #52]	@ 0x34
 80056fc:	4964      	ldr	r1, [pc, #400]	@ (8005890 <HAL_RCCEx_PeriphCLKConfig+0x1d0>)
 80056fe:	4313      	orrs	r3, r2
 8005700:	608b      	str	r3, [r1, #8]
 8005702:	687b      	ldr	r3, [r7, #4]
 8005704:	6b5b      	ldr	r3, [r3, #52]	@ 0x34
 8005706:	2b00      	cmp	r3, #0
 8005708:	d101      	bne.n	800570e <HAL_RCCEx_PeriphCLKConfig+0x4e>
 800570a:	2301      	movs	r3, #1
 800570c:	61fb      	str	r3, [r7, #28]
 800570e:	687b      	ldr	r3, [r7, #4]
 8005710:	681b      	ldr	r3, [r3, #0]
 8005712:	f403 2300 	and.w	r3, r3, #524288	@ 0x80000
 8005716:	2b00      	cmp	r3, #0
 8005718:	d017      	beq.n	800574a <HAL_RCCEx_PeriphCLKConfig+0x8a>
 800571a:	4b5d      	ldr	r3, [pc, #372]	@ (8005890 <HAL_RCCEx_PeriphCLKConfig+0x1d0>)
 800571c:	f8d3 308c 	ldr.w	r3, [r3, #140]	@ 0x8c
 8005720:	f423 1240 	bic.w	r2, r3, #3145728	@ 0x300000
 8005724:	687b      	ldr	r3, [r7, #4]
 8005726:	6bdb      	ldr	r3, [r3, #60]	@ 0x3c
 8005728:	4959      	ldr	r1, [pc, #356]	@ (8005890 <HAL_RCCEx_PeriphCLKConfig+0x1d0>)
 800572a:	4313      	orrs	r3, r2
 800572c:	f8c1 308c 	str.w	r3, [r1, #140]	@ 0x8c
 8005730:	687b      	ldr	r3, [r7, #4]
 8005732:	6bdb      	ldr	r3, [r3, #60]	@ 0x3c
 8005734:	f5b3 1f80 	cmp.w	r3, #1048576	@ 0x100000
 8005738:	d101      	bne.n	800573e <HAL_RCCEx_PeriphCLKConfig+0x7e>
 800573a:	2301      	movs	r3, #1
 800573c:	61fb      	str	r3, [r7, #28]
 800573e:	687b      	ldr	r3, [r7, #4]
 8005740:	6bdb      	ldr	r3, [r3, #60]	@ 0x3c
 8005742:	2b00      	cmp	r3, #0
 8005744:	d101      	bne.n	800574a <HAL_RCCEx_PeriphCLKConfig+0x8a>
 8005746:	2301      	movs	r3, #1
 8005748:	61bb      	str	r3, [r7, #24]
 800574a:	687b      	ldr	r3, [r7, #4]
 800574c:	681b      	ldr	r3, [r3, #0]
 800574e:	f403 1380 	and.w	r3, r3, #1048576	@ 0x100000
 8005752:	2b00      	cmp	r3, #0
 8005754:	d017      	beq.n	8005786 <HAL_RCCEx_PeriphCLKConfig+0xc6>
 8005756:	4b4e      	ldr	r3, [pc, #312]	@ (8005890 <HAL_RCCEx_PeriphCLKConfig+0x1d0>)
 8005758:	f8d3 308c 	ldr.w	r3, [r3, #140]	@ 0x8c
 800575c:	f423 0240 	bic.w	r2, r3, #12582912	@ 0xc00000
 8005760:	687b      	ldr	r3, [r7, #4]
 8005762:	6c1b      	ldr	r3, [r3, #64]	@ 0x40
 8005764:	494a      	ldr	r1, [pc, #296]	@ (8005890 <HAL_RCCEx_PeriphCLKConfig+0x1d0>)
 8005766:	4313      	orrs	r3, r2
 8005768:	f8c1 308c 	str.w	r3, [r1, #140]	@ 0x8c
 800576c:	687b      	ldr	r3, [r7, #4]
 800576e:	6c1b      	ldr	r3, [r3, #64]	@ 0x40
 8005770:	f5b3 0f80 	cmp.w	r3, #4194304	@ 0x400000
 8005774:	d101      	bne.n	800577a <HAL_RCCEx_PeriphCLKConfig+0xba>
 8005776:	2301      	movs	r3, #1
 8005778:	61fb      	str	r3, [r7, #28]
 800577a:	687b      	ldr	r3, [r7, #4]
 800577c:	6c1b      	ldr	r3, [r3, #64]	@ 0x40
 800577e:	2b00      	cmp	r3, #0
 8005780:	d101      	bne.n	8005786 <HAL_RCCEx_PeriphCLKConfig+0xc6>
 8005782:	2301      	movs	r3, #1
 8005784:	61bb      	str	r3, [r7, #24]
 8005786:	687b      	ldr	r3, [r7, #4]
 8005788:	681b      	ldr	r3, [r3, #0]
 800578a:	f003 7380 	and.w	r3, r3, #16777216	@ 0x1000000
 800578e:	2b00      	cmp	r3, #0
 8005790:	d001      	beq.n	8005796 <HAL_RCCEx_PeriphCLKConfig+0xd6>
 8005792:	2301      	movs	r3, #1
 8005794:	61fb      	str	r3, [r7, #28]
 8005796:	687b      	ldr	r3, [r7, #4]
 8005798:	681b      	ldr	r3, [r3, #0]
 800579a:	f003 0320 	and.w	r3, r3, #32
 800579e:	2b00      	cmp	r3, #0
 80057a0:	f000 808b 	beq.w	80058ba <HAL_RCCEx_PeriphCLKConfig+0x1fa>
 80057a4:	4b3a      	ldr	r3, [pc, #232]	@ (8005890 <HAL_RCCEx_PeriphCLKConfig+0x1d0>)
 80057a6:	6c1b      	ldr	r3, [r3, #64]	@ 0x40
 80057a8:	4a39      	ldr	r2, [pc, #228]	@ (8005890 <HAL_RCCEx_PeriphCLKConfig+0x1d0>)
 80057aa:	f043 5380 	orr.w	r3, r3, #268435456	@ 0x10000000
 80057ae:	6413      	str	r3, [r2, #64]	@ 0x40
 80057b0:	4b37      	ldr	r3, [pc, #220]	@ (8005890 <HAL_RCCEx_PeriphCLKConfig+0x1d0>)
 80057b2:	6c1b      	ldr	r3, [r3, #64]	@ 0x40
 80057b4:	f003 5380 	and.w	r3, r3, #268435456	@ 0x10000000
 80057b8:	60bb      	str	r3, [r7, #8]
 80057ba:	68bb      	ldr	r3, [r7, #8]
 80057bc:	4b35      	ldr	r3, [pc, #212]	@ (8005894 <HAL_RCCEx_PeriphCLKConfig+0x1d4>)
 80057be:	681b      	ldr	r3, [r3, #0]
 80057c0:	4a34      	ldr	r2, [pc, #208]	@ (8005894 <HAL_RCCEx_PeriphCLKConfig+0x1d4>)
 80057c2:	f443 7380 	orr.w	r3, r3, #256	@ 0x100
 80057c6:	6013      	str	r3, [r2, #0]
 80057c8:	f7fd fcb4 	bl	8003134 <HAL_GetTick>
 80057cc:	6178      	str	r0, [r7, #20]
 80057ce:	e008      	b.n	80057e2 <HAL_RCCEx_PeriphCLKConfig+0x122>
 80057d0:	f7fd fcb0 	bl	8003134 <HAL_GetTick>
 80057d4:	4602      	mov	r2, r0
 80057d6:	697b      	ldr	r3, [r7, #20]
 80057d8:	1ad3      	subs	r3, r2, r3
 80057da:	2b64      	cmp	r3, #100	@ 0x64
 80057dc:	d901      	bls.n	80057e2 <HAL_RCCEx_PeriphCLKConfig+0x122>
 80057de:	2303      	movs	r3, #3
 80057e0:	e357      	b.n	8005e92 <HAL_RCCEx_PeriphCLKConfig+0x7d2>
 80057e2:	4b2c      	ldr	r3, [pc, #176]	@ (8005894 <HAL_RCCEx_PeriphCLKConfig+0x1d4>)
 80057e4:	681b      	ldr	r3, [r3, #0]
 80057e6:	f403 7380 	and.w	r3, r3, #256	@ 0x100
 80057ea:	2b00      	cmp	r3, #0
 80057ec:	d0f0      	beq.n	80057d0 <HAL_RCCEx_PeriphCLKConfig+0x110>
 80057ee:	4b28      	ldr	r3, [pc, #160]	@ (8005890 <HAL_RCCEx_PeriphCLKConfig+0x1d0>)
 80057f0:	6f1b      	ldr	r3, [r3, #112]	@ 0x70
 80057f2:	f403 7340 	and.w	r3, r3, #768	@ 0x300
 80057f6:	613b      	str	r3, [r7, #16]
 80057f8:	693b      	ldr	r3, [r7, #16]
 80057fa:	2b00      	cmp	r3, #0
 80057fc:	d035      	beq.n	800586a <HAL_RCCEx_PeriphCLKConfig+0x1aa>
 80057fe:	687b      	ldr	r3, [r7, #4]
 8005800:	6b1b      	ldr	r3, [r3, #48]	@ 0x30
 8005802:	f403 7340 	and.w	r3, r3, #768	@ 0x300
 8005806:	693a      	ldr	r2, [r7, #16]
 8005808:	429a      	cmp	r2, r3
 800580a:	d02e      	beq.n	800586a <HAL_RCCEx_PeriphCLKConfig+0x1aa>
 800580c:	4b20      	ldr	r3, [pc, #128]	@ (8005890 <HAL_RCCEx_PeriphCLKConfig+0x1d0>)
 800580e:	6f1b      	ldr	r3, [r3, #112]	@ 0x70
 8005810:	f423 7340 	bic.w	r3, r3, #768	@ 0x300
 8005814:	613b      	str	r3, [r7, #16]
 8005816:	4b1e      	ldr	r3, [pc, #120]	@ (8005890 <HAL_RCCEx_PeriphCLKConfig+0x1d0>)
 8005818:	6f1b      	ldr	r3, [r3, #112]	@ 0x70
 800581a:	4a1d      	ldr	r2, [pc, #116]	@ (8005890 <HAL_RCCEx_PeriphCLKConfig+0x1d0>)
 800581c:	f443 3380 	orr.w	r3, r3, #65536	@ 0x10000
 8005820:	6713      	str	r3, [r2, #112]	@ 0x70
 8005822:	4b1b      	ldr	r3, [pc, #108]	@ (8005890 <HAL_RCCEx_PeriphCLKConfig+0x1d0>)
 8005824:	6f1b      	ldr	r3, [r3, #112]	@ 0x70
 8005826:	4a1a      	ldr	r2, [pc, #104]	@ (8005890 <HAL_RCCEx_PeriphCLKConfig+0x1d0>)
 8005828:	f423 3380 	bic.w	r3, r3, #65536	@ 0x10000
 800582c:	6713      	str	r3, [r2, #112]	@ 0x70
 800582e:	4a18      	ldr	r2, [pc, #96]	@ (8005890 <HAL_RCCEx_PeriphCLKConfig+0x1d0>)
 8005830:	693b      	ldr	r3, [r7, #16]
 8005832:	6713      	str	r3, [r2, #112]	@ 0x70
 8005834:	4b16      	ldr	r3, [pc, #88]	@ (8005890 <HAL_RCCEx_PeriphCLKConfig+0x1d0>)
 8005836:	6f1b      	ldr	r3, [r3, #112]	@ 0x70
 8005838:	f003 0301 	and.w	r3, r3, #1
 800583c:	2b01      	cmp	r3, #1
 800583e:	d114      	bne.n	800586a <HAL_RCCEx_PeriphCLKConfig+0x1aa>
 8005840:	f7fd fc78 	bl	8003134 <HAL_GetTick>
 8005844:	6178      	str	r0, [r7, #20]
 8005846:	e00a      	b.n	800585e <HAL_RCCEx_PeriphCLKConfig+0x19e>
 8005848:	f7fd fc74 	bl	8003134 <HAL_GetTick>
 800584c:	4602      	mov	r2, r0
 800584e:	697b      	ldr	r3, [r7, #20]
 8005850:	1ad3      	subs	r3, r2, r3
 8005852:	f241 3288 	movw	r2, #5000	@ 0x1388
 8005856:	4293      	cmp	r3, r2
 8005858:	d901      	bls.n	800585e <HAL_RCCEx_PeriphCLKConfig+0x19e>
 800585a:	2303      	movs	r3, #3
 800585c:	e319      	b.n	8005e92 <HAL_RCCEx_PeriphCLKConfig+0x7d2>
 800585e:	4b0c      	ldr	r3, [pc, #48]	@ (8005890 <HAL_RCCEx_PeriphCLKConfig+0x1d0>)
 8005860:	6f1b      	ldr	r3, [r3, #112]	@ 0x70
 8005862:	f003 0302 	and.w	r3, r3, #2
 8005866:	2b00      	cmp	r3, #0
 8005868:	d0ee      	beq.n	8005848 <HAL_RCCEx_PeriphCLKConfig+0x188>
 800586a:	687b      	ldr	r3, [r7, #4]
 800586c:	6b1b      	ldr	r3, [r3, #48]	@ 0x30
 800586e:	f403 7340 	and.w	r3, r3, #768	@ 0x300
 8005872:	f5b3 7f40 	cmp.w	r3, #768	@ 0x300
 8005876:	d111      	bne.n	800589c <HAL_RCCEx_PeriphCLKConfig+0x1dc>
 8005878:	4b05      	ldr	r3, [pc, #20]	@ (8005890 <HAL_RCCEx_PeriphCLKConfig+0x1d0>)
 800587a:	689b      	ldr	r3, [r3, #8]
 800587c:	f423 12f8 	bic.w	r2, r3, #2031616	@ 0x1f0000
 8005880:	687b      	ldr	r3, [r7, #4]
 8005882:	6b19      	ldr	r1, [r3, #48]	@ 0x30
 8005884:	4b04      	ldr	r3, [pc, #16]	@ (8005898 <HAL_RCCEx_PeriphCLKConfig+0x1d8>)
 8005886:	400b      	ands	r3, r1
 8005888:	4901      	ldr	r1, [pc, #4]	@ (8005890 <HAL_RCCEx_PeriphCLKConfig+0x1d0>)
 800588a:	4313      	orrs	r3, r2
 800588c:	608b      	str	r3, [r1, #8]
 800588e:	e00b      	b.n	80058a8 <HAL_RCCEx_PeriphCLKConfig+0x1e8>
 8005890:	40023800 	.word	0x40023800
 8005894:	40007000 	.word	0x40007000
 8005898:	0ffffcff 	.word	0x0ffffcff
 800589c:	4baa      	ldr	r3, [pc, #680]	@ (8005b48 <HAL_RCCEx_PeriphCLKConfig+0x488>)
 800589e:	689b      	ldr	r3, [r3, #8]
 80058a0:	4aa9      	ldr	r2, [pc, #676]	@ (8005b48 <HAL_RCCEx_PeriphCLKConfig+0x488>)
 80058a2:	f423 13f8 	bic.w	r3, r3, #2031616	@ 0x1f0000
 80058a6:	6093      	str	r3, [r2, #8]
 80058a8:	4ba7      	ldr	r3, [pc, #668]	@ (8005b48 <HAL_RCCEx_PeriphCLKConfig+0x488>)
 80058aa:	6f1a      	ldr	r2, [r3, #112]	@ 0x70
 80058ac:	687b      	ldr	r3, [r7, #4]
 80058ae:	6b1b      	ldr	r3, [r3, #48]	@ 0x30
 80058b0:	f3c3 030b 	ubfx	r3, r3, #0, #12
 80058b4:	49a4      	ldr	r1, [pc, #656]	@ (8005b48 <HAL_RCCEx_PeriphCLKConfig+0x488>)
 80058b6:	4313      	orrs	r3, r2
 80058b8:	670b      	str	r3, [r1, #112]	@ 0x70
 80058ba:	687b      	ldr	r3, [r7, #4]
 80058bc:	681b      	ldr	r3, [r3, #0]
 80058be:	f003 0310 	and.w	r3, r3, #16
 80058c2:	2b00      	cmp	r3, #0
 80058c4:	d010      	beq.n	80058e8 <HAL_RCCEx_PeriphCLKConfig+0x228>
 80058c6:	4ba0      	ldr	r3, [pc, #640]	@ (8005b48 <HAL_RCCEx_PeriphCLKConfig+0x488>)
 80058c8:	f8d3 308c 	ldr.w	r3, [r3, #140]	@ 0x8c
 80058cc:	4a9e      	ldr	r2, [pc, #632]	@ (8005b48 <HAL_RCCEx_PeriphCLKConfig+0x488>)
 80058ce:	f023 7380 	bic.w	r3, r3, #16777216	@ 0x1000000
 80058d2:	f8c2 308c 	str.w	r3, [r2, #140]	@ 0x8c
 80058d6:	4b9c      	ldr	r3, [pc, #624]	@ (8005b48 <HAL_RCCEx_PeriphCLKConfig+0x488>)
 80058d8:	f8d3 208c 	ldr.w	r2, [r3, #140]	@ 0x8c
 80058dc:	687b      	ldr	r3, [r7, #4]
 80058de:	6b9b      	ldr	r3, [r3, #56]	@ 0x38
 80058e0:	4999      	ldr	r1, [pc, #612]	@ (8005b48 <HAL_RCCEx_PeriphCLKConfig+0x488>)
 80058e2:	4313      	orrs	r3, r2
 80058e4:	f8c1 308c 	str.w	r3, [r1, #140]	@ 0x8c
 80058e8:	687b      	ldr	r3, [r7, #4]
 80058ea:	681b      	ldr	r3, [r3, #0]
 80058ec:	f403 4380 	and.w	r3, r3, #16384	@ 0x4000
 80058f0:	2b00      	cmp	r3, #0
 80058f2:	d00a      	beq.n	800590a <HAL_RCCEx_PeriphCLKConfig+0x24a>
 80058f4:	4b94      	ldr	r3, [pc, #592]	@ (8005b48 <HAL_RCCEx_PeriphCLKConfig+0x488>)
 80058f6:	f8d3 3090 	ldr.w	r3, [r3, #144]	@ 0x90
 80058fa:	f423 3240 	bic.w	r2, r3, #196608	@ 0x30000
 80058fe:	687b      	ldr	r3, [r7, #4]
 8005900:	6e5b      	ldr	r3, [r3, #100]	@ 0x64
 8005902:	4991      	ldr	r1, [pc, #580]	@ (8005b48 <HAL_RCCEx_PeriphCLKConfig+0x488>)
 8005904:	4313      	orrs	r3, r2
 8005906:	f8c1 3090 	str.w	r3, [r1, #144]	@ 0x90
 800590a:	687b      	ldr	r3, [r7, #4]
 800590c:	681b      	ldr	r3, [r3, #0]
 800590e:	f403 4300 	and.w	r3, r3, #32768	@ 0x8000
 8005912:	2b00      	cmp	r3, #0
 8005914:	d00a      	beq.n	800592c <HAL_RCCEx_PeriphCLKConfig+0x26c>
 8005916:	4b8c      	ldr	r3, [pc, #560]	@ (8005b48 <HAL_RCCEx_PeriphCLKConfig+0x488>)
 8005918:	f8d3 3090 	ldr.w	r3, [r3, #144]	@ 0x90
 800591c:	f423 2240 	bic.w	r2, r3, #786432	@ 0xc0000
 8005920:	687b      	ldr	r3, [r7, #4]
 8005922:	6e9b      	ldr	r3, [r3, #104]	@ 0x68
 8005924:	4988      	ldr	r1, [pc, #544]	@ (8005b48 <HAL_RCCEx_PeriphCLKConfig+0x488>)
 8005926:	4313      	orrs	r3, r2
 8005928:	f8c1 3090 	str.w	r3, [r1, #144]	@ 0x90
 800592c:	687b      	ldr	r3, [r7, #4]
 800592e:	681b      	ldr	r3, [r3, #0]
 8005930:	f403 3380 	and.w	r3, r3, #65536	@ 0x10000
 8005934:	2b00      	cmp	r3, #0
 8005936:	d00a      	beq.n	800594e <HAL_RCCEx_PeriphCLKConfig+0x28e>
 8005938:	4b83      	ldr	r3, [pc, #524]	@ (8005b48 <HAL_RCCEx_PeriphCLKConfig+0x488>)
 800593a:	f8d3 3090 	ldr.w	r3, [r3, #144]	@ 0x90
 800593e:	f423 1240 	bic.w	r2, r3, #3145728	@ 0x300000
 8005942:	687b      	ldr	r3, [r7, #4]
 8005944:	6edb      	ldr	r3, [r3, #108]	@ 0x6c
 8005946:	4980      	ldr	r1, [pc, #512]	@ (8005b48 <HAL_RCCEx_PeriphCLKConfig+0x488>)
 8005948:	4313      	orrs	r3, r2
 800594a:	f8c1 3090 	str.w	r3, [r1, #144]	@ 0x90
 800594e:	687b      	ldr	r3, [r7, #4]
 8005950:	681b      	ldr	r3, [r3, #0]
 8005952:	f403 3300 	and.w	r3, r3, #131072	@ 0x20000
 8005956:	2b00      	cmp	r3, #0
 8005958:	d00a      	beq.n	8005970 <HAL_RCCEx_PeriphCLKConfig+0x2b0>
 800595a:	4b7b      	ldr	r3, [pc, #492]	@ (8005b48 <HAL_RCCEx_PeriphCLKConfig+0x488>)
 800595c:	f8d3 3090 	ldr.w	r3, [r3, #144]	@ 0x90
 8005960:	f423 0240 	bic.w	r2, r3, #12582912	@ 0xc00000
 8005964:	687b      	ldr	r3, [r7, #4]
 8005966:	6f1b      	ldr	r3, [r3, #112]	@ 0x70
 8005968:	4977      	ldr	r1, [pc, #476]	@ (8005b48 <HAL_RCCEx_PeriphCLKConfig+0x488>)
 800596a:	4313      	orrs	r3, r2
 800596c:	f8c1 3090 	str.w	r3, [r1, #144]	@ 0x90
 8005970:	687b      	ldr	r3, [r7, #4]
 8005972:	681b      	ldr	r3, [r3, #0]
 8005974:	f003 0340 	and.w	r3, r3, #64	@ 0x40
 8005978:	2b00      	cmp	r3, #0
 800597a:	d00a      	beq.n	8005992 <HAL_RCCEx_PeriphCLKConfig+0x2d2>
 800597c:	4b72      	ldr	r3, [pc, #456]	@ (8005b48 <HAL_RCCEx_PeriphCLKConfig+0x488>)
 800597e:	f8d3 3090 	ldr.w	r3, [r3, #144]	@ 0x90
 8005982:	f023 0203 	bic.w	r2, r3, #3
 8005986:	687b      	ldr	r3, [r7, #4]
 8005988:	6c5b      	ldr	r3, [r3, #68]	@ 0x44
 800598a:	496f      	ldr	r1, [pc, #444]	@ (8005b48 <HAL_RCCEx_PeriphCLKConfig+0x488>)
 800598c:	4313      	orrs	r3, r2
 800598e:	f8c1 3090 	str.w	r3, [r1, #144]	@ 0x90
 8005992:	687b      	ldr	r3, [r7, #4]
 8005994:	681b      	ldr	r3, [r3, #0]
 8005996:	f003 0380 	and.w	r3, r3, #128	@ 0x80
 800599a:	2b00      	cmp	r3, #0
 800599c:	d00a      	beq.n	80059b4 <HAL_RCCEx_PeriphCLKConfig+0x2f4>
 800599e:	4b6a      	ldr	r3, [pc, #424]	@ (8005b48 <HAL_RCCEx_PeriphCLKConfig+0x488>)
 80059a0:	f8d3 3090 	ldr.w	r3, [r3, #144]	@ 0x90
 80059a4:	f023 020c 	bic.w	r2, r3, #12
 80059a8:	687b      	ldr	r3, [r7, #4]
 80059aa:	6c9b      	ldr	r3, [r3, #72]	@ 0x48
 80059ac:	4966      	ldr	r1, [pc, #408]	@ (8005b48 <HAL_RCCEx_PeriphCLKConfig+0x488>)
 80059ae:	4313      	orrs	r3, r2
 80059b0:	f8c1 3090 	str.w	r3, [r1, #144]	@ 0x90
 80059b4:	687b      	ldr	r3, [r7, #4]
 80059b6:	681b      	ldr	r3, [r3, #0]
 80059b8:	f403 7380 	and.w	r3, r3, #256	@ 0x100
 80059bc:	2b00      	cmp	r3, #0
 80059be:	d00a      	beq.n	80059d6 <HAL_RCCEx_PeriphCLKConfig+0x316>
 80059c0:	4b61      	ldr	r3, [pc, #388]	@ (8005b48 <HAL_RCCEx_PeriphCLKConfig+0x488>)
 80059c2:	f8d3 3090 	ldr.w	r3, [r3, #144]	@ 0x90
 80059c6:	f023 0230 	bic.w	r2, r3, #48	@ 0x30
 80059ca:	687b      	ldr	r3, [r7, #4]
 80059cc:	6cdb      	ldr	r3, [r3, #76]	@ 0x4c
 80059ce:	495e      	ldr	r1, [pc, #376]	@ (8005b48 <HAL_RCCEx_PeriphCLKConfig+0x488>)
 80059d0:	4313      	orrs	r3, r2
 80059d2:	f8c1 3090 	str.w	r3, [r1, #144]	@ 0x90
 80059d6:	687b      	ldr	r3, [r7, #4]
 80059d8:	681b      	ldr	r3, [r3, #0]
 80059da:	f403 7300 	and.w	r3, r3, #512	@ 0x200
 80059de:	2b00      	cmp	r3, #0
 80059e0:	d00a      	beq.n	80059f8 <HAL_RCCEx_PeriphCLKConfig+0x338>
 80059e2:	4b59      	ldr	r3, [pc, #356]	@ (8005b48 <HAL_RCCEx_PeriphCLKConfig+0x488>)
 80059e4:	f8d3 3090 	ldr.w	r3, [r3, #144]	@ 0x90
 80059e8:	f023 02c0 	bic.w	r2, r3, #192	@ 0xc0
 80059ec:	687b      	ldr	r3, [r7, #4]
 80059ee:	6d1b      	ldr	r3, [r3, #80]	@ 0x50
 80059f0:	4955      	ldr	r1, [pc, #340]	@ (8005b48 <HAL_RCCEx_PeriphCLKConfig+0x488>)
 80059f2:	4313      	orrs	r3, r2
 80059f4:	f8c1 3090 	str.w	r3, [r1, #144]	@ 0x90
 80059f8:	687b      	ldr	r3, [r7, #4]
 80059fa:	681b      	ldr	r3, [r3, #0]
 80059fc:	f403 6380 	and.w	r3, r3, #1024	@ 0x400
 8005a00:	2b00      	cmp	r3, #0
 8005a02:	d00a      	beq.n	8005a1a <HAL_RCCEx_PeriphCLKConfig+0x35a>
 8005a04:	4b50      	ldr	r3, [pc, #320]	@ (8005b48 <HAL_RCCEx_PeriphCLKConfig+0x488>)
 8005a06:	f8d3 3090 	ldr.w	r3, [r3, #144]	@ 0x90
 8005a0a:	f423 7240 	bic.w	r2, r3, #768	@ 0x300
 8005a0e:	687b      	ldr	r3, [r7, #4]
 8005a10:	6d5b      	ldr	r3, [r3, #84]	@ 0x54
 8005a12:	494d      	ldr	r1, [pc, #308]	@ (8005b48 <HAL_RCCEx_PeriphCLKConfig+0x488>)
 8005a14:	4313      	orrs	r3, r2
 8005a16:	f8c1 3090 	str.w	r3, [r1, #144]	@ 0x90
 8005a1a:	687b      	ldr	r3, [r7, #4]
 8005a1c:	681b      	ldr	r3, [r3, #0]
 8005a1e:	f403 6300 	and.w	r3, r3, #2048	@ 0x800
 8005a22:	2b00      	cmp	r3, #0
 8005a24:	d00a      	beq.n	8005a3c <HAL_RCCEx_PeriphCLKConfig+0x37c>
 8005a26:	4b48      	ldr	r3, [pc, #288]	@ (8005b48 <HAL_RCCEx_PeriphCLKConfig+0x488>)
 8005a28:	f8d3 3090 	ldr.w	r3, [r3, #144]	@ 0x90
 8005a2c:	f423 6240 	bic.w	r2, r3, #3072	@ 0xc00
 8005a30:	687b      	ldr	r3, [r7, #4]
 8005a32:	6d9b      	ldr	r3, [r3, #88]	@ 0x58
 8005a34:	4944      	ldr	r1, [pc, #272]	@ (8005b48 <HAL_RCCEx_PeriphCLKConfig+0x488>)
 8005a36:	4313      	orrs	r3, r2
 8005a38:	f8c1 3090 	str.w	r3, [r1, #144]	@ 0x90
 8005a3c:	687b      	ldr	r3, [r7, #4]
 8005a3e:	681b      	ldr	r3, [r3, #0]
 8005a40:	f403 5380 	and.w	r3, r3, #4096	@ 0x1000
 8005a44:	2b00      	cmp	r3, #0
 8005a46:	d00a      	beq.n	8005a5e <HAL_RCCEx_PeriphCLKConfig+0x39e>
 8005a48:	4b3f      	ldr	r3, [pc, #252]	@ (8005b48 <HAL_RCCEx_PeriphCLKConfig+0x488>)
 8005a4a:	f8d3 3090 	ldr.w	r3, [r3, #144]	@ 0x90
 8005a4e:	f423 5240 	bic.w	r2, r3, #12288	@ 0x3000
 8005a52:	687b      	ldr	r3, [r7, #4]
 8005a54:	6ddb      	ldr	r3, [r3, #92]	@ 0x5c
 8005a56:	493c      	ldr	r1, [pc, #240]	@ (8005b48 <HAL_RCCEx_PeriphCLKConfig+0x488>)
 8005a58:	4313      	orrs	r3, r2
 8005a5a:	f8c1 3090 	str.w	r3, [r1, #144]	@ 0x90
 8005a5e:	687b      	ldr	r3, [r7, #4]
 8005a60:	681b      	ldr	r3, [r3, #0]
 8005a62:	f403 5300 	and.w	r3, r3, #8192	@ 0x2000
 8005a66:	2b00      	cmp	r3, #0
 8005a68:	d00a      	beq.n	8005a80 <HAL_RCCEx_PeriphCLKConfig+0x3c0>
 8005a6a:	4b37      	ldr	r3, [pc, #220]	@ (8005b48 <HAL_RCCEx_PeriphCLKConfig+0x488>)
 8005a6c:	f8d3 3090 	ldr.w	r3, [r3, #144]	@ 0x90
 8005a70:	f423 4240 	bic.w	r2, r3, #49152	@ 0xc000
 8005a74:	687b      	ldr	r3, [r7, #4]
 8005a76:	6e1b      	ldr	r3, [r3, #96]	@ 0x60
 8005a78:	4933      	ldr	r1, [pc, #204]	@ (8005b48 <HAL_RCCEx_PeriphCLKConfig+0x488>)
 8005a7a:	4313      	orrs	r3, r2
 8005a7c:	f8c1 3090 	str.w	r3, [r1, #144]	@ 0x90
 8005a80:	687b      	ldr	r3, [r7, #4]
 8005a82:	681b      	ldr	r3, [r3, #0]
 8005a84:	f403 0380 	and.w	r3, r3, #4194304	@ 0x400000
 8005a88:	2b00      	cmp	r3, #0
 8005a8a:	d00a      	beq.n	8005aa2 <HAL_RCCEx_PeriphCLKConfig+0x3e2>
 8005a8c:	4b2e      	ldr	r3, [pc, #184]	@ (8005b48 <HAL_RCCEx_PeriphCLKConfig+0x488>)
 8005a8e:	f8d3 3090 	ldr.w	r3, [r3, #144]	@ 0x90
 8005a92:	f023 6280 	bic.w	r2, r3, #67108864	@ 0x4000000
 8005a96:	687b      	ldr	r3, [r7, #4]
 8005a98:	6f9b      	ldr	r3, [r3, #120]	@ 0x78
 8005a9a:	492b      	ldr	r1, [pc, #172]	@ (8005b48 <HAL_RCCEx_PeriphCLKConfig+0x488>)
 8005a9c:	4313      	orrs	r3, r2
 8005a9e:	f8c1 3090 	str.w	r3, [r1, #144]	@ 0x90
 8005aa2:	687b      	ldr	r3, [r7, #4]
 8005aa4:	681b      	ldr	r3, [r3, #0]
 8005aa6:	f403 1300 	and.w	r3, r3, #2097152	@ 0x200000
 8005aaa:	2b00      	cmp	r3, #0
 8005aac:	d011      	beq.n	8005ad2 <HAL_RCCEx_PeriphCLKConfig+0x412>
 8005aae:	4b26      	ldr	r3, [pc, #152]	@ (8005b48 <HAL_RCCEx_PeriphCLKConfig+0x488>)
 8005ab0:	f8d3 3090 	ldr.w	r3, [r3, #144]	@ 0x90
 8005ab4:	f023 6200 	bic.w	r2, r3, #134217728	@ 0x8000000
 8005ab8:	687b      	ldr	r3, [r7, #4]
 8005aba:	6fdb      	ldr	r3, [r3, #124]	@ 0x7c
 8005abc:	4922      	ldr	r1, [pc, #136]	@ (8005b48 <HAL_RCCEx_PeriphCLKConfig+0x488>)
 8005abe:	4313      	orrs	r3, r2
 8005ac0:	f8c1 3090 	str.w	r3, [r1, #144]	@ 0x90
 8005ac4:	687b      	ldr	r3, [r7, #4]
 8005ac6:	6fdb      	ldr	r3, [r3, #124]	@ 0x7c
 8005ac8:	f1b3 6f00 	cmp.w	r3, #134217728	@ 0x8000000
 8005acc:	d101      	bne.n	8005ad2 <HAL_RCCEx_PeriphCLKConfig+0x412>
 8005ace:	2301      	movs	r3, #1
 8005ad0:	61bb      	str	r3, [r7, #24]
 8005ad2:	687b      	ldr	r3, [r7, #4]
 8005ad4:	681b      	ldr	r3, [r3, #0]
 8005ad6:	f003 0308 	and.w	r3, r3, #8
 8005ada:	2b00      	cmp	r3, #0
 8005adc:	d001      	beq.n	8005ae2 <HAL_RCCEx_PeriphCLKConfig+0x422>
 8005ade:	2301      	movs	r3, #1
 8005ae0:	61bb      	str	r3, [r7, #24]
 8005ae2:	687b      	ldr	r3, [r7, #4]
 8005ae4:	681b      	ldr	r3, [r3, #0]
 8005ae6:	f403 2380 	and.w	r3, r3, #262144	@ 0x40000
 8005aea:	2b00      	cmp	r3, #0
 8005aec:	d00a      	beq.n	8005b04 <HAL_RCCEx_PeriphCLKConfig+0x444>
 8005aee:	4b16      	ldr	r3, [pc, #88]	@ (8005b48 <HAL_RCCEx_PeriphCLKConfig+0x488>)
 8005af0:	f8d3 3090 	ldr.w	r3, [r3, #144]	@ 0x90
 8005af4:	f023 7240 	bic.w	r2, r3, #50331648	@ 0x3000000
 8005af8:	687b      	ldr	r3, [r7, #4]
 8005afa:	6f5b      	ldr	r3, [r3, #116]	@ 0x74
 8005afc:	4912      	ldr	r1, [pc, #72]	@ (8005b48 <HAL_RCCEx_PeriphCLKConfig+0x488>)
 8005afe:	4313      	orrs	r3, r2
 8005b00:	f8c1 3090 	str.w	r3, [r1, #144]	@ 0x90
 8005b04:	687b      	ldr	r3, [r7, #4]
 8005b06:	681b      	ldr	r3, [r3, #0]
 8005b08:	f403 0300 	and.w	r3, r3, #8388608	@ 0x800000
 8005b0c:	2b00      	cmp	r3, #0
 8005b0e:	d00b      	beq.n	8005b28 <HAL_RCCEx_PeriphCLKConfig+0x468>
 8005b10:	4b0d      	ldr	r3, [pc, #52]	@ (8005b48 <HAL_RCCEx_PeriphCLKConfig+0x488>)
 8005b12:	f8d3 3090 	ldr.w	r3, [r3, #144]	@ 0x90
 8005b16:	f023 5280 	bic.w	r2, r3, #268435456	@ 0x10000000
 8005b1a:	687b      	ldr	r3, [r7, #4]
 8005b1c:	f8d3 3080 	ldr.w	r3, [r3, #128]	@ 0x80
 8005b20:	4909      	ldr	r1, [pc, #36]	@ (8005b48 <HAL_RCCEx_PeriphCLKConfig+0x488>)
 8005b22:	4313      	orrs	r3, r2
 8005b24:	f8c1 3090 	str.w	r3, [r1, #144]	@ 0x90
 8005b28:	69fb      	ldr	r3, [r7, #28]
 8005b2a:	2b01      	cmp	r3, #1
 8005b2c:	d006      	beq.n	8005b3c <HAL_RCCEx_PeriphCLKConfig+0x47c>
 8005b2e:	687b      	ldr	r3, [r7, #4]
 8005b30:	681b      	ldr	r3, [r3, #0]
 8005b32:	f003 7300 	and.w	r3, r3, #33554432	@ 0x2000000
 8005b36:	2b00      	cmp	r3, #0
 8005b38:	f000 80d9 	beq.w	8005cee <HAL_RCCEx_PeriphCLKConfig+0x62e>
 8005b3c:	4b02      	ldr	r3, [pc, #8]	@ (8005b48 <HAL_RCCEx_PeriphCLKConfig+0x488>)
 8005b3e:	681b      	ldr	r3, [r3, #0]
 8005b40:	4a01      	ldr	r2, [pc, #4]	@ (8005b48 <HAL_RCCEx_PeriphCLKConfig+0x488>)
 8005b42:	f023 6380 	bic.w	r3, r3, #67108864	@ 0x4000000
 8005b46:	e001      	b.n	8005b4c <HAL_RCCEx_PeriphCLKConfig+0x48c>
 8005b48:	40023800 	.word	0x40023800
 8005b4c:	6013      	str	r3, [r2, #0]
 8005b4e:	f7fd faf1 	bl	8003134 <HAL_GetTick>
 8005b52:	6178      	str	r0, [r7, #20]
 8005b54:	e008      	b.n	8005b68 <HAL_RCCEx_PeriphCLKConfig+0x4a8>
 8005b56:	f7fd faed 	bl	8003134 <HAL_GetTick>
 8005b5a:	4602      	mov	r2, r0
 8005b5c:	697b      	ldr	r3, [r7, #20]
 8005b5e:	1ad3      	subs	r3, r2, r3
 8005b60:	2b64      	cmp	r3, #100	@ 0x64
 8005b62:	d901      	bls.n	8005b68 <HAL_RCCEx_PeriphCLKConfig+0x4a8>
 8005b64:	2303      	movs	r3, #3
 8005b66:	e194      	b.n	8005e92 <HAL_RCCEx_PeriphCLKConfig+0x7d2>
 8005b68:	4b6c      	ldr	r3, [pc, #432]	@ (8005d1c <HAL_RCCEx_PeriphCLKConfig+0x65c>)
 8005b6a:	681b      	ldr	r3, [r3, #0]
 8005b6c:	f003 6300 	and.w	r3, r3, #134217728	@ 0x8000000
 8005b70:	2b00      	cmp	r3, #0
 8005b72:	d1f0      	bne.n	8005b56 <HAL_RCCEx_PeriphCLKConfig+0x496>
 8005b74:	687b      	ldr	r3, [r7, #4]
 8005b76:	681b      	ldr	r3, [r3, #0]
 8005b78:	f003 0301 	and.w	r3, r3, #1
 8005b7c:	2b00      	cmp	r3, #0
 8005b7e:	d021      	beq.n	8005bc4 <HAL_RCCEx_PeriphCLKConfig+0x504>
 8005b80:	687b      	ldr	r3, [r7, #4]
 8005b82:	6b5b      	ldr	r3, [r3, #52]	@ 0x34
 8005b84:	2b00      	cmp	r3, #0
 8005b86:	d11d      	bne.n	8005bc4 <HAL_RCCEx_PeriphCLKConfig+0x504>
 8005b88:	4b64      	ldr	r3, [pc, #400]	@ (8005d1c <HAL_RCCEx_PeriphCLKConfig+0x65c>)
 8005b8a:	f8d3 3084 	ldr.w	r3, [r3, #132]	@ 0x84
 8005b8e:	0c1b      	lsrs	r3, r3, #16
 8005b90:	f003 0303 	and.w	r3, r3, #3
 8005b94:	613b      	str	r3, [r7, #16]
 8005b96:	4b61      	ldr	r3, [pc, #388]	@ (8005d1c <HAL_RCCEx_PeriphCLKConfig+0x65c>)
 8005b98:	f8d3 3084 	ldr.w	r3, [r3, #132]	@ 0x84
 8005b9c:	0e1b      	lsrs	r3, r3, #24
 8005b9e:	f003 030f 	and.w	r3, r3, #15
 8005ba2:	60fb      	str	r3, [r7, #12]
 8005ba4:	687b      	ldr	r3, [r7, #4]
 8005ba6:	685b      	ldr	r3, [r3, #4]
 8005ba8:	019a      	lsls	r2, r3, #6
 8005baa:	693b      	ldr	r3, [r7, #16]
 8005bac:	041b      	lsls	r3, r3, #16
 8005bae:	431a      	orrs	r2, r3
 8005bb0:	68fb      	ldr	r3, [r7, #12]
 8005bb2:	061b      	lsls	r3, r3, #24
 8005bb4:	431a      	orrs	r2, r3
 8005bb6:	687b      	ldr	r3, [r7, #4]
 8005bb8:	689b      	ldr	r3, [r3, #8]
 8005bba:	071b      	lsls	r3, r3, #28
 8005bbc:	4957      	ldr	r1, [pc, #348]	@ (8005d1c <HAL_RCCEx_PeriphCLKConfig+0x65c>)
 8005bbe:	4313      	orrs	r3, r2
 8005bc0:	f8c1 3084 	str.w	r3, [r1, #132]	@ 0x84
 8005bc4:	687b      	ldr	r3, [r7, #4]
 8005bc6:	681b      	ldr	r3, [r3, #0]
 8005bc8:	f403 2300 	and.w	r3, r3, #524288	@ 0x80000
 8005bcc:	2b00      	cmp	r3, #0
 8005bce:	d004      	beq.n	8005bda <HAL_RCCEx_PeriphCLKConfig+0x51a>
 8005bd0:	687b      	ldr	r3, [r7, #4]
 8005bd2:	6bdb      	ldr	r3, [r3, #60]	@ 0x3c
 8005bd4:	f5b3 1f80 	cmp.w	r3, #1048576	@ 0x100000
 8005bd8:	d00a      	beq.n	8005bf0 <HAL_RCCEx_PeriphCLKConfig+0x530>
 8005bda:	687b      	ldr	r3, [r7, #4]
 8005bdc:	681b      	ldr	r3, [r3, #0]
 8005bde:	f403 1380 	and.w	r3, r3, #1048576	@ 0x100000
 8005be2:	2b00      	cmp	r3, #0
 8005be4:	d02e      	beq.n	8005c44 <HAL_RCCEx_PeriphCLKConfig+0x584>
 8005be6:	687b      	ldr	r3, [r7, #4]
 8005be8:	6c1b      	ldr	r3, [r3, #64]	@ 0x40
 8005bea:	f5b3 0f80 	cmp.w	r3, #4194304	@ 0x400000
 8005bee:	d129      	bne.n	8005c44 <HAL_RCCEx_PeriphCLKConfig+0x584>
 8005bf0:	4b4a      	ldr	r3, [pc, #296]	@ (8005d1c <HAL_RCCEx_PeriphCLKConfig+0x65c>)
 8005bf2:	f8d3 3084 	ldr.w	r3, [r3, #132]	@ 0x84
 8005bf6:	0c1b      	lsrs	r3, r3, #16
 8005bf8:	f003 0303 	and.w	r3, r3, #3
 8005bfc:	613b      	str	r3, [r7, #16]
 8005bfe:	4b47      	ldr	r3, [pc, #284]	@ (8005d1c <HAL_RCCEx_PeriphCLKConfig+0x65c>)
 8005c00:	f8d3 3084 	ldr.w	r3, [r3, #132]	@ 0x84
 8005c04:	0f1b      	lsrs	r3, r3, #28
 8005c06:	f003 0307 	and.w	r3, r3, #7
 8005c0a:	60fb      	str	r3, [r7, #12]
 8005c0c:	687b      	ldr	r3, [r7, #4]
 8005c0e:	685b      	ldr	r3, [r3, #4]
 8005c10:	019a      	lsls	r2, r3, #6
 8005c12:	693b      	ldr	r3, [r7, #16]
 8005c14:	041b      	lsls	r3, r3, #16
 8005c16:	431a      	orrs	r2, r3
 8005c18:	687b      	ldr	r3, [r7, #4]
 8005c1a:	68db      	ldr	r3, [r3, #12]
 8005c1c:	061b      	lsls	r3, r3, #24
 8005c1e:	431a      	orrs	r2, r3
 8005c20:	68fb      	ldr	r3, [r7, #12]
 8005c22:	071b      	lsls	r3, r3, #28
 8005c24:	493d      	ldr	r1, [pc, #244]	@ (8005d1c <HAL_RCCEx_PeriphCLKConfig+0x65c>)
 8005c26:	4313      	orrs	r3, r2
 8005c28:	f8c1 3084 	str.w	r3, [r1, #132]	@ 0x84
 8005c2c:	4b3b      	ldr	r3, [pc, #236]	@ (8005d1c <HAL_RCCEx_PeriphCLKConfig+0x65c>)
 8005c2e:	f8d3 308c 	ldr.w	r3, [r3, #140]	@ 0x8c
 8005c32:	f023 021f 	bic.w	r2, r3, #31
 8005c36:	687b      	ldr	r3, [r7, #4]
 8005c38:	6a5b      	ldr	r3, [r3, #36]	@ 0x24
 8005c3a:	3b01      	subs	r3, #1
 8005c3c:	4937      	ldr	r1, [pc, #220]	@ (8005d1c <HAL_RCCEx_PeriphCLKConfig+0x65c>)
 8005c3e:	4313      	orrs	r3, r2
 8005c40:	f8c1 308c 	str.w	r3, [r1, #140]	@ 0x8c
 8005c44:	687b      	ldr	r3, [r7, #4]
 8005c46:	681b      	ldr	r3, [r3, #0]
 8005c48:	f003 7380 	and.w	r3, r3, #16777216	@ 0x1000000
 8005c4c:	2b00      	cmp	r3, #0
 8005c4e:	d01d      	beq.n	8005c8c <HAL_RCCEx_PeriphCLKConfig+0x5cc>
 8005c50:	4b32      	ldr	r3, [pc, #200]	@ (8005d1c <HAL_RCCEx_PeriphCLKConfig+0x65c>)
 8005c52:	f8d3 3084 	ldr.w	r3, [r3, #132]	@ 0x84
 8005c56:	0e1b      	lsrs	r3, r3, #24
 8005c58:	f003 030f 	and.w	r3, r3, #15
 8005c5c:	613b      	str	r3, [r7, #16]
 8005c5e:	4b2f      	ldr	r3, [pc, #188]	@ (8005d1c <HAL_RCCEx_PeriphCLKConfig+0x65c>)
 8005c60:	f8d3 3084 	ldr.w	r3, [r3, #132]	@ 0x84
 8005c64:	0f1b      	lsrs	r3, r3, #28
 8005c66:	f003 0307 	and.w	r3, r3, #7
 8005c6a:	60fb      	str	r3, [r7, #12]
 8005c6c:	687b      	ldr	r3, [r7, #4]
 8005c6e:	685b      	ldr	r3, [r3, #4]
 8005c70:	019a      	lsls	r2, r3, #6
 8005c72:	687b      	ldr	r3, [r7, #4]
 8005c74:	691b      	ldr	r3, [r3, #16]
 8005c76:	041b      	lsls	r3, r3, #16
 8005c78:	431a      	orrs	r2, r3
 8005c7a:	693b      	ldr	r3, [r7, #16]
 8005c7c:	061b      	lsls	r3, r3, #24
 8005c7e:	431a      	orrs	r2, r3
 8005c80:	68fb      	ldr	r3, [r7, #12]
 8005c82:	071b      	lsls	r3, r3, #28
 8005c84:	4925      	ldr	r1, [pc, #148]	@ (8005d1c <HAL_RCCEx_PeriphCLKConfig+0x65c>)
 8005c86:	4313      	orrs	r3, r2
 8005c88:	f8c1 3084 	str.w	r3, [r1, #132]	@ 0x84
 8005c8c:	687b      	ldr	r3, [r7, #4]
 8005c8e:	681b      	ldr	r3, [r3, #0]
 8005c90:	f003 7300 	and.w	r3, r3, #33554432	@ 0x2000000
 8005c94:	2b00      	cmp	r3, #0
 8005c96:	d011      	beq.n	8005cbc <HAL_RCCEx_PeriphCLKConfig+0x5fc>
 8005c98:	687b      	ldr	r3, [r7, #4]
 8005c9a:	685b      	ldr	r3, [r3, #4]
 8005c9c:	019a      	lsls	r2, r3, #6
 8005c9e:	687b      	ldr	r3, [r7, #4]
 8005ca0:	691b      	ldr	r3, [r3, #16]
 8005ca2:	041b      	lsls	r3, r3, #16
 8005ca4:	431a      	orrs	r2, r3
 8005ca6:	687b      	ldr	r3, [r7, #4]
 8005ca8:	68db      	ldr	r3, [r3, #12]
 8005caa:	061b      	lsls	r3, r3, #24
 8005cac:	431a      	orrs	r2, r3
 8005cae:	687b      	ldr	r3, [r7, #4]
 8005cb0:	689b      	ldr	r3, [r3, #8]
 8005cb2:	071b      	lsls	r3, r3, #28
 8005cb4:	4919      	ldr	r1, [pc, #100]	@ (8005d1c <HAL_RCCEx_PeriphCLKConfig+0x65c>)
 8005cb6:	4313      	orrs	r3, r2
 8005cb8:	f8c1 3084 	str.w	r3, [r1, #132]	@ 0x84
 8005cbc:	4b17      	ldr	r3, [pc, #92]	@ (8005d1c <HAL_RCCEx_PeriphCLKConfig+0x65c>)
 8005cbe:	681b      	ldr	r3, [r3, #0]
 8005cc0:	4a16      	ldr	r2, [pc, #88]	@ (8005d1c <HAL_RCCEx_PeriphCLKConfig+0x65c>)
 8005cc2:	f043 6380 	orr.w	r3, r3, #67108864	@ 0x4000000
 8005cc6:	6013      	str	r3, [r2, #0]
 8005cc8:	f7fd fa34 	bl	8003134 <HAL_GetTick>
 8005ccc:	6178      	str	r0, [r7, #20]
 8005cce:	e008      	b.n	8005ce2 <HAL_RCCEx_PeriphCLKConfig+0x622>
 8005cd0:	f7fd fa30 	bl	8003134 <HAL_GetTick>
 8005cd4:	4602      	mov	r2, r0
 8005cd6:	697b      	ldr	r3, [r7, #20]
 8005cd8:	1ad3      	subs	r3, r2, r3
 8005cda:	2b64      	cmp	r3, #100	@ 0x64
 8005cdc:	d901      	bls.n	8005ce2 <HAL_RCCEx_PeriphCLKConfig+0x622>
 8005cde:	2303      	movs	r3, #3
 8005ce0:	e0d7      	b.n	8005e92 <HAL_RCCEx_PeriphCLKConfig+0x7d2>
 8005ce2:	4b0e      	ldr	r3, [pc, #56]	@ (8005d1c <HAL_RCCEx_PeriphCLKConfig+0x65c>)
 8005ce4:	681b      	ldr	r3, [r3, #0]
 8005ce6:	f003 6300 	and.w	r3, r3, #134217728	@ 0x8000000
 8005cea:	2b00      	cmp	r3, #0
 8005cec:	d0f0      	beq.n	8005cd0 <HAL_RCCEx_PeriphCLKConfig+0x610>
 8005cee:	69bb      	ldr	r3, [r7, #24]
 8005cf0:	2b01      	cmp	r3, #1
 8005cf2:	f040 80cd 	bne.w	8005e90 <HAL_RCCEx_PeriphCLKConfig+0x7d0>
 8005cf6:	4b09      	ldr	r3, [pc, #36]	@ (8005d1c <HAL_RCCEx_PeriphCLKConfig+0x65c>)
 8005cf8:	681b      	ldr	r3, [r3, #0]
 8005cfa:	4a08      	ldr	r2, [pc, #32]	@ (8005d1c <HAL_RCCEx_PeriphCLKConfig+0x65c>)
 8005cfc:	f023 5380 	bic.w	r3, r3, #268435456	@ 0x10000000
 8005d00:	6013      	str	r3, [r2, #0]
 8005d02:	f7fd fa17 	bl	8003134 <HAL_GetTick>
 8005d06:	6178      	str	r0, [r7, #20]
 8005d08:	e00a      	b.n	8005d20 <HAL_RCCEx_PeriphCLKConfig+0x660>
 8005d0a:	f7fd fa13 	bl	8003134 <HAL_GetTick>
 8005d0e:	4602      	mov	r2, r0
 8005d10:	697b      	ldr	r3, [r7, #20]
 8005d12:	1ad3      	subs	r3, r2, r3
 8005d14:	2b64      	cmp	r3, #100	@ 0x64
 8005d16:	d903      	bls.n	8005d20 <HAL_RCCEx_PeriphCLKConfig+0x660>
 8005d18:	2303      	movs	r3, #3
 8005d1a:	e0ba      	b.n	8005e92 <HAL_RCCEx_PeriphCLKConfig+0x7d2>
 8005d1c:	40023800 	.word	0x40023800
 8005d20:	4b5e      	ldr	r3, [pc, #376]	@ (8005e9c <HAL_RCCEx_PeriphCLKConfig+0x7dc>)
 8005d22:	681b      	ldr	r3, [r3, #0]
 8005d24:	f003 5300 	and.w	r3, r3, #536870912	@ 0x20000000
 8005d28:	f1b3 5f00 	cmp.w	r3, #536870912	@ 0x20000000
 8005d2c:	d0ed      	beq.n	8005d0a <HAL_RCCEx_PeriphCLKConfig+0x64a>
 8005d2e:	687b      	ldr	r3, [r7, #4]
 8005d30:	681b      	ldr	r3, [r3, #0]
 8005d32:	f403 2300 	and.w	r3, r3, #524288	@ 0x80000
 8005d36:	2b00      	cmp	r3, #0
 8005d38:	d003      	beq.n	8005d42 <HAL_RCCEx_PeriphCLKConfig+0x682>
 8005d3a:	687b      	ldr	r3, [r7, #4]
 8005d3c:	6bdb      	ldr	r3, [r3, #60]	@ 0x3c
 8005d3e:	2b00      	cmp	r3, #0
 8005d40:	d009      	beq.n	8005d56 <HAL_RCCEx_PeriphCLKConfig+0x696>
 8005d42:	687b      	ldr	r3, [r7, #4]
 8005d44:	681b      	ldr	r3, [r3, #0]
 8005d46:	f403 1380 	and.w	r3, r3, #1048576	@ 0x100000
 8005d4a:	2b00      	cmp	r3, #0
 8005d4c:	d02e      	beq.n	8005dac <HAL_RCCEx_PeriphCLKConfig+0x6ec>
 8005d4e:	687b      	ldr	r3, [r7, #4]
 8005d50:	6c1b      	ldr	r3, [r3, #64]	@ 0x40
 8005d52:	2b00      	cmp	r3, #0
 8005d54:	d12a      	bne.n	8005dac <HAL_RCCEx_PeriphCLKConfig+0x6ec>
 8005d56:	4b51      	ldr	r3, [pc, #324]	@ (8005e9c <HAL_RCCEx_PeriphCLKConfig+0x7dc>)
 8005d58:	f8d3 3088 	ldr.w	r3, [r3, #136]	@ 0x88
 8005d5c:	0c1b      	lsrs	r3, r3, #16
 8005d5e:	f003 0303 	and.w	r3, r3, #3
 8005d62:	613b      	str	r3, [r7, #16]
 8005d64:	4b4d      	ldr	r3, [pc, #308]	@ (8005e9c <HAL_RCCEx_PeriphCLKConfig+0x7dc>)
 8005d66:	f8d3 3088 	ldr.w	r3, [r3, #136]	@ 0x88
 8005d6a:	0f1b      	lsrs	r3, r3, #28
 8005d6c:	f003 0307 	and.w	r3, r3, #7
 8005d70:	60fb      	str	r3, [r7, #12]
 8005d72:	687b      	ldr	r3, [r7, #4]
 8005d74:	695b      	ldr	r3, [r3, #20]
 8005d76:	019a      	lsls	r2, r3, #6
 8005d78:	693b      	ldr	r3, [r7, #16]
 8005d7a:	041b      	lsls	r3, r3, #16
 8005d7c:	431a      	orrs	r2, r3
 8005d7e:	687b      	ldr	r3, [r7, #4]
 8005d80:	699b      	ldr	r3, [r3, #24]
 8005d82:	061b      	lsls	r3, r3, #24
 8005d84:	431a      	orrs	r2, r3
 8005d86:	68fb      	ldr	r3, [r7, #12]
 8005d88:	071b      	lsls	r3, r3, #28
 8005d8a:	4944      	ldr	r1, [pc, #272]	@ (8005e9c <HAL_RCCEx_PeriphCLKConfig+0x7dc>)
 8005d8c:	4313      	orrs	r3, r2
 8005d8e:	f8c1 3088 	str.w	r3, [r1, #136]	@ 0x88
 8005d92:	4b42      	ldr	r3, [pc, #264]	@ (8005e9c <HAL_RCCEx_PeriphCLKConfig+0x7dc>)
 8005d94:	f8d3 308c 	ldr.w	r3, [r3, #140]	@ 0x8c
 8005d98:	f423 52f8 	bic.w	r2, r3, #7936	@ 0x1f00
 8005d9c:	687b      	ldr	r3, [r7, #4]
 8005d9e:	6a9b      	ldr	r3, [r3, #40]	@ 0x28
 8005da0:	3b01      	subs	r3, #1
 8005da2:	021b      	lsls	r3, r3, #8
 8005da4:	493d      	ldr	r1, [pc, #244]	@ (8005e9c <HAL_RCCEx_PeriphCLKConfig+0x7dc>)
 8005da6:	4313      	orrs	r3, r2
 8005da8:	f8c1 308c 	str.w	r3, [r1, #140]	@ 0x8c
 8005dac:	687b      	ldr	r3, [r7, #4]
 8005dae:	681b      	ldr	r3, [r3, #0]
 8005db0:	f403 1300 	and.w	r3, r3, #2097152	@ 0x200000
 8005db4:	2b00      	cmp	r3, #0
 8005db6:	d022      	beq.n	8005dfe <HAL_RCCEx_PeriphCLKConfig+0x73e>
 8005db8:	687b      	ldr	r3, [r7, #4]
 8005dba:	6fdb      	ldr	r3, [r3, #124]	@ 0x7c
 8005dbc:	f1b3 6f00 	cmp.w	r3, #134217728	@ 0x8000000
 8005dc0:	d11d      	bne.n	8005dfe <HAL_RCCEx_PeriphCLKConfig+0x73e>
 8005dc2:	4b36      	ldr	r3, [pc, #216]	@ (8005e9c <HAL_RCCEx_PeriphCLKConfig+0x7dc>)
 8005dc4:	f8d3 3088 	ldr.w	r3, [r3, #136]	@ 0x88
 8005dc8:	0e1b      	lsrs	r3, r3, #24
 8005dca:	f003 030f 	and.w	r3, r3, #15
 8005dce:	613b      	str	r3, [r7, #16]
 8005dd0:	4b32      	ldr	r3, [pc, #200]	@ (8005e9c <HAL_RCCEx_PeriphCLKConfig+0x7dc>)
 8005dd2:	f8d3 3088 	ldr.w	r3, [r3, #136]	@ 0x88
 8005dd6:	0f1b      	lsrs	r3, r3, #28
 8005dd8:	f003 0307 	and.w	r3, r3, #7
 8005ddc:	60fb      	str	r3, [r7, #12]
 8005dde:	687b      	ldr	r3, [r7, #4]
 8005de0:	695b      	ldr	r3, [r3, #20]
 8005de2:	019a      	lsls	r2, r3, #6
 8005de4:	687b      	ldr	r3, [r7, #4]
 8005de6:	6a1b      	ldr	r3, [r3, #32]
 8005de8:	041b      	lsls	r3, r3, #16
 8005dea:	431a      	orrs	r2, r3
 8005dec:	693b      	ldr	r3, [r7, #16]
 8005dee:	061b      	lsls	r3, r3, #24
 8005df0:	431a      	orrs	r2, r3
 8005df2:	68fb      	ldr	r3, [r7, #12]
 8005df4:	071b      	lsls	r3, r3, #28
 8005df6:	4929      	ldr	r1, [pc, #164]	@ (8005e9c <HAL_RCCEx_PeriphCLKConfig+0x7dc>)
 8005df8:	4313      	orrs	r3, r2
 8005dfa:	f8c1 3088 	str.w	r3, [r1, #136]	@ 0x88
 8005dfe:	687b      	ldr	r3, [r7, #4]
 8005e00:	681b      	ldr	r3, [r3, #0]
 8005e02:	f003 0308 	and.w	r3, r3, #8
 8005e06:	2b00      	cmp	r3, #0
 8005e08:	d028      	beq.n	8005e5c <HAL_RCCEx_PeriphCLKConfig+0x79c>
 8005e0a:	4b24      	ldr	r3, [pc, #144]	@ (8005e9c <HAL_RCCEx_PeriphCLKConfig+0x7dc>)
 8005e0c:	f8d3 3088 	ldr.w	r3, [r3, #136]	@ 0x88
 8005e10:	0e1b      	lsrs	r3, r3, #24
 8005e12:	f003 030f 	and.w	r3, r3, #15
 8005e16:	613b      	str	r3, [r7, #16]
 8005e18:	4b20      	ldr	r3, [pc, #128]	@ (8005e9c <HAL_RCCEx_PeriphCLKConfig+0x7dc>)
 8005e1a:	f8d3 3088 	ldr.w	r3, [r3, #136]	@ 0x88
 8005e1e:	0c1b      	lsrs	r3, r3, #16
 8005e20:	f003 0303 	and.w	r3, r3, #3
 8005e24:	60fb      	str	r3, [r7, #12]
 8005e26:	687b      	ldr	r3, [r7, #4]
 8005e28:	695b      	ldr	r3, [r3, #20]
 8005e2a:	019a      	lsls	r2, r3, #6
 8005e2c:	68fb      	ldr	r3, [r7, #12]
 8005e2e:	041b      	lsls	r3, r3, #16
 8005e30:	431a      	orrs	r2, r3
 8005e32:	693b      	ldr	r3, [r7, #16]
 8005e34:	061b      	lsls	r3, r3, #24
 8005e36:	431a      	orrs	r2, r3
 8005e38:	687b      	ldr	r3, [r7, #4]
 8005e3a:	69db      	ldr	r3, [r3, #28]
 8005e3c:	071b      	lsls	r3, r3, #28
 8005e3e:	4917      	ldr	r1, [pc, #92]	@ (8005e9c <HAL_RCCEx_PeriphCLKConfig+0x7dc>)
 8005e40:	4313      	orrs	r3, r2
 8005e42:	f8c1 3088 	str.w	r3, [r1, #136]	@ 0x88
 8005e46:	4b15      	ldr	r3, [pc, #84]	@ (8005e9c <HAL_RCCEx_PeriphCLKConfig+0x7dc>)
 8005e48:	f8d3 308c 	ldr.w	r3, [r3, #140]	@ 0x8c
 8005e4c:	f423 3240 	bic.w	r2, r3, #196608	@ 0x30000
 8005e50:	687b      	ldr	r3, [r7, #4]
 8005e52:	6adb      	ldr	r3, [r3, #44]	@ 0x2c
 8005e54:	4911      	ldr	r1, [pc, #68]	@ (8005e9c <HAL_RCCEx_PeriphCLKConfig+0x7dc>)
 8005e56:	4313      	orrs	r3, r2
 8005e58:	f8c1 308c 	str.w	r3, [r1, #140]	@ 0x8c
 8005e5c:	4b0f      	ldr	r3, [pc, #60]	@ (8005e9c <HAL_RCCEx_PeriphCLKConfig+0x7dc>)
 8005e5e:	681b      	ldr	r3, [r3, #0]
 8005e60:	4a0e      	ldr	r2, [pc, #56]	@ (8005e9c <HAL_RCCEx_PeriphCLKConfig+0x7dc>)
 8005e62:	f043 5380 	orr.w	r3, r3, #268435456	@ 0x10000000
 8005e66:	6013      	str	r3, [r2, #0]
 8005e68:	f7fd f964 	bl	8003134 <HAL_GetTick>
 8005e6c:	6178      	str	r0, [r7, #20]
 8005e6e:	e008      	b.n	8005e82 <HAL_RCCEx_PeriphCLKConfig+0x7c2>
 8005e70:	f7fd f960 	bl	8003134 <HAL_GetTick>
 8005e74:	4602      	mov	r2, r0
 8005e76:	697b      	ldr	r3, [r7, #20]
 8005e78:	1ad3      	subs	r3, r2, r3
 8005e7a:	2b64      	cmp	r3, #100	@ 0x64
 8005e7c:	d901      	bls.n	8005e82 <HAL_RCCEx_PeriphCLKConfig+0x7c2>
 8005e7e:	2303      	movs	r3, #3
 8005e80:	e007      	b.n	8005e92 <HAL_RCCEx_PeriphCLKConfig+0x7d2>
 8005e82:	4b06      	ldr	r3, [pc, #24]	@ (8005e9c <HAL_RCCEx_PeriphCLKConfig+0x7dc>)
 8005e84:	681b      	ldr	r3, [r3, #0]
 8005e86:	f003 5300 	and.w	r3, r3, #536870912	@ 0x20000000
 8005e8a:	f1b3 5f00 	cmp.w	r3, #536870912	@ 0x20000000
 8005e8e:	d1ef      	bne.n	8005e70 <HAL_RCCEx_PeriphCLKConfig+0x7b0>
 8005e90:	2300      	movs	r3, #0
 8005e92:	4618      	mov	r0, r3
 8005e94:	3720      	adds	r7, #32
 8005e96:	46bd      	mov	sp, r7
 8005e98:	bd80      	pop	{r7, pc}
 8005e9a:	bf00      	nop
 8005e9c:	40023800 	.word	0x40023800

08005ea0 <HAL_TIM_Base_Init>:
 8005ea0:	b580      	push	{r7, lr}
 8005ea2:	b082      	sub	sp, #8
 8005ea4:	af00      	add	r7, sp, #0
 8005ea6:	6078      	str	r0, [r7, #4]
 8005ea8:	687b      	ldr	r3, [r7, #4]
 8005eaa:	2b00      	cmp	r3, #0
 8005eac:	d101      	bne.n	8005eb2 <HAL_TIM_Base_Init+0x12>
 8005eae:	2301      	movs	r3, #1
 8005eb0:	e049      	b.n	8005f46 <HAL_TIM_Base_Init+0xa6>
 8005eb2:	687b      	ldr	r3, [r7, #4]
 8005eb4:	f893 303d 	ldrb.w	r3, [r3, #61]	@ 0x3d
 8005eb8:	b2db      	uxtb	r3, r3
 8005eba:	2b00      	cmp	r3, #0
 8005ebc:	d106      	bne.n	8005ecc <HAL_TIM_Base_Init+0x2c>
 8005ebe:	687b      	ldr	r3, [r7, #4]
 8005ec0:	2200      	movs	r2, #0
 8005ec2:	f883 203c 	strb.w	r2, [r3, #60]	@ 0x3c
 8005ec6:	6878      	ldr	r0, [r7, #4]
 8005ec8:	f7fc fb1e 	bl	8002508 <HAL_TIM_Base_MspInit>
 8005ecc:	687b      	ldr	r3, [r7, #4]
 8005ece:	2202      	movs	r2, #2
 8005ed0:	f883 203d 	strb.w	r2, [r3, #61]	@ 0x3d
 8005ed4:	687b      	ldr	r3, [r7, #4]
 8005ed6:	681a      	ldr	r2, [r3, #0]
 8005ed8:	687b      	ldr	r3, [r7, #4]
 8005eda:	3304      	adds	r3, #4
 8005edc:	4619      	mov	r1, r3
 8005ede:	4610      	mov	r0, r2
 8005ee0:	f000 fdb8 	bl	8006a54 <TIM_Base_SetConfig>
 8005ee4:	687b      	ldr	r3, [r7, #4]
 8005ee6:	2201      	movs	r2, #1
 8005ee8:	f883 2048 	strb.w	r2, [r3, #72]	@ 0x48
 8005eec:	687b      	ldr	r3, [r7, #4]
 8005eee:	2201      	movs	r2, #1
 8005ef0:	f883 203e 	strb.w	r2, [r3, #62]	@ 0x3e
 8005ef4:	687b      	ldr	r3, [r7, #4]
 8005ef6:	2201      	movs	r2, #1
 8005ef8:	f883 203f 	strb.w	r2, [r3, #63]	@ 0x3f
 8005efc:	687b      	ldr	r3, [r7, #4]
 8005efe:	2201      	movs	r2, #1
 8005f00:	f883 2040 	strb.w	r2, [r3, #64]	@ 0x40
 8005f04:	687b      	ldr	r3, [r7, #4]
 8005f06:	2201      	movs	r2, #1
 8005f08:	f883 2041 	strb.w	r2, [r3, #65]	@ 0x41
 8005f0c:	687b      	ldr	r3, [r7, #4]
 8005f0e:	2201      	movs	r2, #1
 8005f10:	f883 2042 	strb.w	r2, [r3, #66]	@ 0x42
 8005f14:	687b      	ldr	r3, [r7, #4]
 8005f16:	2201      	movs	r2, #1
 8005f18:	f883 2043 	strb.w	r2, [r3, #67]	@ 0x43
 8005f1c:	687b      	ldr	r3, [r7, #4]
 8005f1e:	2201      	movs	r2, #1
 8005f20:	f883 2044 	strb.w	r2, [r3, #68]	@ 0x44
 8005f24:	687b      	ldr	r3, [r7, #4]
 8005f26:	2201      	movs	r2, #1
 8005f28:	f883 2045 	strb.w	r2, [r3, #69]	@ 0x45
 8005f2c:	687b      	ldr	r3, [r7, #4]
 8005f2e:	2201      	movs	r2, #1
 8005f30:	f883 2046 	strb.w	r2, [r3, #70]	@ 0x46
 8005f34:	687b      	ldr	r3, [r7, #4]
 8005f36:	2201      	movs	r2, #1
 8005f38:	f883 2047 	strb.w	r2, [r3, #71]	@ 0x47
 8005f3c:	687b      	ldr	r3, [r7, #4]
 8005f3e:	2201      	movs	r2, #1
 8005f40:	f883 203d 	strb.w	r2, [r3, #61]	@ 0x3d
 8005f44:	2300      	movs	r3, #0
 8005f46:	4618      	mov	r0, r3
 8005f48:	3708      	adds	r7, #8
 8005f4a:	46bd      	mov	sp, r7
 8005f4c:	bd80      	pop	{r7, pc}

08005f4e <HAL_TIM_OC_Init>:
 8005f4e:	b580      	push	{r7, lr}
 8005f50:	b082      	sub	sp, #8
 8005f52:	af00      	add	r7, sp, #0
 8005f54:	6078      	str	r0, [r7, #4]
 8005f56:	687b      	ldr	r3, [r7, #4]
 8005f58:	2b00      	cmp	r3, #0
 8005f5a:	d101      	bne.n	8005f60 <HAL_TIM_OC_Init+0x12>
 8005f5c:	2301      	movs	r3, #1
 8005f5e:	e049      	b.n	8005ff4 <HAL_TIM_OC_Init+0xa6>
 8005f60:	687b      	ldr	r3, [r7, #4]
 8005f62:	f893 303d 	ldrb.w	r3, [r3, #61]	@ 0x3d
 8005f66:	b2db      	uxtb	r3, r3
 8005f68:	2b00      	cmp	r3, #0
 8005f6a:	d106      	bne.n	8005f7a <HAL_TIM_OC_Init+0x2c>
 8005f6c:	687b      	ldr	r3, [r7, #4]
 8005f6e:	2200      	movs	r2, #0
 8005f70:	f883 203c 	strb.w	r2, [r3, #60]	@ 0x3c
 8005f74:	6878      	ldr	r0, [r7, #4]
 8005f76:	f000 f841 	bl	8005ffc <HAL_TIM_OC_MspInit>
 8005f7a:	687b      	ldr	r3, [r7, #4]
 8005f7c:	2202      	movs	r2, #2
 8005f7e:	f883 203d 	strb.w	r2, [r3, #61]	@ 0x3d
 8005f82:	687b      	ldr	r3, [r7, #4]
 8005f84:	681a      	ldr	r2, [r3, #0]
 8005f86:	687b      	ldr	r3, [r7, #4]
 8005f88:	3304      	adds	r3, #4
 8005f8a:	4619      	mov	r1, r3
 8005f8c:	4610      	mov	r0, r2
 8005f8e:	f000 fd61 	bl	8006a54 <TIM_Base_SetConfig>
 8005f92:	687b      	ldr	r3, [r7, #4]
 8005f94:	2201      	movs	r2, #1
 8005f96:	f883 2048 	strb.w	r2, [r3, #72]	@ 0x48
 8005f9a:	687b      	ldr	r3, [r7, #4]
 8005f9c:	2201      	movs	r2, #1
 8005f9e:	f883 203e 	strb.w	r2, [r3, #62]	@ 0x3e
 8005fa2:	687b      	ldr	r3, [r7, #4]
 8005fa4:	2201      	movs	r2, #1
 8005fa6:	f883 203f 	strb.w	r2, [r3, #63]	@ 0x3f
 8005faa:	687b      	ldr	r3, [r7, #4]
 8005fac:	2201      	movs	r2, #1
 8005fae:	f883 2040 	strb.w	r2, [r3, #64]	@ 0x40
 8005fb2:	687b      	ldr	r3, [r7, #4]
 8005fb4:	2201      	movs	r2, #1
 8005fb6:	f883 2041 	strb.w	r2, [r3, #65]	@ 0x41
 8005fba:	687b      	ldr	r3, [r7, #4]
 8005fbc:	2201      	movs	r2, #1
 8005fbe:	f883 2042 	strb.w	r2, [r3, #66]	@ 0x42
 8005fc2:	687b      	ldr	r3, [r7, #4]
 8005fc4:	2201      	movs	r2, #1
 8005fc6:	f883 2043 	strb.w	r2, [r3, #67]	@ 0x43
 8005fca:	687b      	ldr	r3, [r7, #4]
 8005fcc:	2201      	movs	r2, #1
 8005fce:	f883 2044 	strb.w	r2, [r3, #68]	@ 0x44
 8005fd2:	687b      	ldr	r3, [r7, #4]
 8005fd4:	2201      	movs	r2, #1
 8005fd6:	f883 2045 	strb.w	r2, [r3, #69]	@ 0x45
 8005fda:	687b      	ldr	r3, [r7, #4]
 8005fdc:	2201      	movs	r2, #1
 8005fde:	f883 2046 	strb.w	r2, [r3, #70]	@ 0x46
 8005fe2:	687b      	ldr	r3, [r7, #4]
 8005fe4:	2201      	movs	r2, #1
 8005fe6:	f883 2047 	strb.w	r2, [r3, #71]	@ 0x47
 8005fea:	687b      	ldr	r3, [r7, #4]
 8005fec:	2201      	movs	r2, #1
 8005fee:	f883 203d 	strb.w	r2, [r3, #61]	@ 0x3d
 8005ff2:	2300      	movs	r3, #0
 8005ff4:	4618      	mov	r0, r3
 8005ff6:	3708      	adds	r7, #8
 8005ff8:	46bd      	mov	sp, r7
 8005ffa:	bd80      	pop	{r7, pc}

08005ffc <HAL_TIM_OC_MspInit>:
 8005ffc:	b480      	push	{r7}
 8005ffe:	b083      	sub	sp, #12
 8006000:	af00      	add	r7, sp, #0
 8006002:	6078      	str	r0, [r7, #4]
 8006004:	bf00      	nop
 8006006:	370c      	adds	r7, #12
 8006008:	46bd      	mov	sp, r7
 800600a:	f85d 7b04 	ldr.w	r7, [sp], #4
 800600e:	4770      	bx	lr

08006010 <HAL_TIM_OC_Start>:
 8006010:	b580      	push	{r7, lr}
 8006012:	b084      	sub	sp, #16
 8006014:	af00      	add	r7, sp, #0
 8006016:	6078      	str	r0, [r7, #4]
 8006018:	6039      	str	r1, [r7, #0]
 800601a:	683b      	ldr	r3, [r7, #0]
 800601c:	2b00      	cmp	r3, #0
 800601e:	d109      	bne.n	8006034 <HAL_TIM_OC_Start+0x24>
 8006020:	687b      	ldr	r3, [r7, #4]
 8006022:	f893 303e 	ldrb.w	r3, [r3, #62]	@ 0x3e
 8006026:	b2db      	uxtb	r3, r3
 8006028:	2b01      	cmp	r3, #1
 800602a:	bf14      	ite	ne
 800602c:	2301      	movne	r3, #1
 800602e:	2300      	moveq	r3, #0
 8006030:	b2db      	uxtb	r3, r3
 8006032:	e03c      	b.n	80060ae <HAL_TIM_OC_Start+0x9e>
 8006034:	683b      	ldr	r3, [r7, #0]
 8006036:	2b04      	cmp	r3, #4
 8006038:	d109      	bne.n	800604e <HAL_TIM_OC_Start+0x3e>
 800603a:	687b      	ldr	r3, [r7, #4]
 800603c:	f893 303f 	ldrb.w	r3, [r3, #63]	@ 0x3f
 8006040:	b2db      	uxtb	r3, r3
 8006042:	2b01      	cmp	r3, #1
 8006044:	bf14      	ite	ne
 8006046:	2301      	movne	r3, #1
 8006048:	2300      	moveq	r3, #0
 800604a:	b2db      	uxtb	r3, r3
 800604c:	e02f      	b.n	80060ae <HAL_TIM_OC_Start+0x9e>
 800604e:	683b      	ldr	r3, [r7, #0]
 8006050:	2b08      	cmp	r3, #8
 8006052:	d109      	bne.n	8006068 <HAL_TIM_OC_Start+0x58>
 8006054:	687b      	ldr	r3, [r7, #4]
 8006056:	f893 3040 	ldrb.w	r3, [r3, #64]	@ 0x40
 800605a:	b2db      	uxtb	r3, r3
 800605c:	2b01      	cmp	r3, #1
 800605e:	bf14      	ite	ne
 8006060:	2301      	movne	r3, #1
 8006062:	2300      	moveq	r3, #0
 8006064:	b2db      	uxtb	r3, r3
 8006066:	e022      	b.n	80060ae <HAL_TIM_OC_Start+0x9e>
 8006068:	683b      	ldr	r3, [r7, #0]
 800606a:	2b0c      	cmp	r3, #12
 800606c:	d109      	bne.n	8006082 <HAL_TIM_OC_Start+0x72>
 800606e:	687b      	ldr	r3, [r7, #4]
 8006070:	f893 3041 	ldrb.w	r3, [r3, #65]	@ 0x41
 8006074:	b2db      	uxtb	r3, r3
 8006076:	2b01      	cmp	r3, #1
 8006078:	bf14      	ite	ne
 800607a:	2301      	movne	r3, #1
 800607c:	2300      	moveq	r3, #0
 800607e:	b2db      	uxtb	r3, r3
 8006080:	e015      	b.n	80060ae <HAL_TIM_OC_Start+0x9e>
 8006082:	683b      	ldr	r3, [r7, #0]
 8006084:	2b10      	cmp	r3, #16
 8006086:	d109      	bne.n	800609c <HAL_TIM_OC_Start+0x8c>
 8006088:	687b      	ldr	r3, [r7, #4]
 800608a:	f893 3042 	ldrb.w	r3, [r3, #66]	@ 0x42
 800608e:	b2db      	uxtb	r3, r3
 8006090:	2b01      	cmp	r3, #1
 8006092:	bf14      	ite	ne
 8006094:	2301      	movne	r3, #1
 8006096:	2300      	moveq	r3, #0
 8006098:	b2db      	uxtb	r3, r3
 800609a:	e008      	b.n	80060ae <HAL_TIM_OC_Start+0x9e>
 800609c:	687b      	ldr	r3, [r7, #4]
 800609e:	f893 3043 	ldrb.w	r3, [r3, #67]	@ 0x43
 80060a2:	b2db      	uxtb	r3, r3
 80060a4:	2b01      	cmp	r3, #1
 80060a6:	bf14      	ite	ne
 80060a8:	2301      	movne	r3, #1
 80060aa:	2300      	moveq	r3, #0
 80060ac:	b2db      	uxtb	r3, r3
 80060ae:	2b00      	cmp	r3, #0
 80060b0:	d001      	beq.n	80060b6 <HAL_TIM_OC_Start+0xa6>
 80060b2:	2301      	movs	r3, #1
 80060b4:	e092      	b.n	80061dc <HAL_TIM_OC_Start+0x1cc>
 80060b6:	683b      	ldr	r3, [r7, #0]
 80060b8:	2b00      	cmp	r3, #0
 80060ba:	d104      	bne.n	80060c6 <HAL_TIM_OC_Start+0xb6>
 80060bc:	687b      	ldr	r3, [r7, #4]
 80060be:	2202      	movs	r2, #2
 80060c0:	f883 203e 	strb.w	r2, [r3, #62]	@ 0x3e
 80060c4:	e023      	b.n	800610e <HAL_TIM_OC_Start+0xfe>
 80060c6:	683b      	ldr	r3, [r7, #0]
 80060c8:	2b04      	cmp	r3, #4
 80060ca:	d104      	bne.n	80060d6 <HAL_TIM_OC_Start+0xc6>
 80060cc:	687b      	ldr	r3, [r7, #4]
 80060ce:	2202      	movs	r2, #2
 80060d0:	f883 203f 	strb.w	r2, [r3, #63]	@ 0x3f
 80060d4:	e01b      	b.n	800610e <HAL_TIM_OC_Start+0xfe>
 80060d6:	683b      	ldr	r3, [r7, #0]
 80060d8:	2b08      	cmp	r3, #8
 80060da:	d104      	bne.n	80060e6 <HAL_TIM_OC_Start+0xd6>
 80060dc:	687b      	ldr	r3, [r7, #4]
 80060de:	2202      	movs	r2, #2
 80060e0:	f883 2040 	strb.w	r2, [r3, #64]	@ 0x40
 80060e4:	e013      	b.n	800610e <HAL_TIM_OC_Start+0xfe>
 80060e6:	683b      	ldr	r3, [r7, #0]
 80060e8:	2b0c      	cmp	r3, #12
 80060ea:	d104      	bne.n	80060f6 <HAL_TIM_OC_Start+0xe6>
 80060ec:	687b      	ldr	r3, [r7, #4]
 80060ee:	2202      	movs	r2, #2
 80060f0:	f883 2041 	strb.w	r2, [r3, #65]	@ 0x41
 80060f4:	e00b      	b.n	800610e <HAL_TIM_OC_Start+0xfe>
 80060f6:	683b      	ldr	r3, [r7, #0]
 80060f8:	2b10      	cmp	r3, #16
 80060fa:	d104      	bne.n	8006106 <HAL_TIM_OC_Start+0xf6>
 80060fc:	687b      	ldr	r3, [r7, #4]
 80060fe:	2202      	movs	r2, #2
 8006100:	f883 2042 	strb.w	r2, [r3, #66]	@ 0x42
 8006104:	e003      	b.n	800610e <HAL_TIM_OC_Start+0xfe>
 8006106:	687b      	ldr	r3, [r7, #4]
 8006108:	2202      	movs	r2, #2
 800610a:	f883 2043 	strb.w	r2, [r3, #67]	@ 0x43
 800610e:	687b      	ldr	r3, [r7, #4]
 8006110:	681b      	ldr	r3, [r3, #0]
 8006112:	2201      	movs	r2, #1
 8006114:	6839      	ldr	r1, [r7, #0]
 8006116:	4618      	mov	r0, r3
 8006118:	f001 f840 	bl	800719c <TIM_CCxChannelCmd>
 800611c:	687b      	ldr	r3, [r7, #4]
 800611e:	681b      	ldr	r3, [r3, #0]
 8006120:	4a30      	ldr	r2, [pc, #192]	@ (80061e4 <HAL_TIM_OC_Start+0x1d4>)
 8006122:	4293      	cmp	r3, r2
 8006124:	d004      	beq.n	8006130 <HAL_TIM_OC_Start+0x120>
 8006126:	687b      	ldr	r3, [r7, #4]
 8006128:	681b      	ldr	r3, [r3, #0]
 800612a:	4a2f      	ldr	r2, [pc, #188]	@ (80061e8 <HAL_TIM_OC_Start+0x1d8>)
 800612c:	4293      	cmp	r3, r2
 800612e:	d101      	bne.n	8006134 <HAL_TIM_OC_Start+0x124>
 8006130:	2301      	movs	r3, #1
 8006132:	e000      	b.n	8006136 <HAL_TIM_OC_Start+0x126>
 8006134:	2300      	movs	r3, #0
 8006136:	2b00      	cmp	r3, #0
 8006138:	d007      	beq.n	800614a <HAL_TIM_OC_Start+0x13a>
 800613a:	687b      	ldr	r3, [r7, #4]
 800613c:	681b      	ldr	r3, [r3, #0]
 800613e:	6c5a      	ldr	r2, [r3, #68]	@ 0x44
 8006140:	687b      	ldr	r3, [r7, #4]
 8006142:	681b      	ldr	r3, [r3, #0]
 8006144:	f442 4200 	orr.w	r2, r2, #32768	@ 0x8000
 8006148:	645a      	str	r2, [r3, #68]	@ 0x44
 800614a:	687b      	ldr	r3, [r7, #4]
 800614c:	681b      	ldr	r3, [r3, #0]
 800614e:	4a25      	ldr	r2, [pc, #148]	@ (80061e4 <HAL_TIM_OC_Start+0x1d4>)
 8006150:	4293      	cmp	r3, r2
 8006152:	d022      	beq.n	800619a <HAL_TIM_OC_Start+0x18a>
 8006154:	687b      	ldr	r3, [r7, #4]
 8006156:	681b      	ldr	r3, [r3, #0]
 8006158:	f1b3 4f80 	cmp.w	r3, #1073741824	@ 0x40000000
 800615c:	d01d      	beq.n	800619a <HAL_TIM_OC_Start+0x18a>
 800615e:	687b      	ldr	r3, [r7, #4]
 8006160:	681b      	ldr	r3, [r3, #0]
 8006162:	4a22      	ldr	r2, [pc, #136]	@ (80061ec <HAL_TIM_OC_Start+0x1dc>)
 8006164:	4293      	cmp	r3, r2
 8006166:	d018      	beq.n	800619a <HAL_TIM_OC_Start+0x18a>
 8006168:	687b      	ldr	r3, [r7, #4]
 800616a:	681b      	ldr	r3, [r3, #0]
 800616c:	4a20      	ldr	r2, [pc, #128]	@ (80061f0 <HAL_TIM_OC_Start+0x1e0>)
 800616e:	4293      	cmp	r3, r2
 8006170:	d013      	beq.n	800619a <HAL_TIM_OC_Start+0x18a>
 8006172:	687b      	ldr	r3, [r7, #4]
 8006174:	681b      	ldr	r3, [r3, #0]
 8006176:	4a1f      	ldr	r2, [pc, #124]	@ (80061f4 <HAL_TIM_OC_Start+0x1e4>)
 8006178:	4293      	cmp	r3, r2
 800617a:	d00e      	beq.n	800619a <HAL_TIM_OC_Start+0x18a>
 800617c:	687b      	ldr	r3, [r7, #4]
 800617e:	681b      	ldr	r3, [r3, #0]
 8006180:	4a19      	ldr	r2, [pc, #100]	@ (80061e8 <HAL_TIM_OC_Start+0x1d8>)
 8006182:	4293      	cmp	r3, r2
 8006184:	d009      	beq.n	800619a <HAL_TIM_OC_Start+0x18a>
 8006186:	687b      	ldr	r3, [r7, #4]
 8006188:	681b      	ldr	r3, [r3, #0]
 800618a:	4a1b      	ldr	r2, [pc, #108]	@ (80061f8 <HAL_TIM_OC_Start+0x1e8>)
 800618c:	4293      	cmp	r3, r2
 800618e:	d004      	beq.n	800619a <HAL_TIM_OC_Start+0x18a>
 8006190:	687b      	ldr	r3, [r7, #4]
 8006192:	681b      	ldr	r3, [r3, #0]
 8006194:	4a19      	ldr	r2, [pc, #100]	@ (80061fc <HAL_TIM_OC_Start+0x1ec>)
 8006196:	4293      	cmp	r3, r2
 8006198:	d115      	bne.n	80061c6 <HAL_TIM_OC_Start+0x1b6>
 800619a:	687b      	ldr	r3, [r7, #4]
 800619c:	681b      	ldr	r3, [r3, #0]
 800619e:	689a      	ldr	r2, [r3, #8]
 80061a0:	4b17      	ldr	r3, [pc, #92]	@ (8006200 <HAL_TIM_OC_Start+0x1f0>)
 80061a2:	4013      	ands	r3, r2
 80061a4:	60fb      	str	r3, [r7, #12]
 80061a6:	68fb      	ldr	r3, [r7, #12]
 80061a8:	2b06      	cmp	r3, #6
 80061aa:	d015      	beq.n	80061d8 <HAL_TIM_OC_Start+0x1c8>
 80061ac:	68fb      	ldr	r3, [r7, #12]
 80061ae:	f5b3 3f80 	cmp.w	r3, #65536	@ 0x10000
 80061b2:	d011      	beq.n	80061d8 <HAL_TIM_OC_Start+0x1c8>
 80061b4:	687b      	ldr	r3, [r7, #4]
 80061b6:	681b      	ldr	r3, [r3, #0]
 80061b8:	681a      	ldr	r2, [r3, #0]
 80061ba:	687b      	ldr	r3, [r7, #4]
 80061bc:	681b      	ldr	r3, [r3, #0]
 80061be:	f042 0201 	orr.w	r2, r2, #1
 80061c2:	601a      	str	r2, [r3, #0]
 80061c4:	e008      	b.n	80061d8 <HAL_TIM_OC_Start+0x1c8>
 80061c6:	687b      	ldr	r3, [r7, #4]
 80061c8:	681b      	ldr	r3, [r3, #0]
 80061ca:	681a      	ldr	r2, [r3, #0]
 80061cc:	687b      	ldr	r3, [r7, #4]
 80061ce:	681b      	ldr	r3, [r3, #0]
 80061d0:	f042 0201 	orr.w	r2, r2, #1
 80061d4:	601a      	str	r2, [r3, #0]
 80061d6:	e000      	b.n	80061da <HAL_TIM_OC_Start+0x1ca>
 80061d8:	bf00      	nop
 80061da:	2300      	movs	r3, #0
 80061dc:	4618      	mov	r0, r3
 80061de:	3710      	adds	r7, #16
 80061e0:	46bd      	mov	sp, r7
 80061e2:	bd80      	pop	{r7, pc}
 80061e4:	40010000 	.word	0x40010000
 80061e8:	40010400 	.word	0x40010400
 80061ec:	40000400 	.word	0x40000400
 80061f0:	40000800 	.word	0x40000800
 80061f4:	40000c00 	.word	0x40000c00
 80061f8:	40014000 	.word	0x40014000
 80061fc:	40001800 	.word	0x40001800
 8006200:	00010007 	.word	0x00010007

08006204 <HAL_TIM_OC_Stop>:
 8006204:	b580      	push	{r7, lr}
 8006206:	b082      	sub	sp, #8
 8006208:	af00      	add	r7, sp, #0
 800620a:	6078      	str	r0, [r7, #4]
 800620c:	6039      	str	r1, [r7, #0]
 800620e:	687b      	ldr	r3, [r7, #4]
 8006210:	681b      	ldr	r3, [r3, #0]
 8006212:	2200      	movs	r2, #0
 8006214:	6839      	ldr	r1, [r7, #0]
 8006216:	4618      	mov	r0, r3
 8006218:	f000 ffc0 	bl	800719c <TIM_CCxChannelCmd>
 800621c:	687b      	ldr	r3, [r7, #4]
 800621e:	681b      	ldr	r3, [r3, #0]
 8006220:	4a36      	ldr	r2, [pc, #216]	@ (80062fc <HAL_TIM_OC_Stop+0xf8>)
 8006222:	4293      	cmp	r3, r2
 8006224:	d004      	beq.n	8006230 <HAL_TIM_OC_Stop+0x2c>
 8006226:	687b      	ldr	r3, [r7, #4]
 8006228:	681b      	ldr	r3, [r3, #0]
 800622a:	4a35      	ldr	r2, [pc, #212]	@ (8006300 <HAL_TIM_OC_Stop+0xfc>)
 800622c:	4293      	cmp	r3, r2
 800622e:	d101      	bne.n	8006234 <HAL_TIM_OC_Stop+0x30>
 8006230:	2301      	movs	r3, #1
 8006232:	e000      	b.n	8006236 <HAL_TIM_OC_Stop+0x32>
 8006234:	2300      	movs	r3, #0
 8006236:	2b00      	cmp	r3, #0
 8006238:	d017      	beq.n	800626a <HAL_TIM_OC_Stop+0x66>
 800623a:	687b      	ldr	r3, [r7, #4]
 800623c:	681b      	ldr	r3, [r3, #0]
 800623e:	6a1a      	ldr	r2, [r3, #32]
 8006240:	f241 1311 	movw	r3, #4369	@ 0x1111
 8006244:	4013      	ands	r3, r2
 8006246:	2b00      	cmp	r3, #0
 8006248:	d10f      	bne.n	800626a <HAL_TIM_OC_Stop+0x66>
 800624a:	687b      	ldr	r3, [r7, #4]
 800624c:	681b      	ldr	r3, [r3, #0]
 800624e:	6a1a      	ldr	r2, [r3, #32]
 8006250:	f240 4344 	movw	r3, #1092	@ 0x444
 8006254:	4013      	ands	r3, r2
 8006256:	2b00      	cmp	r3, #0
 8006258:	d107      	bne.n	800626a <HAL_TIM_OC_Stop+0x66>
 800625a:	687b      	ldr	r3, [r7, #4]
 800625c:	681b      	ldr	r3, [r3, #0]
 800625e:	6c5a      	ldr	r2, [r3, #68]	@ 0x44
 8006260:	687b      	ldr	r3, [r7, #4]
 8006262:	681b      	ldr	r3, [r3, #0]
 8006264:	f422 4200 	bic.w	r2, r2, #32768	@ 0x8000
 8006268:	645a      	str	r2, [r3, #68]	@ 0x44
 800626a:	687b      	ldr	r3, [r7, #4]
 800626c:	681b      	ldr	r3, [r3, #0]
 800626e:	6a1a      	ldr	r2, [r3, #32]
 8006270:	f241 1311 	movw	r3, #4369	@ 0x1111
 8006274:	4013      	ands	r3, r2
 8006276:	2b00      	cmp	r3, #0
 8006278:	d10f      	bne.n	800629a <HAL_TIM_OC_Stop+0x96>
 800627a:	687b      	ldr	r3, [r7, #4]
 800627c:	681b      	ldr	r3, [r3, #0]
 800627e:	6a1a      	ldr	r2, [r3, #32]
 8006280:	f240 4344 	movw	r3, #1092	@ 0x444
 8006284:	4013      	ands	r3, r2
 8006286:	2b00      	cmp	r3, #0
 8006288:	d107      	bne.n	800629a <HAL_TIM_OC_Stop+0x96>
 800628a:	687b      	ldr	r3, [r7, #4]
 800628c:	681b      	ldr	r3, [r3, #0]
 800628e:	681a      	ldr	r2, [r3, #0]
 8006290:	687b      	ldr	r3, [r7, #4]
 8006292:	681b      	ldr	r3, [r3, #0]
 8006294:	f022 0201 	bic.w	r2, r2, #1
 8006298:	601a      	str	r2, [r3, #0]
 800629a:	683b      	ldr	r3, [r7, #0]
 800629c:	2b00      	cmp	r3, #0
 800629e:	d104      	bne.n	80062aa <HAL_TIM_OC_Stop+0xa6>
 80062a0:	687b      	ldr	r3, [r7, #4]
 80062a2:	2201      	movs	r2, #1
 80062a4:	f883 203e 	strb.w	r2, [r3, #62]	@ 0x3e
 80062a8:	e023      	b.n	80062f2 <HAL_TIM_OC_Stop+0xee>
 80062aa:	683b      	ldr	r3, [r7, #0]
 80062ac:	2b04      	cmp	r3, #4
 80062ae:	d104      	bne.n	80062ba <HAL_TIM_OC_Stop+0xb6>
 80062b0:	687b      	ldr	r3, [r7, #4]
 80062b2:	2201      	movs	r2, #1
 80062b4:	f883 203f 	strb.w	r2, [r3, #63]	@ 0x3f
 80062b8:	e01b      	b.n	80062f2 <HAL_TIM_OC_Stop+0xee>
 80062ba:	683b      	ldr	r3, [r7, #0]
 80062bc:	2b08      	cmp	r3, #8
 80062be:	d104      	bne.n	80062ca <HAL_TIM_OC_Stop+0xc6>
 80062c0:	687b      	ldr	r3, [r7, #4]
 80062c2:	2201      	movs	r2, #1
 80062c4:	f883 2040 	strb.w	r2, [r3, #64]	@ 0x40
 80062c8:	e013      	b.n	80062f2 <HAL_TIM_OC_Stop+0xee>
 80062ca:	683b      	ldr	r3, [r7, #0]
 80062cc:	2b0c      	cmp	r3, #12
 80062ce:	d104      	bne.n	80062da <HAL_TIM_OC_Stop+0xd6>
 80062d0:	687b      	ldr	r3, [r7, #4]
 80062d2:	2201      	movs	r2, #1
 80062d4:	f883 2041 	strb.w	r2, [r3, #65]	@ 0x41
 80062d8:	e00b      	b.n	80062f2 <HAL_TIM_OC_Stop+0xee>
 80062da:	683b      	ldr	r3, [r7, #0]
 80062dc:	2b10      	cmp	r3, #16
 80062de:	d104      	bne.n	80062ea <HAL_TIM_OC_Stop+0xe6>
 80062e0:	687b      	ldr	r3, [r7, #4]
 80062e2:	2201      	movs	r2, #1
 80062e4:	f883 2042 	strb.w	r2, [r3, #66]	@ 0x42
 80062e8:	e003      	b.n	80062f2 <HAL_TIM_OC_Stop+0xee>
 80062ea:	687b      	ldr	r3, [r7, #4]
 80062ec:	2201      	movs	r2, #1
 80062ee:	f883 2043 	strb.w	r2, [r3, #67]	@ 0x43
 80062f2:	2300      	movs	r3, #0
 80062f4:	4618      	mov	r0, r3
 80062f6:	3708      	adds	r7, #8
 80062f8:	46bd      	mov	sp, r7
 80062fa:	bd80      	pop	{r7, pc}
 80062fc:	40010000 	.word	0x40010000
 8006300:	40010400 	.word	0x40010400

08006304 <HAL_TIM_Encoder_Init>:
 8006304:	b580      	push	{r7, lr}
 8006306:	b086      	sub	sp, #24
 8006308:	af00      	add	r7, sp, #0
 800630a:	6078      	str	r0, [r7, #4]
 800630c:	6039      	str	r1, [r7, #0]
 800630e:	687b      	ldr	r3, [r7, #4]
 8006310:	2b00      	cmp	r3, #0
 8006312:	d101      	bne.n	8006318 <HAL_TIM_Encoder_Init+0x14>
 8006314:	2301      	movs	r3, #1
 8006316:	e08f      	b.n	8006438 <HAL_TIM_Encoder_Init+0x134>
 8006318:	687b      	ldr	r3, [r7, #4]
 800631a:	f893 303d 	ldrb.w	r3, [r3, #61]	@ 0x3d
 800631e:	b2db      	uxtb	r3, r3
 8006320:	2b00      	cmp	r3, #0
 8006322:	d106      	bne.n	8006332 <HAL_TIM_Encoder_Init+0x2e>
 8006324:	687b      	ldr	r3, [r7, #4]
 8006326:	2200      	movs	r2, #0
 8006328:	f883 203c 	strb.w	r2, [r3, #60]	@ 0x3c
 800632c:	6878      	ldr	r0, [r7, #4]
 800632e:	f7fc f937 	bl	80025a0 <HAL_TIM_Encoder_MspInit>
 8006332:	687b      	ldr	r3, [r7, #4]
 8006334:	2202      	movs	r2, #2
 8006336:	f883 203d 	strb.w	r2, [r3, #61]	@ 0x3d
 800633a:	687b      	ldr	r3, [r7, #4]
 800633c:	681b      	ldr	r3, [r3, #0]
 800633e:	6899      	ldr	r1, [r3, #8]
 8006340:	687b      	ldr	r3, [r7, #4]
 8006342:	681a      	ldr	r2, [r3, #0]
 8006344:	4b3e      	ldr	r3, [pc, #248]	@ (8006440 <HAL_TIM_Encoder_Init+0x13c>)
 8006346:	400b      	ands	r3, r1
 8006348:	6093      	str	r3, [r2, #8]
 800634a:	687b      	ldr	r3, [r7, #4]
 800634c:	681a      	ldr	r2, [r3, #0]
 800634e:	687b      	ldr	r3, [r7, #4]
 8006350:	3304      	adds	r3, #4
 8006352:	4619      	mov	r1, r3
 8006354:	4610      	mov	r0, r2
 8006356:	f000 fb7d 	bl	8006a54 <TIM_Base_SetConfig>
 800635a:	687b      	ldr	r3, [r7, #4]
 800635c:	681b      	ldr	r3, [r3, #0]
 800635e:	689b      	ldr	r3, [r3, #8]
 8006360:	617b      	str	r3, [r7, #20]
 8006362:	687b      	ldr	r3, [r7, #4]
 8006364:	681b      	ldr	r3, [r3, #0]
 8006366:	699b      	ldr	r3, [r3, #24]
 8006368:	613b      	str	r3, [r7, #16]
 800636a:	687b      	ldr	r3, [r7, #4]
 800636c:	681b      	ldr	r3, [r3, #0]
 800636e:	6a1b      	ldr	r3, [r3, #32]
 8006370:	60fb      	str	r3, [r7, #12]
 8006372:	683b      	ldr	r3, [r7, #0]
 8006374:	681b      	ldr	r3, [r3, #0]
 8006376:	697a      	ldr	r2, [r7, #20]
 8006378:	4313      	orrs	r3, r2
 800637a:	617b      	str	r3, [r7, #20]
 800637c:	693a      	ldr	r2, [r7, #16]
 800637e:	4b31      	ldr	r3, [pc, #196]	@ (8006444 <HAL_TIM_Encoder_Init+0x140>)
 8006380:	4013      	ands	r3, r2
 8006382:	613b      	str	r3, [r7, #16]
 8006384:	683b      	ldr	r3, [r7, #0]
 8006386:	689a      	ldr	r2, [r3, #8]
 8006388:	683b      	ldr	r3, [r7, #0]
 800638a:	699b      	ldr	r3, [r3, #24]
 800638c:	021b      	lsls	r3, r3, #8
 800638e:	4313      	orrs	r3, r2
 8006390:	693a      	ldr	r2, [r7, #16]
 8006392:	4313      	orrs	r3, r2
 8006394:	613b      	str	r3, [r7, #16]
 8006396:	693a      	ldr	r2, [r7, #16]
 8006398:	4b2b      	ldr	r3, [pc, #172]	@ (8006448 <HAL_TIM_Encoder_Init+0x144>)
 800639a:	4013      	ands	r3, r2
 800639c:	613b      	str	r3, [r7, #16]
 800639e:	693a      	ldr	r2, [r7, #16]
 80063a0:	4b2a      	ldr	r3, [pc, #168]	@ (800644c <HAL_TIM_Encoder_Init+0x148>)
 80063a2:	4013      	ands	r3, r2
 80063a4:	613b      	str	r3, [r7, #16]
 80063a6:	683b      	ldr	r3, [r7, #0]
 80063a8:	68da      	ldr	r2, [r3, #12]
 80063aa:	683b      	ldr	r3, [r7, #0]
 80063ac:	69db      	ldr	r3, [r3, #28]
 80063ae:	021b      	lsls	r3, r3, #8
 80063b0:	4313      	orrs	r3, r2
 80063b2:	693a      	ldr	r2, [r7, #16]
 80063b4:	4313      	orrs	r3, r2
 80063b6:	613b      	str	r3, [r7, #16]
 80063b8:	683b      	ldr	r3, [r7, #0]
 80063ba:	691b      	ldr	r3, [r3, #16]
 80063bc:	011a      	lsls	r2, r3, #4
 80063be:	683b      	ldr	r3, [r7, #0]
 80063c0:	6a1b      	ldr	r3, [r3, #32]
 80063c2:	031b      	lsls	r3, r3, #12
 80063c4:	4313      	orrs	r3, r2
 80063c6:	693a      	ldr	r2, [r7, #16]
 80063c8:	4313      	orrs	r3, r2
 80063ca:	613b      	str	r3, [r7, #16]
 80063cc:	68fb      	ldr	r3, [r7, #12]
 80063ce:	f023 0322 	bic.w	r3, r3, #34	@ 0x22
 80063d2:	60fb      	str	r3, [r7, #12]
 80063d4:	68fb      	ldr	r3, [r7, #12]
 80063d6:	f023 0388 	bic.w	r3, r3, #136	@ 0x88
 80063da:	60fb      	str	r3, [r7, #12]
 80063dc:	683b      	ldr	r3, [r7, #0]
 80063de:	685a      	ldr	r2, [r3, #4]
 80063e0:	683b      	ldr	r3, [r7, #0]
 80063e2:	695b      	ldr	r3, [r3, #20]
 80063e4:	011b      	lsls	r3, r3, #4
 80063e6:	4313      	orrs	r3, r2
 80063e8:	68fa      	ldr	r2, [r7, #12]
 80063ea:	4313      	orrs	r3, r2
 80063ec:	60fb      	str	r3, [r7, #12]
 80063ee:	687b      	ldr	r3, [r7, #4]
 80063f0:	681b      	ldr	r3, [r3, #0]
 80063f2:	697a      	ldr	r2, [r7, #20]
 80063f4:	609a      	str	r2, [r3, #8]
 80063f6:	687b      	ldr	r3, [r7, #4]
 80063f8:	681b      	ldr	r3, [r3, #0]
 80063fa:	693a      	ldr	r2, [r7, #16]
 80063fc:	619a      	str	r2, [r3, #24]
 80063fe:	687b      	ldr	r3, [r7, #4]
 8006400:	681b      	ldr	r3, [r3, #0]
 8006402:	68fa      	ldr	r2, [r7, #12]
 8006404:	621a      	str	r2, [r3, #32]
 8006406:	687b      	ldr	r3, [r7, #4]
 8006408:	2201      	movs	r2, #1
 800640a:	f883 2048 	strb.w	r2, [r3, #72]	@ 0x48
 800640e:	687b      	ldr	r3, [r7, #4]
 8006410:	2201      	movs	r2, #1
 8006412:	f883 203e 	strb.w	r2, [r3, #62]	@ 0x3e
 8006416:	687b      	ldr	r3, [r7, #4]
 8006418:	2201      	movs	r2, #1
 800641a:	f883 203f 	strb.w	r2, [r3, #63]	@ 0x3f
 800641e:	687b      	ldr	r3, [r7, #4]
 8006420:	2201      	movs	r2, #1
 8006422:	f883 2044 	strb.w	r2, [r3, #68]	@ 0x44
 8006426:	687b      	ldr	r3, [r7, #4]
 8006428:	2201      	movs	r2, #1
 800642a:	f883 2045 	strb.w	r2, [r3, #69]	@ 0x45
 800642e:	687b      	ldr	r3, [r7, #4]
 8006430:	2201      	movs	r2, #1
 8006432:	f883 203d 	strb.w	r2, [r3, #61]	@ 0x3d
 8006436:	2300      	movs	r3, #0
 8006438:	4618      	mov	r0, r3
 800643a:	3718      	adds	r7, #24
 800643c:	46bd      	mov	sp, r7
 800643e:	bd80      	pop	{r7, pc}
 8006440:	fffebff8 	.word	0xfffebff8
 8006444:	fffffcfc 	.word	0xfffffcfc
 8006448:	fffff3f3 	.word	0xfffff3f3
 800644c:	ffff0f0f 	.word	0xffff0f0f

08006450 <HAL_TIM_Encoder_Start>:
 8006450:	b580      	push	{r7, lr}
 8006452:	b084      	sub	sp, #16
 8006454:	af00      	add	r7, sp, #0
 8006456:	6078      	str	r0, [r7, #4]
 8006458:	6039      	str	r1, [r7, #0]
 800645a:	687b      	ldr	r3, [r7, #4]
 800645c:	f893 303e 	ldrb.w	r3, [r3, #62]	@ 0x3e
 8006460:	73fb      	strb	r3, [r7, #15]
 8006462:	687b      	ldr	r3, [r7, #4]
 8006464:	f893 303f 	ldrb.w	r3, [r3, #63]	@ 0x3f
 8006468:	73bb      	strb	r3, [r7, #14]
 800646a:	687b      	ldr	r3, [r7, #4]
 800646c:	f893 3044 	ldrb.w	r3, [r3, #68]	@ 0x44
 8006470:	737b      	strb	r3, [r7, #13]
 8006472:	687b      	ldr	r3, [r7, #4]
 8006474:	f893 3045 	ldrb.w	r3, [r3, #69]	@ 0x45
 8006478:	733b      	strb	r3, [r7, #12]
 800647a:	683b      	ldr	r3, [r7, #0]
 800647c:	2b00      	cmp	r3, #0
 800647e:	d110      	bne.n	80064a2 <HAL_TIM_Encoder_Start+0x52>
 8006480:	7bfb      	ldrb	r3, [r7, #15]
 8006482:	2b01      	cmp	r3, #1
 8006484:	d102      	bne.n	800648c <HAL_TIM_Encoder_Start+0x3c>
 8006486:	7b7b      	ldrb	r3, [r7, #13]
 8006488:	2b01      	cmp	r3, #1
 800648a:	d001      	beq.n	8006490 <HAL_TIM_Encoder_Start+0x40>
 800648c:	2301      	movs	r3, #1
 800648e:	e069      	b.n	8006564 <HAL_TIM_Encoder_Start+0x114>
 8006490:	687b      	ldr	r3, [r7, #4]
 8006492:	2202      	movs	r2, #2
 8006494:	f883 203e 	strb.w	r2, [r3, #62]	@ 0x3e
 8006498:	687b      	ldr	r3, [r7, #4]
 800649a:	2202      	movs	r2, #2
 800649c:	f883 2044 	strb.w	r2, [r3, #68]	@ 0x44
 80064a0:	e031      	b.n	8006506 <HAL_TIM_Encoder_Start+0xb6>
 80064a2:	683b      	ldr	r3, [r7, #0]
 80064a4:	2b04      	cmp	r3, #4
 80064a6:	d110      	bne.n	80064ca <HAL_TIM_Encoder_Start+0x7a>
 80064a8:	7bbb      	ldrb	r3, [r7, #14]
 80064aa:	2b01      	cmp	r3, #1
 80064ac:	d102      	bne.n	80064b4 <HAL_TIM_Encoder_Start+0x64>
 80064ae:	7b3b      	ldrb	r3, [r7, #12]
 80064b0:	2b01      	cmp	r3, #1
 80064b2:	d001      	beq.n	80064b8 <HAL_TIM_Encoder_Start+0x68>
 80064b4:	2301      	movs	r3, #1
 80064b6:	e055      	b.n	8006564 <HAL_TIM_Encoder_Start+0x114>
 80064b8:	687b      	ldr	r3, [r7, #4]
 80064ba:	2202      	movs	r2, #2
 80064bc:	f883 203f 	strb.w	r2, [r3, #63]	@ 0x3f
 80064c0:	687b      	ldr	r3, [r7, #4]
 80064c2:	2202      	movs	r2, #2
 80064c4:	f883 2045 	strb.w	r2, [r3, #69]	@ 0x45
 80064c8:	e01d      	b.n	8006506 <HAL_TIM_Encoder_Start+0xb6>
 80064ca:	7bfb      	ldrb	r3, [r7, #15]
 80064cc:	2b01      	cmp	r3, #1
 80064ce:	d108      	bne.n	80064e2 <HAL_TIM_Encoder_Start+0x92>
 80064d0:	7bbb      	ldrb	r3, [r7, #14]
 80064d2:	2b01      	cmp	r3, #1
 80064d4:	d105      	bne.n	80064e2 <HAL_TIM_Encoder_Start+0x92>
 80064d6:	7b7b      	ldrb	r3, [r7, #13]
 80064d8:	2b01      	cmp	r3, #1
 80064da:	d102      	bne.n	80064e2 <HAL_TIM_Encoder_Start+0x92>
 80064dc:	7b3b      	ldrb	r3, [r7, #12]
 80064de:	2b01      	cmp	r3, #1
 80064e0:	d001      	beq.n	80064e6 <HAL_TIM_Encoder_Start+0x96>
 80064e2:	2301      	movs	r3, #1
 80064e4:	e03e      	b.n	8006564 <HAL_TIM_Encoder_Start+0x114>
 80064e6:	687b      	ldr	r3, [r7, #4]
 80064e8:	2202      	movs	r2, #2
 80064ea:	f883 203e 	strb.w	r2, [r3, #62]	@ 0x3e
 80064ee:	687b      	ldr	r3, [r7, #4]
 80064f0:	2202      	movs	r2, #2
 80064f2:	f883 203f 	strb.w	r2, [r3, #63]	@ 0x3f
 80064f6:	687b      	ldr	r3, [r7, #4]
 80064f8:	2202      	movs	r2, #2
 80064fa:	f883 2044 	strb.w	r2, [r3, #68]	@ 0x44
 80064fe:	687b      	ldr	r3, [r7, #4]
 8006500:	2202      	movs	r2, #2
 8006502:	f883 2045 	strb.w	r2, [r3, #69]	@ 0x45
 8006506:	683b      	ldr	r3, [r7, #0]
 8006508:	2b00      	cmp	r3, #0
 800650a:	d003      	beq.n	8006514 <HAL_TIM_Encoder_Start+0xc4>
 800650c:	683b      	ldr	r3, [r7, #0]
 800650e:	2b04      	cmp	r3, #4
 8006510:	d008      	beq.n	8006524 <HAL_TIM_Encoder_Start+0xd4>
 8006512:	e00f      	b.n	8006534 <HAL_TIM_Encoder_Start+0xe4>
 8006514:	687b      	ldr	r3, [r7, #4]
 8006516:	681b      	ldr	r3, [r3, #0]
 8006518:	2201      	movs	r2, #1
 800651a:	2100      	movs	r1, #0
 800651c:	4618      	mov	r0, r3
 800651e:	f000 fe3d 	bl	800719c <TIM_CCxChannelCmd>
 8006522:	e016      	b.n	8006552 <HAL_TIM_Encoder_Start+0x102>
 8006524:	687b      	ldr	r3, [r7, #4]
 8006526:	681b      	ldr	r3, [r3, #0]
 8006528:	2201      	movs	r2, #1
 800652a:	2104      	movs	r1, #4
 800652c:	4618      	mov	r0, r3
 800652e:	f000 fe35 	bl	800719c <TIM_CCxChannelCmd>
 8006532:	e00e      	b.n	8006552 <HAL_TIM_Encoder_Start+0x102>
 8006534:	687b      	ldr	r3, [r7, #4]
 8006536:	681b      	ldr	r3, [r3, #0]
 8006538:	2201      	movs	r2, #1
 800653a:	2100      	movs	r1, #0
 800653c:	4618      	mov	r0, r3
 800653e:	f000 fe2d 	bl	800719c <TIM_CCxChannelCmd>
 8006542:	687b      	ldr	r3, [r7, #4]
 8006544:	681b      	ldr	r3, [r3, #0]
 8006546:	2201      	movs	r2, #1
 8006548:	2104      	movs	r1, #4
 800654a:	4618      	mov	r0, r3
 800654c:	f000 fe26 	bl	800719c <TIM_CCxChannelCmd>
 8006550:	bf00      	nop
 8006552:	687b      	ldr	r3, [r7, #4]
 8006554:	681b      	ldr	r3, [r3, #0]
 8006556:	681a      	ldr	r2, [r3, #0]
 8006558:	687b      	ldr	r3, [r7, #4]
 800655a:	681b      	ldr	r3, [r3, #0]
 800655c:	f042 0201 	orr.w	r2, r2, #1
 8006560:	601a      	str	r2, [r3, #0]
 8006562:	2300      	movs	r3, #0
 8006564:	4618      	mov	r0, r3
 8006566:	3710      	adds	r7, #16
 8006568:	46bd      	mov	sp, r7
 800656a:	bd80      	pop	{r7, pc}

0800656c <HAL_TIM_IRQHandler>:
 800656c:	b580      	push	{r7, lr}
 800656e:	b084      	sub	sp, #16
 8006570:	af00      	add	r7, sp, #0
 8006572:	6078      	str	r0, [r7, #4]
 8006574:	687b      	ldr	r3, [r7, #4]
 8006576:	681b      	ldr	r3, [r3, #0]
 8006578:	68db      	ldr	r3, [r3, #12]
 800657a:	60fb      	str	r3, [r7, #12]
 800657c:	687b      	ldr	r3, [r7, #4]
 800657e:	681b      	ldr	r3, [r3, #0]
 8006580:	691b      	ldr	r3, [r3, #16]
 8006582:	60bb      	str	r3, [r7, #8]
 8006584:	68bb      	ldr	r3, [r7, #8]
 8006586:	f003 0302 	and.w	r3, r3, #2
 800658a:	2b00      	cmp	r3, #0
 800658c:	d020      	beq.n	80065d0 <HAL_TIM_IRQHandler+0x64>
 800658e:	68fb      	ldr	r3, [r7, #12]
 8006590:	f003 0302 	and.w	r3, r3, #2
 8006594:	2b00      	cmp	r3, #0
 8006596:	d01b      	beq.n	80065d0 <HAL_TIM_IRQHandler+0x64>
 8006598:	687b      	ldr	r3, [r7, #4]
 800659a:	681b      	ldr	r3, [r3, #0]
 800659c:	f06f 0202 	mvn.w	r2, #2
 80065a0:	611a      	str	r2, [r3, #16]
 80065a2:	687b      	ldr	r3, [r7, #4]
 80065a4:	2201      	movs	r2, #1
 80065a6:	771a      	strb	r2, [r3, #28]
 80065a8:	687b      	ldr	r3, [r7, #4]
 80065aa:	681b      	ldr	r3, [r3, #0]
 80065ac:	699b      	ldr	r3, [r3, #24]
 80065ae:	f003 0303 	and.w	r3, r3, #3
 80065b2:	2b00      	cmp	r3, #0
 80065b4:	d003      	beq.n	80065be <HAL_TIM_IRQHandler+0x52>
 80065b6:	6878      	ldr	r0, [r7, #4]
 80065b8:	f000 fa2e 	bl	8006a18 <HAL_TIM_IC_CaptureCallback>
 80065bc:	e005      	b.n	80065ca <HAL_TIM_IRQHandler+0x5e>
 80065be:	6878      	ldr	r0, [r7, #4]
 80065c0:	f000 fa20 	bl	8006a04 <HAL_TIM_OC_DelayElapsedCallback>
 80065c4:	6878      	ldr	r0, [r7, #4]
 80065c6:	f000 fa31 	bl	8006a2c <HAL_TIM_PWM_PulseFinishedCallback>
 80065ca:	687b      	ldr	r3, [r7, #4]
 80065cc:	2200      	movs	r2, #0
 80065ce:	771a      	strb	r2, [r3, #28]
 80065d0:	68bb      	ldr	r3, [r7, #8]
 80065d2:	f003 0304 	and.w	r3, r3, #4
 80065d6:	2b00      	cmp	r3, #0
 80065d8:	d020      	beq.n	800661c <HAL_TIM_IRQHandler+0xb0>
 80065da:	68fb      	ldr	r3, [r7, #12]
 80065dc:	f003 0304 	and.w	r3, r3, #4
 80065e0:	2b00      	cmp	r3, #0
 80065e2:	d01b      	beq.n	800661c <HAL_TIM_IRQHandler+0xb0>
 80065e4:	687b      	ldr	r3, [r7, #4]
 80065e6:	681b      	ldr	r3, [r3, #0]
 80065e8:	f06f 0204 	mvn.w	r2, #4
 80065ec:	611a      	str	r2, [r3, #16]
 80065ee:	687b      	ldr	r3, [r7, #4]
 80065f0:	2202      	movs	r2, #2
 80065f2:	771a      	strb	r2, [r3, #28]
 80065f4:	687b      	ldr	r3, [r7, #4]
 80065f6:	681b      	ldr	r3, [r3, #0]
 80065f8:	699b      	ldr	r3, [r3, #24]
 80065fa:	f403 7340 	and.w	r3, r3, #768	@ 0x300
 80065fe:	2b00      	cmp	r3, #0
 8006600:	d003      	beq.n	800660a <HAL_TIM_IRQHandler+0x9e>
 8006602:	6878      	ldr	r0, [r7, #4]
 8006604:	f000 fa08 	bl	8006a18 <HAL_TIM_IC_CaptureCallback>
 8006608:	e005      	b.n	8006616 <HAL_TIM_IRQHandler+0xaa>
 800660a:	6878      	ldr	r0, [r7, #4]
 800660c:	f000 f9fa 	bl	8006a04 <HAL_TIM_OC_DelayElapsedCallback>
 8006610:	6878      	ldr	r0, [r7, #4]
 8006612:	f000 fa0b 	bl	8006a2c <HAL_TIM_PWM_PulseFinishedCallback>
 8006616:	687b      	ldr	r3, [r7, #4]
 8006618:	2200      	movs	r2, #0
 800661a:	771a      	strb	r2, [r3, #28]
 800661c:	68bb      	ldr	r3, [r7, #8]
 800661e:	f003 0308 	and.w	r3, r3, #8
 8006622:	2b00      	cmp	r3, #0
 8006624:	d020      	beq.n	8006668 <HAL_TIM_IRQHandler+0xfc>
 8006626:	68fb      	ldr	r3, [r7, #12]
 8006628:	f003 0308 	and.w	r3, r3, #8
 800662c:	2b00      	cmp	r3, #0
 800662e:	d01b      	beq.n	8006668 <HAL_TIM_IRQHandler+0xfc>
 8006630:	687b      	ldr	r3, [r7, #4]
 8006632:	681b      	ldr	r3, [r3, #0]
 8006634:	f06f 0208 	mvn.w	r2, #8
 8006638:	611a      	str	r2, [r3, #16]
 800663a:	687b      	ldr	r3, [r7, #4]
 800663c:	2204      	movs	r2, #4
 800663e:	771a      	strb	r2, [r3, #28]
 8006640:	687b      	ldr	r3, [r7, #4]
 8006642:	681b      	ldr	r3, [r3, #0]
 8006644:	69db      	ldr	r3, [r3, #28]
 8006646:	f003 0303 	and.w	r3, r3, #3
 800664a:	2b00      	cmp	r3, #0
 800664c:	d003      	beq.n	8006656 <HAL_TIM_IRQHandler+0xea>
 800664e:	6878      	ldr	r0, [r7, #4]
 8006650:	f000 f9e2 	bl	8006a18 <HAL_TIM_IC_CaptureCallback>
 8006654:	e005      	b.n	8006662 <HAL_TIM_IRQHandler+0xf6>
 8006656:	6878      	ldr	r0, [r7, #4]
 8006658:	f000 f9d4 	bl	8006a04 <HAL_TIM_OC_DelayElapsedCallback>
 800665c:	6878      	ldr	r0, [r7, #4]
 800665e:	f000 f9e5 	bl	8006a2c <HAL_TIM_PWM_PulseFinishedCallback>
 8006662:	687b      	ldr	r3, [r7, #4]
 8006664:	2200      	movs	r2, #0
 8006666:	771a      	strb	r2, [r3, #28]
 8006668:	68bb      	ldr	r3, [r7, #8]
 800666a:	f003 0310 	and.w	r3, r3, #16
 800666e:	2b00      	cmp	r3, #0
 8006670:	d020      	beq.n	80066b4 <HAL_TIM_IRQHandler+0x148>
 8006672:	68fb      	ldr	r3, [r7, #12]
 8006674:	f003 0310 	and.w	r3, r3, #16
 8006678:	2b00      	cmp	r3, #0
 800667a:	d01b      	beq.n	80066b4 <HAL_TIM_IRQHandler+0x148>
 800667c:	687b      	ldr	r3, [r7, #4]
 800667e:	681b      	ldr	r3, [r3, #0]
 8006680:	f06f 0210 	mvn.w	r2, #16
 8006684:	611a      	str	r2, [r3, #16]
 8006686:	687b      	ldr	r3, [r7, #4]
 8006688:	2208      	movs	r2, #8
 800668a:	771a      	strb	r2, [r3, #28]
 800668c:	687b      	ldr	r3, [r7, #4]
 800668e:	681b      	ldr	r3, [r3, #0]
 8006690:	69db      	ldr	r3, [r3, #28]
 8006692:	f403 7340 	and.w	r3, r3, #768	@ 0x300
 8006696:	2b00      	cmp	r3, #0
 8006698:	d003      	beq.n	80066a2 <HAL_TIM_IRQHandler+0x136>
 800669a:	6878      	ldr	r0, [r7, #4]
 800669c:	f000 f9bc 	bl	8006a18 <HAL_TIM_IC_CaptureCallback>
 80066a0:	e005      	b.n	80066ae <HAL_TIM_IRQHandler+0x142>
 80066a2:	6878      	ldr	r0, [r7, #4]
 80066a4:	f000 f9ae 	bl	8006a04 <HAL_TIM_OC_DelayElapsedCallback>
 80066a8:	6878      	ldr	r0, [r7, #4]
 80066aa:	f000 f9bf 	bl	8006a2c <HAL_TIM_PWM_PulseFinishedCallback>
 80066ae:	687b      	ldr	r3, [r7, #4]
 80066b0:	2200      	movs	r2, #0
 80066b2:	771a      	strb	r2, [r3, #28]
 80066b4:	68bb      	ldr	r3, [r7, #8]
 80066b6:	f003 0301 	and.w	r3, r3, #1
 80066ba:	2b00      	cmp	r3, #0
 80066bc:	d00c      	beq.n	80066d8 <HAL_TIM_IRQHandler+0x16c>
 80066be:	68fb      	ldr	r3, [r7, #12]
 80066c0:	f003 0301 	and.w	r3, r3, #1
 80066c4:	2b00      	cmp	r3, #0
 80066c6:	d007      	beq.n	80066d8 <HAL_TIM_IRQHandler+0x16c>
 80066c8:	687b      	ldr	r3, [r7, #4]
 80066ca:	681b      	ldr	r3, [r3, #0]
 80066cc:	f06f 0201 	mvn.w	r2, #1
 80066d0:	611a      	str	r2, [r3, #16]
 80066d2:	6878      	ldr	r0, [r7, #4]
 80066d4:	f7fc fa20 	bl	8002b18 <HAL_TIM_PeriodElapsedCallback>
 80066d8:	68bb      	ldr	r3, [r7, #8]
 80066da:	f003 0380 	and.w	r3, r3, #128	@ 0x80
 80066de:	2b00      	cmp	r3, #0
 80066e0:	d104      	bne.n	80066ec <HAL_TIM_IRQHandler+0x180>
 80066e2:	68bb      	ldr	r3, [r7, #8]
 80066e4:	f403 5300 	and.w	r3, r3, #8192	@ 0x2000
 80066e8:	2b00      	cmp	r3, #0
 80066ea:	d00c      	beq.n	8006706 <HAL_TIM_IRQHandler+0x19a>
 80066ec:	68fb      	ldr	r3, [r7, #12]
 80066ee:	f003 0380 	and.w	r3, r3, #128	@ 0x80
 80066f2:	2b00      	cmp	r3, #0
 80066f4:	d007      	beq.n	8006706 <HAL_TIM_IRQHandler+0x19a>
 80066f6:	687b      	ldr	r3, [r7, #4]
 80066f8:	681b      	ldr	r3, [r3, #0]
 80066fa:	f46f 5202 	mvn.w	r2, #8320	@ 0x2080
 80066fe:	611a      	str	r2, [r3, #16]
 8006700:	6878      	ldr	r0, [r7, #4]
 8006702:	f000 fe09 	bl	8007318 <HAL_TIMEx_BreakCallback>
 8006706:	68bb      	ldr	r3, [r7, #8]
 8006708:	f403 7380 	and.w	r3, r3, #256	@ 0x100
 800670c:	2b00      	cmp	r3, #0
 800670e:	d00c      	beq.n	800672a <HAL_TIM_IRQHandler+0x1be>
 8006710:	68fb      	ldr	r3, [r7, #12]
 8006712:	f003 0380 	and.w	r3, r3, #128	@ 0x80
 8006716:	2b00      	cmp	r3, #0
 8006718:	d007      	beq.n	800672a <HAL_TIM_IRQHandler+0x1be>
 800671a:	687b      	ldr	r3, [r7, #4]
 800671c:	681b      	ldr	r3, [r3, #0]
 800671e:	f46f 7280 	mvn.w	r2, #256	@ 0x100
 8006722:	611a      	str	r2, [r3, #16]
 8006724:	6878      	ldr	r0, [r7, #4]
 8006726:	f000 fe01 	bl	800732c <HAL_TIMEx_Break2Callback>
 800672a:	68bb      	ldr	r3, [r7, #8]
 800672c:	f003 0340 	and.w	r3, r3, #64	@ 0x40
 8006730:	2b00      	cmp	r3, #0
 8006732:	d00c      	beq.n	800674e <HAL_TIM_IRQHandler+0x1e2>
 8006734:	68fb      	ldr	r3, [r7, #12]
 8006736:	f003 0340 	and.w	r3, r3, #64	@ 0x40
 800673a:	2b00      	cmp	r3, #0
 800673c:	d007      	beq.n	800674e <HAL_TIM_IRQHandler+0x1e2>
 800673e:	687b      	ldr	r3, [r7, #4]
 8006740:	681b      	ldr	r3, [r3, #0]
 8006742:	f06f 0240 	mvn.w	r2, #64	@ 0x40
 8006746:	611a      	str	r2, [r3, #16]
 8006748:	6878      	ldr	r0, [r7, #4]
 800674a:	f000 f979 	bl	8006a40 <HAL_TIM_TriggerCallback>
 800674e:	68bb      	ldr	r3, [r7, #8]
 8006750:	f003 0320 	and.w	r3, r3, #32
 8006754:	2b00      	cmp	r3, #0
 8006756:	d00c      	beq.n	8006772 <HAL_TIM_IRQHandler+0x206>
 8006758:	68fb      	ldr	r3, [r7, #12]
 800675a:	f003 0320 	and.w	r3, r3, #32
 800675e:	2b00      	cmp	r3, #0
 8006760:	d007      	beq.n	8006772 <HAL_TIM_IRQHandler+0x206>
 8006762:	687b      	ldr	r3, [r7, #4]
 8006764:	681b      	ldr	r3, [r3, #0]
 8006766:	f06f 0220 	mvn.w	r2, #32
 800676a:	611a      	str	r2, [r3, #16]
 800676c:	6878      	ldr	r0, [r7, #4]
 800676e:	f000 fdc9 	bl	8007304 <HAL_TIMEx_CommutCallback>
 8006772:	bf00      	nop
 8006774:	3710      	adds	r7, #16
 8006776:	46bd      	mov	sp, r7
 8006778:	bd80      	pop	{r7, pc}
	...

0800677c <HAL_TIM_OC_ConfigChannel>:
 800677c:	b580      	push	{r7, lr}
 800677e:	b086      	sub	sp, #24
 8006780:	af00      	add	r7, sp, #0
 8006782:	60f8      	str	r0, [r7, #12]
 8006784:	60b9      	str	r1, [r7, #8]
 8006786:	607a      	str	r2, [r7, #4]
 8006788:	2300      	movs	r3, #0
 800678a:	75fb      	strb	r3, [r7, #23]
 800678c:	68fb      	ldr	r3, [r7, #12]
 800678e:	f893 303c 	ldrb.w	r3, [r3, #60]	@ 0x3c
 8006792:	2b01      	cmp	r3, #1
 8006794:	d101      	bne.n	800679a <HAL_TIM_OC_ConfigChannel+0x1e>
 8006796:	2302      	movs	r3, #2
 8006798:	e066      	b.n	8006868 <HAL_TIM_OC_ConfigChannel+0xec>
 800679a:	68fb      	ldr	r3, [r7, #12]
 800679c:	2201      	movs	r2, #1
 800679e:	f883 203c 	strb.w	r2, [r3, #60]	@ 0x3c
 80067a2:	687b      	ldr	r3, [r7, #4]
 80067a4:	2b14      	cmp	r3, #20
 80067a6:	d857      	bhi.n	8006858 <HAL_TIM_OC_ConfigChannel+0xdc>
 80067a8:	a201      	add	r2, pc, #4	@ (adr r2, 80067b0 <HAL_TIM_OC_ConfigChannel+0x34>)
 80067aa:	f852 f023 	ldr.w	pc, [r2, r3, lsl #2]
 80067ae:	bf00      	nop
 80067b0:	08006805 	.word	0x08006805
 80067b4:	08006859 	.word	0x08006859
 80067b8:	08006859 	.word	0x08006859
 80067bc:	08006859 	.word	0x08006859
 80067c0:	08006813 	.word	0x08006813
 80067c4:	08006859 	.word	0x08006859
 80067c8:	08006859 	.word	0x08006859
 80067cc:	08006859 	.word	0x08006859
 80067d0:	08006821 	.word	0x08006821
 80067d4:	08006859 	.word	0x08006859
 80067d8:	08006859 	.word	0x08006859
 80067dc:	08006859 	.word	0x08006859
 80067e0:	0800682f 	.word	0x0800682f
 80067e4:	08006859 	.word	0x08006859
 80067e8:	08006859 	.word	0x08006859
 80067ec:	08006859 	.word	0x08006859
 80067f0:	0800683d 	.word	0x0800683d
 80067f4:	08006859 	.word	0x08006859
 80067f8:	08006859 	.word	0x08006859
 80067fc:	08006859 	.word	0x08006859
 8006800:	0800684b 	.word	0x0800684b
 8006804:	68fb      	ldr	r3, [r7, #12]
 8006806:	681b      	ldr	r3, [r3, #0]
 8006808:	68b9      	ldr	r1, [r7, #8]
 800680a:	4618      	mov	r0, r3
 800680c:	f000 f9ce 	bl	8006bac <TIM_OC1_SetConfig>
 8006810:	e025      	b.n	800685e <HAL_TIM_OC_ConfigChannel+0xe2>
 8006812:	68fb      	ldr	r3, [r7, #12]
 8006814:	681b      	ldr	r3, [r3, #0]
 8006816:	68b9      	ldr	r1, [r7, #8]
 8006818:	4618      	mov	r0, r3
 800681a:	f000 fa39 	bl	8006c90 <TIM_OC2_SetConfig>
 800681e:	e01e      	b.n	800685e <HAL_TIM_OC_ConfigChannel+0xe2>
 8006820:	68fb      	ldr	r3, [r7, #12]
 8006822:	681b      	ldr	r3, [r3, #0]
 8006824:	68b9      	ldr	r1, [r7, #8]
 8006826:	4618      	mov	r0, r3
 8006828:	f000 faaa 	bl	8006d80 <TIM_OC3_SetConfig>
 800682c:	e017      	b.n	800685e <HAL_TIM_OC_ConfigChannel+0xe2>
 800682e:	68fb      	ldr	r3, [r7, #12]
 8006830:	681b      	ldr	r3, [r3, #0]
 8006832:	68b9      	ldr	r1, [r7, #8]
 8006834:	4618      	mov	r0, r3
 8006836:	f000 fb19 	bl	8006e6c <TIM_OC4_SetConfig>
 800683a:	e010      	b.n	800685e <HAL_TIM_OC_ConfigChannel+0xe2>
 800683c:	68fb      	ldr	r3, [r7, #12]
 800683e:	681b      	ldr	r3, [r3, #0]
 8006840:	68b9      	ldr	r1, [r7, #8]
 8006842:	4618      	mov	r0, r3
 8006844:	f000 fb6a 	bl	8006f1c <TIM_OC5_SetConfig>
 8006848:	e009      	b.n	800685e <HAL_TIM_OC_ConfigChannel+0xe2>
 800684a:	68fb      	ldr	r3, [r7, #12]
 800684c:	681b      	ldr	r3, [r3, #0]
 800684e:	68b9      	ldr	r1, [r7, #8]
 8006850:	4618      	mov	r0, r3
 8006852:	f000 fbb5 	bl	8006fc0 <TIM_OC6_SetConfig>
 8006856:	e002      	b.n	800685e <HAL_TIM_OC_ConfigChannel+0xe2>
 8006858:	2301      	movs	r3, #1
 800685a:	75fb      	strb	r3, [r7, #23]
 800685c:	bf00      	nop
 800685e:	68fb      	ldr	r3, [r7, #12]
 8006860:	2200      	movs	r2, #0
 8006862:	f883 203c 	strb.w	r2, [r3, #60]	@ 0x3c
 8006866:	7dfb      	ldrb	r3, [r7, #23]
 8006868:	4618      	mov	r0, r3
 800686a:	3718      	adds	r7, #24
 800686c:	46bd      	mov	sp, r7
 800686e:	bd80      	pop	{r7, pc}

08006870 <HAL_TIM_ConfigClockSource>:
 8006870:	b580      	push	{r7, lr}
 8006872:	b084      	sub	sp, #16
 8006874:	af00      	add	r7, sp, #0
 8006876:	6078      	str	r0, [r7, #4]
 8006878:	6039      	str	r1, [r7, #0]
 800687a:	2300      	movs	r3, #0
 800687c:	73fb      	strb	r3, [r7, #15]
 800687e:	687b      	ldr	r3, [r7, #4]
 8006880:	f893 303c 	ldrb.w	r3, [r3, #60]	@ 0x3c
 8006884:	2b01      	cmp	r3, #1
 8006886:	d101      	bne.n	800688c <HAL_TIM_ConfigClockSource+0x1c>
 8006888:	2302      	movs	r3, #2
 800688a:	e0b4      	b.n	80069f6 <HAL_TIM_ConfigClockSource+0x186>
 800688c:	687b      	ldr	r3, [r7, #4]
 800688e:	2201      	movs	r2, #1
 8006890:	f883 203c 	strb.w	r2, [r3, #60]	@ 0x3c
 8006894:	687b      	ldr	r3, [r7, #4]
 8006896:	2202      	movs	r2, #2
 8006898:	f883 203d 	strb.w	r2, [r3, #61]	@ 0x3d
 800689c:	687b      	ldr	r3, [r7, #4]
 800689e:	681b      	ldr	r3, [r3, #0]
 80068a0:	689b      	ldr	r3, [r3, #8]
 80068a2:	60bb      	str	r3, [r7, #8]
 80068a4:	68ba      	ldr	r2, [r7, #8]
 80068a6:	4b56      	ldr	r3, [pc, #344]	@ (8006a00 <HAL_TIM_ConfigClockSource+0x190>)
 80068a8:	4013      	ands	r3, r2
 80068aa:	60bb      	str	r3, [r7, #8]
 80068ac:	68bb      	ldr	r3, [r7, #8]
 80068ae:	f423 437f 	bic.w	r3, r3, #65280	@ 0xff00
 80068b2:	60bb      	str	r3, [r7, #8]
 80068b4:	687b      	ldr	r3, [r7, #4]
 80068b6:	681b      	ldr	r3, [r3, #0]
 80068b8:	68ba      	ldr	r2, [r7, #8]
 80068ba:	609a      	str	r2, [r3, #8]
 80068bc:	683b      	ldr	r3, [r7, #0]
 80068be:	681b      	ldr	r3, [r3, #0]
 80068c0:	f5b3 5f00 	cmp.w	r3, #8192	@ 0x2000
 80068c4:	d03e      	beq.n	8006944 <HAL_TIM_ConfigClockSource+0xd4>
 80068c6:	f5b3 5f00 	cmp.w	r3, #8192	@ 0x2000
 80068ca:	f200 8087 	bhi.w	80069dc <HAL_TIM_ConfigClockSource+0x16c>
 80068ce:	f5b3 5f80 	cmp.w	r3, #4096	@ 0x1000
 80068d2:	f000 8086 	beq.w	80069e2 <HAL_TIM_ConfigClockSource+0x172>
 80068d6:	f5b3 5f80 	cmp.w	r3, #4096	@ 0x1000
 80068da:	d87f      	bhi.n	80069dc <HAL_TIM_ConfigClockSource+0x16c>
 80068dc:	2b70      	cmp	r3, #112	@ 0x70
 80068de:	d01a      	beq.n	8006916 <HAL_TIM_ConfigClockSource+0xa6>
 80068e0:	2b70      	cmp	r3, #112	@ 0x70
 80068e2:	d87b      	bhi.n	80069dc <HAL_TIM_ConfigClockSource+0x16c>
 80068e4:	2b60      	cmp	r3, #96	@ 0x60
 80068e6:	d050      	beq.n	800698a <HAL_TIM_ConfigClockSource+0x11a>
 80068e8:	2b60      	cmp	r3, #96	@ 0x60
 80068ea:	d877      	bhi.n	80069dc <HAL_TIM_ConfigClockSource+0x16c>
 80068ec:	2b50      	cmp	r3, #80	@ 0x50
 80068ee:	d03c      	beq.n	800696a <HAL_TIM_ConfigClockSource+0xfa>
 80068f0:	2b50      	cmp	r3, #80	@ 0x50
 80068f2:	d873      	bhi.n	80069dc <HAL_TIM_ConfigClockSource+0x16c>
 80068f4:	2b40      	cmp	r3, #64	@ 0x40
 80068f6:	d058      	beq.n	80069aa <HAL_TIM_ConfigClockSource+0x13a>
 80068f8:	2b40      	cmp	r3, #64	@ 0x40
 80068fa:	d86f      	bhi.n	80069dc <HAL_TIM_ConfigClockSource+0x16c>
 80068fc:	2b30      	cmp	r3, #48	@ 0x30
 80068fe:	d064      	beq.n	80069ca <HAL_TIM_ConfigClockSource+0x15a>
 8006900:	2b30      	cmp	r3, #48	@ 0x30
 8006902:	d86b      	bhi.n	80069dc <HAL_TIM_ConfigClockSource+0x16c>
 8006904:	2b20      	cmp	r3, #32
 8006906:	d060      	beq.n	80069ca <HAL_TIM_ConfigClockSource+0x15a>
 8006908:	2b20      	cmp	r3, #32
 800690a:	d867      	bhi.n	80069dc <HAL_TIM_ConfigClockSource+0x16c>
 800690c:	2b00      	cmp	r3, #0
 800690e:	d05c      	beq.n	80069ca <HAL_TIM_ConfigClockSource+0x15a>
 8006910:	2b10      	cmp	r3, #16
 8006912:	d05a      	beq.n	80069ca <HAL_TIM_ConfigClockSource+0x15a>
 8006914:	e062      	b.n	80069dc <HAL_TIM_ConfigClockSource+0x16c>
 8006916:	687b      	ldr	r3, [r7, #4]
 8006918:	6818      	ldr	r0, [r3, #0]
 800691a:	683b      	ldr	r3, [r7, #0]
 800691c:	6899      	ldr	r1, [r3, #8]
 800691e:	683b      	ldr	r3, [r7, #0]
 8006920:	685a      	ldr	r2, [r3, #4]
 8006922:	683b      	ldr	r3, [r7, #0]
 8006924:	68db      	ldr	r3, [r3, #12]
 8006926:	f000 fc19 	bl	800715c <TIM_ETR_SetConfig>
 800692a:	687b      	ldr	r3, [r7, #4]
 800692c:	681b      	ldr	r3, [r3, #0]
 800692e:	689b      	ldr	r3, [r3, #8]
 8006930:	60bb      	str	r3, [r7, #8]
 8006932:	68bb      	ldr	r3, [r7, #8]
 8006934:	f043 0377 	orr.w	r3, r3, #119	@ 0x77
 8006938:	60bb      	str	r3, [r7, #8]
 800693a:	687b      	ldr	r3, [r7, #4]
 800693c:	681b      	ldr	r3, [r3, #0]
 800693e:	68ba      	ldr	r2, [r7, #8]
 8006940:	609a      	str	r2, [r3, #8]
 8006942:	e04f      	b.n	80069e4 <HAL_TIM_ConfigClockSource+0x174>
 8006944:	687b      	ldr	r3, [r7, #4]
 8006946:	6818      	ldr	r0, [r3, #0]
 8006948:	683b      	ldr	r3, [r7, #0]
 800694a:	6899      	ldr	r1, [r3, #8]
 800694c:	683b      	ldr	r3, [r7, #0]
 800694e:	685a      	ldr	r2, [r3, #4]
 8006950:	683b      	ldr	r3, [r7, #0]
 8006952:	68db      	ldr	r3, [r3, #12]
 8006954:	f000 fc02 	bl	800715c <TIM_ETR_SetConfig>
 8006958:	687b      	ldr	r3, [r7, #4]
 800695a:	681b      	ldr	r3, [r3, #0]
 800695c:	689a      	ldr	r2, [r3, #8]
 800695e:	687b      	ldr	r3, [r7, #4]
 8006960:	681b      	ldr	r3, [r3, #0]
 8006962:	f442 4280 	orr.w	r2, r2, #16384	@ 0x4000
 8006966:	609a      	str	r2, [r3, #8]
 8006968:	e03c      	b.n	80069e4 <HAL_TIM_ConfigClockSource+0x174>
 800696a:	687b      	ldr	r3, [r7, #4]
 800696c:	6818      	ldr	r0, [r3, #0]
 800696e:	683b      	ldr	r3, [r7, #0]
 8006970:	6859      	ldr	r1, [r3, #4]
 8006972:	683b      	ldr	r3, [r7, #0]
 8006974:	68db      	ldr	r3, [r3, #12]
 8006976:	461a      	mov	r2, r3
 8006978:	f000 fb76 	bl	8007068 <TIM_TI1_ConfigInputStage>
 800697c:	687b      	ldr	r3, [r7, #4]
 800697e:	681b      	ldr	r3, [r3, #0]
 8006980:	2150      	movs	r1, #80	@ 0x50
 8006982:	4618      	mov	r0, r3
 8006984:	f000 fbcf 	bl	8007126 <TIM_ITRx_SetConfig>
 8006988:	e02c      	b.n	80069e4 <HAL_TIM_ConfigClockSource+0x174>
 800698a:	687b      	ldr	r3, [r7, #4]
 800698c:	6818      	ldr	r0, [r3, #0]
 800698e:	683b      	ldr	r3, [r7, #0]
 8006990:	6859      	ldr	r1, [r3, #4]
 8006992:	683b      	ldr	r3, [r7, #0]
 8006994:	68db      	ldr	r3, [r3, #12]
 8006996:	461a      	mov	r2, r3
 8006998:	f000 fb95 	bl	80070c6 <TIM_TI2_ConfigInputStage>
 800699c:	687b      	ldr	r3, [r7, #4]
 800699e:	681b      	ldr	r3, [r3, #0]
 80069a0:	2160      	movs	r1, #96	@ 0x60
 80069a2:	4618      	mov	r0, r3
 80069a4:	f000 fbbf 	bl	8007126 <TIM_ITRx_SetConfig>
 80069a8:	e01c      	b.n	80069e4 <HAL_TIM_ConfigClockSource+0x174>
 80069aa:	687b      	ldr	r3, [r7, #4]
 80069ac:	6818      	ldr	r0, [r3, #0]
 80069ae:	683b      	ldr	r3, [r7, #0]
 80069b0:	6859      	ldr	r1, [r3, #4]
 80069b2:	683b      	ldr	r3, [r7, #0]
 80069b4:	68db      	ldr	r3, [r3, #12]
 80069b6:	461a      	mov	r2, r3
 80069b8:	f000 fb56 	bl	8007068 <TIM_TI1_ConfigInputStage>
 80069bc:	687b      	ldr	r3, [r7, #4]
 80069be:	681b      	ldr	r3, [r3, #0]
 80069c0:	2140      	movs	r1, #64	@ 0x40
 80069c2:	4618      	mov	r0, r3
 80069c4:	f000 fbaf 	bl	8007126 <TIM_ITRx_SetConfig>
 80069c8:	e00c      	b.n	80069e4 <HAL_TIM_ConfigClockSource+0x174>
 80069ca:	687b      	ldr	r3, [r7, #4]
 80069cc:	681a      	ldr	r2, [r3, #0]
 80069ce:	683b      	ldr	r3, [r7, #0]
 80069d0:	681b      	ldr	r3, [r3, #0]
 80069d2:	4619      	mov	r1, r3
 80069d4:	4610      	mov	r0, r2
 80069d6:	f000 fba6 	bl	8007126 <TIM_ITRx_SetConfig>
 80069da:	e003      	b.n	80069e4 <HAL_TIM_ConfigClockSource+0x174>
 80069dc:	2301      	movs	r3, #1
 80069de:	73fb      	strb	r3, [r7, #15]
 80069e0:	e000      	b.n	80069e4 <HAL_TIM_ConfigClockSource+0x174>
 80069e2:	bf00      	nop
 80069e4:	687b      	ldr	r3, [r7, #4]
 80069e6:	2201      	movs	r2, #1
 80069e8:	f883 203d 	strb.w	r2, [r3, #61]	@ 0x3d
 80069ec:	687b      	ldr	r3, [r7, #4]
 80069ee:	2200      	movs	r2, #0
 80069f0:	f883 203c 	strb.w	r2, [r3, #60]	@ 0x3c
 80069f4:	7bfb      	ldrb	r3, [r7, #15]
 80069f6:	4618      	mov	r0, r3
 80069f8:	3710      	adds	r7, #16
 80069fa:	46bd      	mov	sp, r7
 80069fc:	bd80      	pop	{r7, pc}
 80069fe:	bf00      	nop
 8006a00:	fffeff88 	.word	0xfffeff88

08006a04 <HAL_TIM_OC_DelayElapsedCallback>:
 8006a04:	b480      	push	{r7}
 8006a06:	b083      	sub	sp, #12
 8006a08:	af00      	add	r7, sp, #0
 8006a0a:	6078      	str	r0, [r7, #4]
 8006a0c:	bf00      	nop
 8006a0e:	370c      	adds	r7, #12
 8006a10:	46bd      	mov	sp, r7
 8006a12:	f85d 7b04 	ldr.w	r7, [sp], #4
 8006a16:	4770      	bx	lr

08006a18 <HAL_TIM_IC_CaptureCallback>:
 8006a18:	b480      	push	{r7}
 8006a1a:	b083      	sub	sp, #12
 8006a1c:	af00      	add	r7, sp, #0
 8006a1e:	6078      	str	r0, [r7, #4]
 8006a20:	bf00      	nop
 8006a22:	370c      	adds	r7, #12
 8006a24:	46bd      	mov	sp, r7
 8006a26:	f85d 7b04 	ldr.w	r7, [sp], #4
 8006a2a:	4770      	bx	lr

08006a2c <HAL_TIM_PWM_PulseFinishedCallback>:
 8006a2c:	b480      	push	{r7}
 8006a2e:	b083      	sub	sp, #12
 8006a30:	af00      	add	r7, sp, #0
 8006a32:	6078      	str	r0, [r7, #4]
 8006a34:	bf00      	nop
 8006a36:	370c      	adds	r7, #12
 8006a38:	46bd      	mov	sp, r7
 8006a3a:	f85d 7b04 	ldr.w	r7, [sp], #4
 8006a3e:	4770      	bx	lr

08006a40 <HAL_TIM_TriggerCallback>:
 8006a40:	b480      	push	{r7}
 8006a42:	b083      	sub	sp, #12
 8006a44:	af00      	add	r7, sp, #0
 8006a46:	6078      	str	r0, [r7, #4]
 8006a48:	bf00      	nop
 8006a4a:	370c      	adds	r7, #12
 8006a4c:	46bd      	mov	sp, r7
 8006a4e:	f85d 7b04 	ldr.w	r7, [sp], #4
 8006a52:	4770      	bx	lr

08006a54 <TIM_Base_SetConfig>:
 8006a54:	b480      	push	{r7}
 8006a56:	b085      	sub	sp, #20
 8006a58:	af00      	add	r7, sp, #0
 8006a5a:	6078      	str	r0, [r7, #4]
 8006a5c:	6039      	str	r1, [r7, #0]
 8006a5e:	687b      	ldr	r3, [r7, #4]
 8006a60:	681b      	ldr	r3, [r3, #0]
 8006a62:	60fb      	str	r3, [r7, #12]
 8006a64:	687b      	ldr	r3, [r7, #4]
 8006a66:	4a46      	ldr	r2, [pc, #280]	@ (8006b80 <TIM_Base_SetConfig+0x12c>)
 8006a68:	4293      	cmp	r3, r2
 8006a6a:	d013      	beq.n	8006a94 <TIM_Base_SetConfig+0x40>
 8006a6c:	687b      	ldr	r3, [r7, #4]
 8006a6e:	f1b3 4f80 	cmp.w	r3, #1073741824	@ 0x40000000
 8006a72:	d00f      	beq.n	8006a94 <TIM_Base_SetConfig+0x40>
 8006a74:	687b      	ldr	r3, [r7, #4]
 8006a76:	4a43      	ldr	r2, [pc, #268]	@ (8006b84 <TIM_Base_SetConfig+0x130>)
 8006a78:	4293      	cmp	r3, r2
 8006a7a:	d00b      	beq.n	8006a94 <TIM_Base_SetConfig+0x40>
 8006a7c:	687b      	ldr	r3, [r7, #4]
 8006a7e:	4a42      	ldr	r2, [pc, #264]	@ (8006b88 <TIM_Base_SetConfig+0x134>)
 8006a80:	4293      	cmp	r3, r2
 8006a82:	d007      	beq.n	8006a94 <TIM_Base_SetConfig+0x40>
 8006a84:	687b      	ldr	r3, [r7, #4]
 8006a86:	4a41      	ldr	r2, [pc, #260]	@ (8006b8c <TIM_Base_SetConfig+0x138>)
 8006a88:	4293      	cmp	r3, r2
 8006a8a:	d003      	beq.n	8006a94 <TIM_Base_SetConfig+0x40>
 8006a8c:	687b      	ldr	r3, [r7, #4]
 8006a8e:	4a40      	ldr	r2, [pc, #256]	@ (8006b90 <TIM_Base_SetConfig+0x13c>)
 8006a90:	4293      	cmp	r3, r2
 8006a92:	d108      	bne.n	8006aa6 <TIM_Base_SetConfig+0x52>
 8006a94:	68fb      	ldr	r3, [r7, #12]
 8006a96:	f023 0370 	bic.w	r3, r3, #112	@ 0x70
 8006a9a:	60fb      	str	r3, [r7, #12]
 8006a9c:	683b      	ldr	r3, [r7, #0]
 8006a9e:	685b      	ldr	r3, [r3, #4]
 8006aa0:	68fa      	ldr	r2, [r7, #12]
 8006aa2:	4313      	orrs	r3, r2
 8006aa4:	60fb      	str	r3, [r7, #12]
 8006aa6:	687b      	ldr	r3, [r7, #4]
 8006aa8:	4a35      	ldr	r2, [pc, #212]	@ (8006b80 <TIM_Base_SetConfig+0x12c>)
 8006aaa:	4293      	cmp	r3, r2
 8006aac:	d02b      	beq.n	8006b06 <TIM_Base_SetConfig+0xb2>
 8006aae:	687b      	ldr	r3, [r7, #4]
 8006ab0:	f1b3 4f80 	cmp.w	r3, #1073741824	@ 0x40000000
 8006ab4:	d027      	beq.n	8006b06 <TIM_Base_SetConfig+0xb2>
 8006ab6:	687b      	ldr	r3, [r7, #4]
 8006ab8:	4a32      	ldr	r2, [pc, #200]	@ (8006b84 <TIM_Base_SetConfig+0x130>)
 8006aba:	4293      	cmp	r3, r2
 8006abc:	d023      	beq.n	8006b06 <TIM_Base_SetConfig+0xb2>
 8006abe:	687b      	ldr	r3, [r7, #4]
 8006ac0:	4a31      	ldr	r2, [pc, #196]	@ (8006b88 <TIM_Base_SetConfig+0x134>)
 8006ac2:	4293      	cmp	r3, r2
 8006ac4:	d01f      	beq.n	8006b06 <TIM_Base_SetConfig+0xb2>
 8006ac6:	687b      	ldr	r3, [r7, #4]
 8006ac8:	4a30      	ldr	r2, [pc, #192]	@ (8006b8c <TIM_Base_SetConfig+0x138>)
 8006aca:	4293      	cmp	r3, r2
 8006acc:	d01b      	beq.n	8006b06 <TIM_Base_SetConfig+0xb2>
 8006ace:	687b      	ldr	r3, [r7, #4]
 8006ad0:	4a2f      	ldr	r2, [pc, #188]	@ (8006b90 <TIM_Base_SetConfig+0x13c>)
 8006ad2:	4293      	cmp	r3, r2
 8006ad4:	d017      	beq.n	8006b06 <TIM_Base_SetConfig+0xb2>
 8006ad6:	687b      	ldr	r3, [r7, #4]
 8006ad8:	4a2e      	ldr	r2, [pc, #184]	@ (8006b94 <TIM_Base_SetConfig+0x140>)
 8006ada:	4293      	cmp	r3, r2
 8006adc:	d013      	beq.n	8006b06 <TIM_Base_SetConfig+0xb2>
 8006ade:	687b      	ldr	r3, [r7, #4]
 8006ae0:	4a2d      	ldr	r2, [pc, #180]	@ (8006b98 <TIM_Base_SetConfig+0x144>)
 8006ae2:	4293      	cmp	r3, r2
 8006ae4:	d00f      	beq.n	8006b06 <TIM_Base_SetConfig+0xb2>
 8006ae6:	687b      	ldr	r3, [r7, #4]
 8006ae8:	4a2c      	ldr	r2, [pc, #176]	@ (8006b9c <TIM_Base_SetConfig+0x148>)
 8006aea:	4293      	cmp	r3, r2
 8006aec:	d00b      	beq.n	8006b06 <TIM_Base_SetConfig+0xb2>
 8006aee:	687b      	ldr	r3, [r7, #4]
 8006af0:	4a2b      	ldr	r2, [pc, #172]	@ (8006ba0 <TIM_Base_SetConfig+0x14c>)
 8006af2:	4293      	cmp	r3, r2
 8006af4:	d007      	beq.n	8006b06 <TIM_Base_SetConfig+0xb2>
 8006af6:	687b      	ldr	r3, [r7, #4]
 8006af8:	4a2a      	ldr	r2, [pc, #168]	@ (8006ba4 <TIM_Base_SetConfig+0x150>)
 8006afa:	4293      	cmp	r3, r2
 8006afc:	d003      	beq.n	8006b06 <TIM_Base_SetConfig+0xb2>
 8006afe:	687b      	ldr	r3, [r7, #4]
 8006b00:	4a29      	ldr	r2, [pc, #164]	@ (8006ba8 <TIM_Base_SetConfig+0x154>)
 8006b02:	4293      	cmp	r3, r2
 8006b04:	d108      	bne.n	8006b18 <TIM_Base_SetConfig+0xc4>
 8006b06:	68fb      	ldr	r3, [r7, #12]
 8006b08:	f423 7340 	bic.w	r3, r3, #768	@ 0x300
 8006b0c:	60fb      	str	r3, [r7, #12]
 8006b0e:	683b      	ldr	r3, [r7, #0]
 8006b10:	68db      	ldr	r3, [r3, #12]
 8006b12:	68fa      	ldr	r2, [r7, #12]
 8006b14:	4313      	orrs	r3, r2
 8006b16:	60fb      	str	r3, [r7, #12]
 8006b18:	68fb      	ldr	r3, [r7, #12]
 8006b1a:	f023 0280 	bic.w	r2, r3, #128	@ 0x80
 8006b1e:	683b      	ldr	r3, [r7, #0]
 8006b20:	695b      	ldr	r3, [r3, #20]
 8006b22:	4313      	orrs	r3, r2
 8006b24:	60fb      	str	r3, [r7, #12]
 8006b26:	687b      	ldr	r3, [r7, #4]
 8006b28:	68fa      	ldr	r2, [r7, #12]
 8006b2a:	601a      	str	r2, [r3, #0]
 8006b2c:	683b      	ldr	r3, [r7, #0]
 8006b2e:	689a      	ldr	r2, [r3, #8]
 8006b30:	687b      	ldr	r3, [r7, #4]
 8006b32:	62da      	str	r2, [r3, #44]	@ 0x2c
 8006b34:	683b      	ldr	r3, [r7, #0]
 8006b36:	681a      	ldr	r2, [r3, #0]
 8006b38:	687b      	ldr	r3, [r7, #4]
 8006b3a:	629a      	str	r2, [r3, #40]	@ 0x28
 8006b3c:	687b      	ldr	r3, [r7, #4]
 8006b3e:	4a10      	ldr	r2, [pc, #64]	@ (8006b80 <TIM_Base_SetConfig+0x12c>)
 8006b40:	4293      	cmp	r3, r2
 8006b42:	d003      	beq.n	8006b4c <TIM_Base_SetConfig+0xf8>
 8006b44:	687b      	ldr	r3, [r7, #4]
 8006b46:	4a12      	ldr	r2, [pc, #72]	@ (8006b90 <TIM_Base_SetConfig+0x13c>)
 8006b48:	4293      	cmp	r3, r2
 8006b4a:	d103      	bne.n	8006b54 <TIM_Base_SetConfig+0x100>
 8006b4c:	683b      	ldr	r3, [r7, #0]
 8006b4e:	691a      	ldr	r2, [r3, #16]
 8006b50:	687b      	ldr	r3, [r7, #4]
 8006b52:	631a      	str	r2, [r3, #48]	@ 0x30
 8006b54:	687b      	ldr	r3, [r7, #4]
 8006b56:	2201      	movs	r2, #1
 8006b58:	615a      	str	r2, [r3, #20]
 8006b5a:	687b      	ldr	r3, [r7, #4]
 8006b5c:	691b      	ldr	r3, [r3, #16]
 8006b5e:	f003 0301 	and.w	r3, r3, #1
 8006b62:	2b01      	cmp	r3, #1
 8006b64:	d105      	bne.n	8006b72 <TIM_Base_SetConfig+0x11e>
 8006b66:	687b      	ldr	r3, [r7, #4]
 8006b68:	691b      	ldr	r3, [r3, #16]
 8006b6a:	f023 0201 	bic.w	r2, r3, #1
 8006b6e:	687b      	ldr	r3, [r7, #4]
 8006b70:	611a      	str	r2, [r3, #16]
 8006b72:	bf00      	nop
 8006b74:	3714      	adds	r7, #20
 8006b76:	46bd      	mov	sp, r7
 8006b78:	f85d 7b04 	ldr.w	r7, [sp], #4
 8006b7c:	4770      	bx	lr
 8006b7e:	bf00      	nop
 8006b80:	40010000 	.word	0x40010000
 8006b84:	40000400 	.word	0x40000400
 8006b88:	40000800 	.word	0x40000800
 8006b8c:	40000c00 	.word	0x40000c00
 8006b90:	40010400 	.word	0x40010400
 8006b94:	40014000 	.word	0x40014000
 8006b98:	40014400 	.word	0x40014400
 8006b9c:	40014800 	.word	0x40014800
 8006ba0:	40001800 	.word	0x40001800
 8006ba4:	40001c00 	.word	0x40001c00
 8006ba8:	40002000 	.word	0x40002000

08006bac <TIM_OC1_SetConfig>:
 8006bac:	b480      	push	{r7}
 8006bae:	b087      	sub	sp, #28
 8006bb0:	af00      	add	r7, sp, #0
 8006bb2:	6078      	str	r0, [r7, #4]
 8006bb4:	6039      	str	r1, [r7, #0]
 8006bb6:	687b      	ldr	r3, [r7, #4]
 8006bb8:	6a1b      	ldr	r3, [r3, #32]
 8006bba:	617b      	str	r3, [r7, #20]
 8006bbc:	687b      	ldr	r3, [r7, #4]
 8006bbe:	6a1b      	ldr	r3, [r3, #32]
 8006bc0:	f023 0201 	bic.w	r2, r3, #1
 8006bc4:	687b      	ldr	r3, [r7, #4]
 8006bc6:	621a      	str	r2, [r3, #32]
 8006bc8:	687b      	ldr	r3, [r7, #4]
 8006bca:	685b      	ldr	r3, [r3, #4]
 8006bcc:	613b      	str	r3, [r7, #16]
 8006bce:	687b      	ldr	r3, [r7, #4]
 8006bd0:	699b      	ldr	r3, [r3, #24]
 8006bd2:	60fb      	str	r3, [r7, #12]
 8006bd4:	68fa      	ldr	r2, [r7, #12]
 8006bd6:	4b2b      	ldr	r3, [pc, #172]	@ (8006c84 <TIM_OC1_SetConfig+0xd8>)
 8006bd8:	4013      	ands	r3, r2
 8006bda:	60fb      	str	r3, [r7, #12]
 8006bdc:	68fb      	ldr	r3, [r7, #12]
 8006bde:	f023 0303 	bic.w	r3, r3, #3
 8006be2:	60fb      	str	r3, [r7, #12]
 8006be4:	683b      	ldr	r3, [r7, #0]
 8006be6:	681b      	ldr	r3, [r3, #0]
 8006be8:	68fa      	ldr	r2, [r7, #12]
 8006bea:	4313      	orrs	r3, r2
 8006bec:	60fb      	str	r3, [r7, #12]
 8006bee:	697b      	ldr	r3, [r7, #20]
 8006bf0:	f023 0302 	bic.w	r3, r3, #2
 8006bf4:	617b      	str	r3, [r7, #20]
 8006bf6:	683b      	ldr	r3, [r7, #0]
 8006bf8:	689b      	ldr	r3, [r3, #8]
 8006bfa:	697a      	ldr	r2, [r7, #20]
 8006bfc:	4313      	orrs	r3, r2
 8006bfe:	617b      	str	r3, [r7, #20]
 8006c00:	687b      	ldr	r3, [r7, #4]
 8006c02:	4a21      	ldr	r2, [pc, #132]	@ (8006c88 <TIM_OC1_SetConfig+0xdc>)
 8006c04:	4293      	cmp	r3, r2
 8006c06:	d003      	beq.n	8006c10 <TIM_OC1_SetConfig+0x64>
 8006c08:	687b      	ldr	r3, [r7, #4]
 8006c0a:	4a20      	ldr	r2, [pc, #128]	@ (8006c8c <TIM_OC1_SetConfig+0xe0>)
 8006c0c:	4293      	cmp	r3, r2
 8006c0e:	d10c      	bne.n	8006c2a <TIM_OC1_SetConfig+0x7e>
 8006c10:	697b      	ldr	r3, [r7, #20]
 8006c12:	f023 0308 	bic.w	r3, r3, #8
 8006c16:	617b      	str	r3, [r7, #20]
 8006c18:	683b      	ldr	r3, [r7, #0]
 8006c1a:	68db      	ldr	r3, [r3, #12]
 8006c1c:	697a      	ldr	r2, [r7, #20]
 8006c1e:	4313      	orrs	r3, r2
 8006c20:	617b      	str	r3, [r7, #20]
 8006c22:	697b      	ldr	r3, [r7, #20]
 8006c24:	f023 0304 	bic.w	r3, r3, #4
 8006c28:	617b      	str	r3, [r7, #20]
 8006c2a:	687b      	ldr	r3, [r7, #4]
 8006c2c:	4a16      	ldr	r2, [pc, #88]	@ (8006c88 <TIM_OC1_SetConfig+0xdc>)
 8006c2e:	4293      	cmp	r3, r2
 8006c30:	d003      	beq.n	8006c3a <TIM_OC1_SetConfig+0x8e>
 8006c32:	687b      	ldr	r3, [r7, #4]
 8006c34:	4a15      	ldr	r2, [pc, #84]	@ (8006c8c <TIM_OC1_SetConfig+0xe0>)
 8006c36:	4293      	cmp	r3, r2
 8006c38:	d111      	bne.n	8006c5e <TIM_OC1_SetConfig+0xb2>
 8006c3a:	693b      	ldr	r3, [r7, #16]
 8006c3c:	f423 7380 	bic.w	r3, r3, #256	@ 0x100
 8006c40:	613b      	str	r3, [r7, #16]
 8006c42:	693b      	ldr	r3, [r7, #16]
 8006c44:	f423 7300 	bic.w	r3, r3, #512	@ 0x200
 8006c48:	613b      	str	r3, [r7, #16]
 8006c4a:	683b      	ldr	r3, [r7, #0]
 8006c4c:	695b      	ldr	r3, [r3, #20]
 8006c4e:	693a      	ldr	r2, [r7, #16]
 8006c50:	4313      	orrs	r3, r2
 8006c52:	613b      	str	r3, [r7, #16]
 8006c54:	683b      	ldr	r3, [r7, #0]
 8006c56:	699b      	ldr	r3, [r3, #24]
 8006c58:	693a      	ldr	r2, [r7, #16]
 8006c5a:	4313      	orrs	r3, r2
 8006c5c:	613b      	str	r3, [r7, #16]
 8006c5e:	687b      	ldr	r3, [r7, #4]
 8006c60:	693a      	ldr	r2, [r7, #16]
 8006c62:	605a      	str	r2, [r3, #4]
 8006c64:	687b      	ldr	r3, [r7, #4]
 8006c66:	68fa      	ldr	r2, [r7, #12]
 8006c68:	619a      	str	r2, [r3, #24]
 8006c6a:	683b      	ldr	r3, [r7, #0]
 8006c6c:	685a      	ldr	r2, [r3, #4]
 8006c6e:	687b      	ldr	r3, [r7, #4]
 8006c70:	635a      	str	r2, [r3, #52]	@ 0x34
 8006c72:	687b      	ldr	r3, [r7, #4]
 8006c74:	697a      	ldr	r2, [r7, #20]
 8006c76:	621a      	str	r2, [r3, #32]
 8006c78:	bf00      	nop
 8006c7a:	371c      	adds	r7, #28
 8006c7c:	46bd      	mov	sp, r7
 8006c7e:	f85d 7b04 	ldr.w	r7, [sp], #4
 8006c82:	4770      	bx	lr
 8006c84:	fffeff8f 	.word	0xfffeff8f
 8006c88:	40010000 	.word	0x40010000
 8006c8c:	40010400 	.word	0x40010400

08006c90 <TIM_OC2_SetConfig>:
 8006c90:	b480      	push	{r7}
 8006c92:	b087      	sub	sp, #28
 8006c94:	af00      	add	r7, sp, #0
 8006c96:	6078      	str	r0, [r7, #4]
 8006c98:	6039      	str	r1, [r7, #0]
 8006c9a:	687b      	ldr	r3, [r7, #4]
 8006c9c:	6a1b      	ldr	r3, [r3, #32]
 8006c9e:	617b      	str	r3, [r7, #20]
 8006ca0:	687b      	ldr	r3, [r7, #4]
 8006ca2:	6a1b      	ldr	r3, [r3, #32]
 8006ca4:	f023 0210 	bic.w	r2, r3, #16
 8006ca8:	687b      	ldr	r3, [r7, #4]
 8006caa:	621a      	str	r2, [r3, #32]
 8006cac:	687b      	ldr	r3, [r7, #4]
 8006cae:	685b      	ldr	r3, [r3, #4]
 8006cb0:	613b      	str	r3, [r7, #16]
 8006cb2:	687b      	ldr	r3, [r7, #4]
 8006cb4:	699b      	ldr	r3, [r3, #24]
 8006cb6:	60fb      	str	r3, [r7, #12]
 8006cb8:	68fa      	ldr	r2, [r7, #12]
 8006cba:	4b2e      	ldr	r3, [pc, #184]	@ (8006d74 <TIM_OC2_SetConfig+0xe4>)
 8006cbc:	4013      	ands	r3, r2
 8006cbe:	60fb      	str	r3, [r7, #12]
 8006cc0:	68fb      	ldr	r3, [r7, #12]
 8006cc2:	f423 7340 	bic.w	r3, r3, #768	@ 0x300
 8006cc6:	60fb      	str	r3, [r7, #12]
 8006cc8:	683b      	ldr	r3, [r7, #0]
 8006cca:	681b      	ldr	r3, [r3, #0]
 8006ccc:	021b      	lsls	r3, r3, #8
 8006cce:	68fa      	ldr	r2, [r7, #12]
 8006cd0:	4313      	orrs	r3, r2
 8006cd2:	60fb      	str	r3, [r7, #12]
 8006cd4:	697b      	ldr	r3, [r7, #20]
 8006cd6:	f023 0320 	bic.w	r3, r3, #32
 8006cda:	617b      	str	r3, [r7, #20]
 8006cdc:	683b      	ldr	r3, [r7, #0]
 8006cde:	689b      	ldr	r3, [r3, #8]
 8006ce0:	011b      	lsls	r3, r3, #4
 8006ce2:	697a      	ldr	r2, [r7, #20]
 8006ce4:	4313      	orrs	r3, r2
 8006ce6:	617b      	str	r3, [r7, #20]
 8006ce8:	687b      	ldr	r3, [r7, #4]
 8006cea:	4a23      	ldr	r2, [pc, #140]	@ (8006d78 <TIM_OC2_SetConfig+0xe8>)
 8006cec:	4293      	cmp	r3, r2
 8006cee:	d003      	beq.n	8006cf8 <TIM_OC2_SetConfig+0x68>
 8006cf0:	687b      	ldr	r3, [r7, #4]
 8006cf2:	4a22      	ldr	r2, [pc, #136]	@ (8006d7c <TIM_OC2_SetConfig+0xec>)
 8006cf4:	4293      	cmp	r3, r2
 8006cf6:	d10d      	bne.n	8006d14 <TIM_OC2_SetConfig+0x84>
 8006cf8:	697b      	ldr	r3, [r7, #20]
 8006cfa:	f023 0380 	bic.w	r3, r3, #128	@ 0x80
 8006cfe:	617b      	str	r3, [r7, #20]
 8006d00:	683b      	ldr	r3, [r7, #0]
 8006d02:	68db      	ldr	r3, [r3, #12]
 8006d04:	011b      	lsls	r3, r3, #4
 8006d06:	697a      	ldr	r2, [r7, #20]
 8006d08:	4313      	orrs	r3, r2
 8006d0a:	617b      	str	r3, [r7, #20]
 8006d0c:	697b      	ldr	r3, [r7, #20]
 8006d0e:	f023 0340 	bic.w	r3, r3, #64	@ 0x40
 8006d12:	617b      	str	r3, [r7, #20]
 8006d14:	687b      	ldr	r3, [r7, #4]
 8006d16:	4a18      	ldr	r2, [pc, #96]	@ (8006d78 <TIM_OC2_SetConfig+0xe8>)
 8006d18:	4293      	cmp	r3, r2
 8006d1a:	d003      	beq.n	8006d24 <TIM_OC2_SetConfig+0x94>
 8006d1c:	687b      	ldr	r3, [r7, #4]
 8006d1e:	4a17      	ldr	r2, [pc, #92]	@ (8006d7c <TIM_OC2_SetConfig+0xec>)
 8006d20:	4293      	cmp	r3, r2
 8006d22:	d113      	bne.n	8006d4c <TIM_OC2_SetConfig+0xbc>
 8006d24:	693b      	ldr	r3, [r7, #16]
 8006d26:	f423 6380 	bic.w	r3, r3, #1024	@ 0x400
 8006d2a:	613b      	str	r3, [r7, #16]
 8006d2c:	693b      	ldr	r3, [r7, #16]
 8006d2e:	f423 6300 	bic.w	r3, r3, #2048	@ 0x800
 8006d32:	613b      	str	r3, [r7, #16]
 8006d34:	683b      	ldr	r3, [r7, #0]
 8006d36:	695b      	ldr	r3, [r3, #20]
 8006d38:	009b      	lsls	r3, r3, #2
 8006d3a:	693a      	ldr	r2, [r7, #16]
 8006d3c:	4313      	orrs	r3, r2
 8006d3e:	613b      	str	r3, [r7, #16]
 8006d40:	683b      	ldr	r3, [r7, #0]
 8006d42:	699b      	ldr	r3, [r3, #24]
 8006d44:	009b      	lsls	r3, r3, #2
 8006d46:	693a      	ldr	r2, [r7, #16]
 8006d48:	4313      	orrs	r3, r2
 8006d4a:	613b      	str	r3, [r7, #16]
 8006d4c:	687b      	ldr	r3, [r7, #4]
 8006d4e:	693a      	ldr	r2, [r7, #16]
 8006d50:	605a      	str	r2, [r3, #4]
 8006d52:	687b      	ldr	r3, [r7, #4]
 8006d54:	68fa      	ldr	r2, [r7, #12]
 8006d56:	619a      	str	r2, [r3, #24]
 8006d58:	683b      	ldr	r3, [r7, #0]
 8006d5a:	685a      	ldr	r2, [r3, #4]
 8006d5c:	687b      	ldr	r3, [r7, #4]
 8006d5e:	639a      	str	r2, [r3, #56]	@ 0x38
 8006d60:	687b      	ldr	r3, [r7, #4]
 8006d62:	697a      	ldr	r2, [r7, #20]
 8006d64:	621a      	str	r2, [r3, #32]
 8006d66:	bf00      	nop
 8006d68:	371c      	adds	r7, #28
 8006d6a:	46bd      	mov	sp, r7
 8006d6c:	f85d 7b04 	ldr.w	r7, [sp], #4
 8006d70:	4770      	bx	lr
 8006d72:	bf00      	nop
 8006d74:	feff8fff 	.word	0xfeff8fff
 8006d78:	40010000 	.word	0x40010000
 8006d7c:	40010400 	.word	0x40010400

08006d80 <TIM_OC3_SetConfig>:
 8006d80:	b480      	push	{r7}
 8006d82:	b087      	sub	sp, #28
 8006d84:	af00      	add	r7, sp, #0
 8006d86:	6078      	str	r0, [r7, #4]
 8006d88:	6039      	str	r1, [r7, #0]
 8006d8a:	687b      	ldr	r3, [r7, #4]
 8006d8c:	6a1b      	ldr	r3, [r3, #32]
 8006d8e:	617b      	str	r3, [r7, #20]
 8006d90:	687b      	ldr	r3, [r7, #4]
 8006d92:	6a1b      	ldr	r3, [r3, #32]
 8006d94:	f423 7280 	bic.w	r2, r3, #256	@ 0x100
 8006d98:	687b      	ldr	r3, [r7, #4]
 8006d9a:	621a      	str	r2, [r3, #32]
 8006d9c:	687b      	ldr	r3, [r7, #4]
 8006d9e:	685b      	ldr	r3, [r3, #4]
 8006da0:	613b      	str	r3, [r7, #16]
 8006da2:	687b      	ldr	r3, [r7, #4]
 8006da4:	69db      	ldr	r3, [r3, #28]
 8006da6:	60fb      	str	r3, [r7, #12]
 8006da8:	68fa      	ldr	r2, [r7, #12]
 8006daa:	4b2d      	ldr	r3, [pc, #180]	@ (8006e60 <TIM_OC3_SetConfig+0xe0>)
 8006dac:	4013      	ands	r3, r2
 8006dae:	60fb      	str	r3, [r7, #12]
 8006db0:	68fb      	ldr	r3, [r7, #12]
 8006db2:	f023 0303 	bic.w	r3, r3, #3
 8006db6:	60fb      	str	r3, [r7, #12]
 8006db8:	683b      	ldr	r3, [r7, #0]
 8006dba:	681b      	ldr	r3, [r3, #0]
 8006dbc:	68fa      	ldr	r2, [r7, #12]
 8006dbe:	4313      	orrs	r3, r2
 8006dc0:	60fb      	str	r3, [r7, #12]
 8006dc2:	697b      	ldr	r3, [r7, #20]
 8006dc4:	f423 7300 	bic.w	r3, r3, #512	@ 0x200
 8006dc8:	617b      	str	r3, [r7, #20]
 8006dca:	683b      	ldr	r3, [r7, #0]
 8006dcc:	689b      	ldr	r3, [r3, #8]
 8006dce:	021b      	lsls	r3, r3, #8
 8006dd0:	697a      	ldr	r2, [r7, #20]
 8006dd2:	4313      	orrs	r3, r2
 8006dd4:	617b      	str	r3, [r7, #20]
 8006dd6:	687b      	ldr	r3, [r7, #4]
 8006dd8:	4a22      	ldr	r2, [pc, #136]	@ (8006e64 <TIM_OC3_SetConfig+0xe4>)
 8006dda:	4293      	cmp	r3, r2
 8006ddc:	d003      	beq.n	8006de6 <TIM_OC3_SetConfig+0x66>
 8006dde:	687b      	ldr	r3, [r7, #4]
 8006de0:	4a21      	ldr	r2, [pc, #132]	@ (8006e68 <TIM_OC3_SetConfig+0xe8>)
 8006de2:	4293      	cmp	r3, r2
 8006de4:	d10d      	bne.n	8006e02 <TIM_OC3_SetConfig+0x82>
 8006de6:	697b      	ldr	r3, [r7, #20]
 8006de8:	f423 6300 	bic.w	r3, r3, #2048	@ 0x800
 8006dec:	617b      	str	r3, [r7, #20]
 8006dee:	683b      	ldr	r3, [r7, #0]
 8006df0:	68db      	ldr	r3, [r3, #12]
 8006df2:	021b      	lsls	r3, r3, #8
 8006df4:	697a      	ldr	r2, [r7, #20]
 8006df6:	4313      	orrs	r3, r2
 8006df8:	617b      	str	r3, [r7, #20]
 8006dfa:	697b      	ldr	r3, [r7, #20]
 8006dfc:	f423 6380 	bic.w	r3, r3, #1024	@ 0x400
 8006e00:	617b      	str	r3, [r7, #20]
 8006e02:	687b      	ldr	r3, [r7, #4]
 8006e04:	4a17      	ldr	r2, [pc, #92]	@ (8006e64 <TIM_OC3_SetConfig+0xe4>)
 8006e06:	4293      	cmp	r3, r2
 8006e08:	d003      	beq.n	8006e12 <TIM_OC3_SetConfig+0x92>
 8006e0a:	687b      	ldr	r3, [r7, #4]
 8006e0c:	4a16      	ldr	r2, [pc, #88]	@ (8006e68 <TIM_OC3_SetConfig+0xe8>)
 8006e0e:	4293      	cmp	r3, r2
 8006e10:	d113      	bne.n	8006e3a <TIM_OC3_SetConfig+0xba>
 8006e12:	693b      	ldr	r3, [r7, #16]
 8006e14:	f423 5380 	bic.w	r3, r3, #4096	@ 0x1000
 8006e18:	613b      	str	r3, [r7, #16]
 8006e1a:	693b      	ldr	r3, [r7, #16]
 8006e1c:	f423 5300 	bic.w	r3, r3, #8192	@ 0x2000
 8006e20:	613b      	str	r3, [r7, #16]
 8006e22:	683b      	ldr	r3, [r7, #0]
 8006e24:	695b      	ldr	r3, [r3, #20]
 8006e26:	011b      	lsls	r3, r3, #4
 8006e28:	693a      	ldr	r2, [r7, #16]
 8006e2a:	4313      	orrs	r3, r2
 8006e2c:	613b      	str	r3, [r7, #16]
 8006e2e:	683b      	ldr	r3, [r7, #0]
 8006e30:	699b      	ldr	r3, [r3, #24]
 8006e32:	011b      	lsls	r3, r3, #4
 8006e34:	693a      	ldr	r2, [r7, #16]
 8006e36:	4313      	orrs	r3, r2
 8006e38:	613b      	str	r3, [r7, #16]
 8006e3a:	687b      	ldr	r3, [r7, #4]
 8006e3c:	693a      	ldr	r2, [r7, #16]
 8006e3e:	605a      	str	r2, [r3, #4]
 8006e40:	687b      	ldr	r3, [r7, #4]
 8006e42:	68fa      	ldr	r2, [r7, #12]
 8006e44:	61da      	str	r2, [r3, #28]
 8006e46:	683b      	ldr	r3, [r7, #0]
 8006e48:	685a      	ldr	r2, [r3, #4]
 8006e4a:	687b      	ldr	r3, [r7, #4]
 8006e4c:	63da      	str	r2, [r3, #60]	@ 0x3c
 8006e4e:	687b      	ldr	r3, [r7, #4]
 8006e50:	697a      	ldr	r2, [r7, #20]
 8006e52:	621a      	str	r2, [r3, #32]
 8006e54:	bf00      	nop
 8006e56:	371c      	adds	r7, #28
 8006e58:	46bd      	mov	sp, r7
 8006e5a:	f85d 7b04 	ldr.w	r7, [sp], #4
 8006e5e:	4770      	bx	lr
 8006e60:	fffeff8f 	.word	0xfffeff8f
 8006e64:	40010000 	.word	0x40010000
 8006e68:	40010400 	.word	0x40010400

08006e6c <TIM_OC4_SetConfig>:
 8006e6c:	b480      	push	{r7}
 8006e6e:	b087      	sub	sp, #28
 8006e70:	af00      	add	r7, sp, #0
 8006e72:	6078      	str	r0, [r7, #4]
 8006e74:	6039      	str	r1, [r7, #0]
 8006e76:	687b      	ldr	r3, [r7, #4]
 8006e78:	6a1b      	ldr	r3, [r3, #32]
 8006e7a:	613b      	str	r3, [r7, #16]
 8006e7c:	687b      	ldr	r3, [r7, #4]
 8006e7e:	6a1b      	ldr	r3, [r3, #32]
 8006e80:	f423 5280 	bic.w	r2, r3, #4096	@ 0x1000
 8006e84:	687b      	ldr	r3, [r7, #4]
 8006e86:	621a      	str	r2, [r3, #32]
 8006e88:	687b      	ldr	r3, [r7, #4]
 8006e8a:	685b      	ldr	r3, [r3, #4]
 8006e8c:	617b      	str	r3, [r7, #20]
 8006e8e:	687b      	ldr	r3, [r7, #4]
 8006e90:	69db      	ldr	r3, [r3, #28]
 8006e92:	60fb      	str	r3, [r7, #12]
 8006e94:	68fa      	ldr	r2, [r7, #12]
 8006e96:	4b1e      	ldr	r3, [pc, #120]	@ (8006f10 <TIM_OC4_SetConfig+0xa4>)
 8006e98:	4013      	ands	r3, r2
 8006e9a:	60fb      	str	r3, [r7, #12]
 8006e9c:	68fb      	ldr	r3, [r7, #12]
 8006e9e:	f423 7340 	bic.w	r3, r3, #768	@ 0x300
 8006ea2:	60fb      	str	r3, [r7, #12]
 8006ea4:	683b      	ldr	r3, [r7, #0]
 8006ea6:	681b      	ldr	r3, [r3, #0]
 8006ea8:	021b      	lsls	r3, r3, #8
 8006eaa:	68fa      	ldr	r2, [r7, #12]
 8006eac:	4313      	orrs	r3, r2
 8006eae:	60fb      	str	r3, [r7, #12]
 8006eb0:	693b      	ldr	r3, [r7, #16]
 8006eb2:	f423 5300 	bic.w	r3, r3, #8192	@ 0x2000
 8006eb6:	613b      	str	r3, [r7, #16]
 8006eb8:	683b      	ldr	r3, [r7, #0]
 8006eba:	689b      	ldr	r3, [r3, #8]
 8006ebc:	031b      	lsls	r3, r3, #12
 8006ebe:	693a      	ldr	r2, [r7, #16]
 8006ec0:	4313      	orrs	r3, r2
 8006ec2:	613b      	str	r3, [r7, #16]
 8006ec4:	687b      	ldr	r3, [r7, #4]
 8006ec6:	4a13      	ldr	r2, [pc, #76]	@ (8006f14 <TIM_OC4_SetConfig+0xa8>)
 8006ec8:	4293      	cmp	r3, r2
 8006eca:	d003      	beq.n	8006ed4 <TIM_OC4_SetConfig+0x68>
 8006ecc:	687b      	ldr	r3, [r7, #4]
 8006ece:	4a12      	ldr	r2, [pc, #72]	@ (8006f18 <TIM_OC4_SetConfig+0xac>)
 8006ed0:	4293      	cmp	r3, r2
 8006ed2:	d109      	bne.n	8006ee8 <TIM_OC4_SetConfig+0x7c>
 8006ed4:	697b      	ldr	r3, [r7, #20]
 8006ed6:	f423 4380 	bic.w	r3, r3, #16384	@ 0x4000
 8006eda:	617b      	str	r3, [r7, #20]
 8006edc:	683b      	ldr	r3, [r7, #0]
 8006ede:	695b      	ldr	r3, [r3, #20]
 8006ee0:	019b      	lsls	r3, r3, #6
 8006ee2:	697a      	ldr	r2, [r7, #20]
 8006ee4:	4313      	orrs	r3, r2
 8006ee6:	617b      	str	r3, [r7, #20]
 8006ee8:	687b      	ldr	r3, [r7, #4]
 8006eea:	697a      	ldr	r2, [r7, #20]
 8006eec:	605a      	str	r2, [r3, #4]
 8006eee:	687b      	ldr	r3, [r7, #4]
 8006ef0:	68fa      	ldr	r2, [r7, #12]
 8006ef2:	61da      	str	r2, [r3, #28]
 8006ef4:	683b      	ldr	r3, [r7, #0]
 8006ef6:	685a      	ldr	r2, [r3, #4]
 8006ef8:	687b      	ldr	r3, [r7, #4]
 8006efa:	641a      	str	r2, [r3, #64]	@ 0x40
 8006efc:	687b      	ldr	r3, [r7, #4]
 8006efe:	693a      	ldr	r2, [r7, #16]
 8006f00:	621a      	str	r2, [r3, #32]
 8006f02:	bf00      	nop
 8006f04:	371c      	adds	r7, #28
 8006f06:	46bd      	mov	sp, r7
 8006f08:	f85d 7b04 	ldr.w	r7, [sp], #4
 8006f0c:	4770      	bx	lr
 8006f0e:	bf00      	nop
 8006f10:	feff8fff 	.word	0xfeff8fff
 8006f14:	40010000 	.word	0x40010000
 8006f18:	40010400 	.word	0x40010400

08006f1c <TIM_OC5_SetConfig>:
 8006f1c:	b480      	push	{r7}
 8006f1e:	b087      	sub	sp, #28
 8006f20:	af00      	add	r7, sp, #0
 8006f22:	6078      	str	r0, [r7, #4]
 8006f24:	6039      	str	r1, [r7, #0]
 8006f26:	687b      	ldr	r3, [r7, #4]
 8006f28:	6a1b      	ldr	r3, [r3, #32]
 8006f2a:	613b      	str	r3, [r7, #16]
 8006f2c:	687b      	ldr	r3, [r7, #4]
 8006f2e:	6a1b      	ldr	r3, [r3, #32]
 8006f30:	f423 3280 	bic.w	r2, r3, #65536	@ 0x10000
 8006f34:	687b      	ldr	r3, [r7, #4]
 8006f36:	621a      	str	r2, [r3, #32]
 8006f38:	687b      	ldr	r3, [r7, #4]
 8006f3a:	685b      	ldr	r3, [r3, #4]
 8006f3c:	617b      	str	r3, [r7, #20]
 8006f3e:	687b      	ldr	r3, [r7, #4]
 8006f40:	6d5b      	ldr	r3, [r3, #84]	@ 0x54
 8006f42:	60fb      	str	r3, [r7, #12]
 8006f44:	68fa      	ldr	r2, [r7, #12]
 8006f46:	4b1b      	ldr	r3, [pc, #108]	@ (8006fb4 <TIM_OC5_SetConfig+0x98>)
 8006f48:	4013      	ands	r3, r2
 8006f4a:	60fb      	str	r3, [r7, #12]
 8006f4c:	683b      	ldr	r3, [r7, #0]
 8006f4e:	681b      	ldr	r3, [r3, #0]
 8006f50:	68fa      	ldr	r2, [r7, #12]
 8006f52:	4313      	orrs	r3, r2
 8006f54:	60fb      	str	r3, [r7, #12]
 8006f56:	693b      	ldr	r3, [r7, #16]
 8006f58:	f423 3300 	bic.w	r3, r3, #131072	@ 0x20000
 8006f5c:	613b      	str	r3, [r7, #16]
 8006f5e:	683b      	ldr	r3, [r7, #0]
 8006f60:	689b      	ldr	r3, [r3, #8]
 8006f62:	041b      	lsls	r3, r3, #16
 8006f64:	693a      	ldr	r2, [r7, #16]
 8006f66:	4313      	orrs	r3, r2
 8006f68:	613b      	str	r3, [r7, #16]
 8006f6a:	687b      	ldr	r3, [r7, #4]
 8006f6c:	4a12      	ldr	r2, [pc, #72]	@ (8006fb8 <TIM_OC5_SetConfig+0x9c>)
 8006f6e:	4293      	cmp	r3, r2
 8006f70:	d003      	beq.n	8006f7a <TIM_OC5_SetConfig+0x5e>
 8006f72:	687b      	ldr	r3, [r7, #4]
 8006f74:	4a11      	ldr	r2, [pc, #68]	@ (8006fbc <TIM_OC5_SetConfig+0xa0>)
 8006f76:	4293      	cmp	r3, r2
 8006f78:	d109      	bne.n	8006f8e <TIM_OC5_SetConfig+0x72>
 8006f7a:	697b      	ldr	r3, [r7, #20]
 8006f7c:	f423 3380 	bic.w	r3, r3, #65536	@ 0x10000
 8006f80:	617b      	str	r3, [r7, #20]
 8006f82:	683b      	ldr	r3, [r7, #0]
 8006f84:	695b      	ldr	r3, [r3, #20]
 8006f86:	021b      	lsls	r3, r3, #8
 8006f88:	697a      	ldr	r2, [r7, #20]
 8006f8a:	4313      	orrs	r3, r2
 8006f8c:	617b      	str	r3, [r7, #20]
 8006f8e:	687b      	ldr	r3, [r7, #4]
 8006f90:	697a      	ldr	r2, [r7, #20]
 8006f92:	605a      	str	r2, [r3, #4]
 8006f94:	687b      	ldr	r3, [r7, #4]
 8006f96:	68fa      	ldr	r2, [r7, #12]
 8006f98:	655a      	str	r2, [r3, #84]	@ 0x54
 8006f9a:	683b      	ldr	r3, [r7, #0]
 8006f9c:	685a      	ldr	r2, [r3, #4]
 8006f9e:	687b      	ldr	r3, [r7, #4]
 8006fa0:	659a      	str	r2, [r3, #88]	@ 0x58
 8006fa2:	687b      	ldr	r3, [r7, #4]
 8006fa4:	693a      	ldr	r2, [r7, #16]
 8006fa6:	621a      	str	r2, [r3, #32]
 8006fa8:	bf00      	nop
 8006faa:	371c      	adds	r7, #28
 8006fac:	46bd      	mov	sp, r7
 8006fae:	f85d 7b04 	ldr.w	r7, [sp], #4
 8006fb2:	4770      	bx	lr
 8006fb4:	fffeff8f 	.word	0xfffeff8f
 8006fb8:	40010000 	.word	0x40010000
 8006fbc:	40010400 	.word	0x40010400

08006fc0 <TIM_OC6_SetConfig>:
 8006fc0:	b480      	push	{r7}
 8006fc2:	b087      	sub	sp, #28
 8006fc4:	af00      	add	r7, sp, #0
 8006fc6:	6078      	str	r0, [r7, #4]
 8006fc8:	6039      	str	r1, [r7, #0]
 8006fca:	687b      	ldr	r3, [r7, #4]
 8006fcc:	6a1b      	ldr	r3, [r3, #32]
 8006fce:	613b      	str	r3, [r7, #16]
 8006fd0:	687b      	ldr	r3, [r7, #4]
 8006fd2:	6a1b      	ldr	r3, [r3, #32]
 8006fd4:	f423 1280 	bic.w	r2, r3, #1048576	@ 0x100000
 8006fd8:	687b      	ldr	r3, [r7, #4]
 8006fda:	621a      	str	r2, [r3, #32]
 8006fdc:	687b      	ldr	r3, [r7, #4]
 8006fde:	685b      	ldr	r3, [r3, #4]
 8006fe0:	617b      	str	r3, [r7, #20]
 8006fe2:	687b      	ldr	r3, [r7, #4]
 8006fe4:	6d5b      	ldr	r3, [r3, #84]	@ 0x54
 8006fe6:	60fb      	str	r3, [r7, #12]
 8006fe8:	68fa      	ldr	r2, [r7, #12]
 8006fea:	4b1c      	ldr	r3, [pc, #112]	@ (800705c <TIM_OC6_SetConfig+0x9c>)
 8006fec:	4013      	ands	r3, r2
 8006fee:	60fb      	str	r3, [r7, #12]
 8006ff0:	683b      	ldr	r3, [r7, #0]
 8006ff2:	681b      	ldr	r3, [r3, #0]
 8006ff4:	021b      	lsls	r3, r3, #8
 8006ff6:	68fa      	ldr	r2, [r7, #12]
 8006ff8:	4313      	orrs	r3, r2
 8006ffa:	60fb      	str	r3, [r7, #12]
 8006ffc:	693b      	ldr	r3, [r7, #16]
 8006ffe:	f423 1300 	bic.w	r3, r3, #2097152	@ 0x200000
 8007002:	613b      	str	r3, [r7, #16]
 8007004:	683b      	ldr	r3, [r7, #0]
 8007006:	689b      	ldr	r3, [r3, #8]
 8007008:	051b      	lsls	r3, r3, #20
 800700a:	693a      	ldr	r2, [r7, #16]
 800700c:	4313      	orrs	r3, r2
 800700e:	613b      	str	r3, [r7, #16]
 8007010:	687b      	ldr	r3, [r7, #4]
 8007012:	4a13      	ldr	r2, [pc, #76]	@ (8007060 <TIM_OC6_SetConfig+0xa0>)
 8007014:	4293      	cmp	r3, r2
 8007016:	d003      	beq.n	8007020 <TIM_OC6_SetConfig+0x60>
 8007018:	687b      	ldr	r3, [r7, #4]
 800701a:	4a12      	ldr	r2, [pc, #72]	@ (8007064 <TIM_OC6_SetConfig+0xa4>)
 800701c:	4293      	cmp	r3, r2
 800701e:	d109      	bne.n	8007034 <TIM_OC6_SetConfig+0x74>
 8007020:	697b      	ldr	r3, [r7, #20]
 8007022:	f423 2380 	bic.w	r3, r3, #262144	@ 0x40000
 8007026:	617b      	str	r3, [r7, #20]
 8007028:	683b      	ldr	r3, [r7, #0]
 800702a:	695b      	ldr	r3, [r3, #20]
 800702c:	029b      	lsls	r3, r3, #10
 800702e:	697a      	ldr	r2, [r7, #20]
 8007030:	4313      	orrs	r3, r2
 8007032:	617b      	str	r3, [r7, #20]
 8007034:	687b      	ldr	r3, [r7, #4]
 8007036:	697a      	ldr	r2, [r7, #20]
 8007038:	605a      	str	r2, [r3, #4]
 800703a:	687b      	ldr	r3, [r7, #4]
 800703c:	68fa      	ldr	r2, [r7, #12]
 800703e:	655a      	str	r2, [r3, #84]	@ 0x54
 8007040:	683b      	ldr	r3, [r7, #0]
 8007042:	685a      	ldr	r2, [r3, #4]
 8007044:	687b      	ldr	r3, [r7, #4]
 8007046:	65da      	str	r2, [r3, #92]	@ 0x5c
 8007048:	687b      	ldr	r3, [r7, #4]
 800704a:	693a      	ldr	r2, [r7, #16]
 800704c:	621a      	str	r2, [r3, #32]
 800704e:	bf00      	nop
 8007050:	371c      	adds	r7, #28
 8007052:	46bd      	mov	sp, r7
 8007054:	f85d 7b04 	ldr.w	r7, [sp], #4
 8007058:	4770      	bx	lr
 800705a:	bf00      	nop
 800705c:	feff8fff 	.word	0xfeff8fff
 8007060:	40010000 	.word	0x40010000
 8007064:	40010400 	.word	0x40010400

08007068 <TIM_TI1_ConfigInputStage>:
 8007068:	b480      	push	{r7}
 800706a:	b087      	sub	sp, #28
 800706c:	af00      	add	r7, sp, #0
 800706e:	60f8      	str	r0, [r7, #12]
 8007070:	60b9      	str	r1, [r7, #8]
 8007072:	607a      	str	r2, [r7, #4]
 8007074:	68fb      	ldr	r3, [r7, #12]
 8007076:	6a1b      	ldr	r3, [r3, #32]
 8007078:	617b      	str	r3, [r7, #20]
 800707a:	68fb      	ldr	r3, [r7, #12]
 800707c:	6a1b      	ldr	r3, [r3, #32]
 800707e:	f023 0201 	bic.w	r2, r3, #1
 8007082:	68fb      	ldr	r3, [r7, #12]
 8007084:	621a      	str	r2, [r3, #32]
 8007086:	68fb      	ldr	r3, [r7, #12]
 8007088:	699b      	ldr	r3, [r3, #24]
 800708a:	613b      	str	r3, [r7, #16]
 800708c:	693b      	ldr	r3, [r7, #16]
 800708e:	f023 03f0 	bic.w	r3, r3, #240	@ 0xf0
 8007092:	613b      	str	r3, [r7, #16]
 8007094:	687b      	ldr	r3, [r7, #4]
 8007096:	011b      	lsls	r3, r3, #4
 8007098:	693a      	ldr	r2, [r7, #16]
 800709a:	4313      	orrs	r3, r2
 800709c:	613b      	str	r3, [r7, #16]
 800709e:	697b      	ldr	r3, [r7, #20]
 80070a0:	f023 030a 	bic.w	r3, r3, #10
 80070a4:	617b      	str	r3, [r7, #20]
 80070a6:	697a      	ldr	r2, [r7, #20]
 80070a8:	68bb      	ldr	r3, [r7, #8]
 80070aa:	4313      	orrs	r3, r2
 80070ac:	617b      	str	r3, [r7, #20]
 80070ae:	68fb      	ldr	r3, [r7, #12]
 80070b0:	693a      	ldr	r2, [r7, #16]
 80070b2:	619a      	str	r2, [r3, #24]
 80070b4:	68fb      	ldr	r3, [r7, #12]
 80070b6:	697a      	ldr	r2, [r7, #20]
 80070b8:	621a      	str	r2, [r3, #32]
 80070ba:	bf00      	nop
 80070bc:	371c      	adds	r7, #28
 80070be:	46bd      	mov	sp, r7
 80070c0:	f85d 7b04 	ldr.w	r7, [sp], #4
 80070c4:	4770      	bx	lr

080070c6 <TIM_TI2_ConfigInputStage>:
 80070c6:	b480      	push	{r7}
 80070c8:	b087      	sub	sp, #28
 80070ca:	af00      	add	r7, sp, #0
 80070cc:	60f8      	str	r0, [r7, #12]
 80070ce:	60b9      	str	r1, [r7, #8]
 80070d0:	607a      	str	r2, [r7, #4]
 80070d2:	68fb      	ldr	r3, [r7, #12]
 80070d4:	6a1b      	ldr	r3, [r3, #32]
 80070d6:	617b      	str	r3, [r7, #20]
 80070d8:	68fb      	ldr	r3, [r7, #12]
 80070da:	6a1b      	ldr	r3, [r3, #32]
 80070dc:	f023 0210 	bic.w	r2, r3, #16
 80070e0:	68fb      	ldr	r3, [r7, #12]
 80070e2:	621a      	str	r2, [r3, #32]
 80070e4:	68fb      	ldr	r3, [r7, #12]
 80070e6:	699b      	ldr	r3, [r3, #24]
 80070e8:	613b      	str	r3, [r7, #16]
 80070ea:	693b      	ldr	r3, [r7, #16]
 80070ec:	f423 4370 	bic.w	r3, r3, #61440	@ 0xf000
 80070f0:	613b      	str	r3, [r7, #16]
 80070f2:	687b      	ldr	r3, [r7, #4]
 80070f4:	031b      	lsls	r3, r3, #12
 80070f6:	693a      	ldr	r2, [r7, #16]
 80070f8:	4313      	orrs	r3, r2
 80070fa:	613b      	str	r3, [r7, #16]
 80070fc:	697b      	ldr	r3, [r7, #20]
 80070fe:	f023 03a0 	bic.w	r3, r3, #160	@ 0xa0
 8007102:	617b      	str	r3, [r7, #20]
 8007104:	68bb      	ldr	r3, [r7, #8]
 8007106:	011b      	lsls	r3, r3, #4
 8007108:	697a      	ldr	r2, [r7, #20]
 800710a:	4313      	orrs	r3, r2
 800710c:	617b      	str	r3, [r7, #20]
 800710e:	68fb      	ldr	r3, [r7, #12]
 8007110:	693a      	ldr	r2, [r7, #16]
 8007112:	619a      	str	r2, [r3, #24]
 8007114:	68fb      	ldr	r3, [r7, #12]
 8007116:	697a      	ldr	r2, [r7, #20]
 8007118:	621a      	str	r2, [r3, #32]
 800711a:	bf00      	nop
 800711c:	371c      	adds	r7, #28
 800711e:	46bd      	mov	sp, r7
 8007120:	f85d 7b04 	ldr.w	r7, [sp], #4
 8007124:	4770      	bx	lr

08007126 <TIM_ITRx_SetConfig>:
 8007126:	b480      	push	{r7}
 8007128:	b085      	sub	sp, #20
 800712a:	af00      	add	r7, sp, #0
 800712c:	6078      	str	r0, [r7, #4]
 800712e:	6039      	str	r1, [r7, #0]
 8007130:	687b      	ldr	r3, [r7, #4]
 8007132:	689b      	ldr	r3, [r3, #8]
 8007134:	60fb      	str	r3, [r7, #12]
 8007136:	68fb      	ldr	r3, [r7, #12]
 8007138:	f023 0370 	bic.w	r3, r3, #112	@ 0x70
 800713c:	60fb      	str	r3, [r7, #12]
 800713e:	683a      	ldr	r2, [r7, #0]
 8007140:	68fb      	ldr	r3, [r7, #12]
 8007142:	4313      	orrs	r3, r2
 8007144:	f043 0307 	orr.w	r3, r3, #7
 8007148:	60fb      	str	r3, [r7, #12]
 800714a:	687b      	ldr	r3, [r7, #4]
 800714c:	68fa      	ldr	r2, [r7, #12]
 800714e:	609a      	str	r2, [r3, #8]
 8007150:	bf00      	nop
 8007152:	3714      	adds	r7, #20
 8007154:	46bd      	mov	sp, r7
 8007156:	f85d 7b04 	ldr.w	r7, [sp], #4
 800715a:	4770      	bx	lr

0800715c <TIM_ETR_SetConfig>:
 800715c:	b480      	push	{r7}
 800715e:	b087      	sub	sp, #28
 8007160:	af00      	add	r7, sp, #0
 8007162:	60f8      	str	r0, [r7, #12]
 8007164:	60b9      	str	r1, [r7, #8]
 8007166:	607a      	str	r2, [r7, #4]
 8007168:	603b      	str	r3, [r7, #0]
 800716a:	68fb      	ldr	r3, [r7, #12]
 800716c:	689b      	ldr	r3, [r3, #8]
 800716e:	617b      	str	r3, [r7, #20]
 8007170:	697b      	ldr	r3, [r7, #20]
 8007172:	f423 437f 	bic.w	r3, r3, #65280	@ 0xff00
 8007176:	617b      	str	r3, [r7, #20]
 8007178:	683b      	ldr	r3, [r7, #0]
 800717a:	021a      	lsls	r2, r3, #8
 800717c:	687b      	ldr	r3, [r7, #4]
 800717e:	431a      	orrs	r2, r3
 8007180:	68bb      	ldr	r3, [r7, #8]
 8007182:	4313      	orrs	r3, r2
 8007184:	697a      	ldr	r2, [r7, #20]
 8007186:	4313      	orrs	r3, r2
 8007188:	617b      	str	r3, [r7, #20]
 800718a:	68fb      	ldr	r3, [r7, #12]
 800718c:	697a      	ldr	r2, [r7, #20]
 800718e:	609a      	str	r2, [r3, #8]
 8007190:	bf00      	nop
 8007192:	371c      	adds	r7, #28
 8007194:	46bd      	mov	sp, r7
 8007196:	f85d 7b04 	ldr.w	r7, [sp], #4
 800719a:	4770      	bx	lr

0800719c <TIM_CCxChannelCmd>:
 800719c:	b480      	push	{r7}
 800719e:	b087      	sub	sp, #28
 80071a0:	af00      	add	r7, sp, #0
 80071a2:	60f8      	str	r0, [r7, #12]
 80071a4:	60b9      	str	r1, [r7, #8]
 80071a6:	607a      	str	r2, [r7, #4]
 80071a8:	68bb      	ldr	r3, [r7, #8]
 80071aa:	f003 031f 	and.w	r3, r3, #31
 80071ae:	2201      	movs	r2, #1
 80071b0:	fa02 f303 	lsl.w	r3, r2, r3
 80071b4:	617b      	str	r3, [r7, #20]
 80071b6:	68fb      	ldr	r3, [r7, #12]
 80071b8:	6a1a      	ldr	r2, [r3, #32]
 80071ba:	697b      	ldr	r3, [r7, #20]
 80071bc:	43db      	mvns	r3, r3
 80071be:	401a      	ands	r2, r3
 80071c0:	68fb      	ldr	r3, [r7, #12]
 80071c2:	621a      	str	r2, [r3, #32]
 80071c4:	68fb      	ldr	r3, [r7, #12]
 80071c6:	6a1a      	ldr	r2, [r3, #32]
 80071c8:	68bb      	ldr	r3, [r7, #8]
 80071ca:	f003 031f 	and.w	r3, r3, #31
 80071ce:	6879      	ldr	r1, [r7, #4]
 80071d0:	fa01 f303 	lsl.w	r3, r1, r3
 80071d4:	431a      	orrs	r2, r3
 80071d6:	68fb      	ldr	r3, [r7, #12]
 80071d8:	621a      	str	r2, [r3, #32]
 80071da:	bf00      	nop
 80071dc:	371c      	adds	r7, #28
 80071de:	46bd      	mov	sp, r7
 80071e0:	f85d 7b04 	ldr.w	r7, [sp], #4
 80071e4:	4770      	bx	lr
	...

080071e8 <HAL_TIMEx_MasterConfigSynchronization>:
 80071e8:	b480      	push	{r7}
 80071ea:	b085      	sub	sp, #20
 80071ec:	af00      	add	r7, sp, #0
 80071ee:	6078      	str	r0, [r7, #4]
 80071f0:	6039      	str	r1, [r7, #0]
 80071f2:	687b      	ldr	r3, [r7, #4]
 80071f4:	f893 303c 	ldrb.w	r3, [r3, #60]	@ 0x3c
 80071f8:	2b01      	cmp	r3, #1
 80071fa:	d101      	bne.n	8007200 <HAL_TIMEx_MasterConfigSynchronization+0x18>
 80071fc:	2302      	movs	r3, #2
 80071fe:	e06d      	b.n	80072dc <HAL_TIMEx_MasterConfigSynchronization+0xf4>
 8007200:	687b      	ldr	r3, [r7, #4]
 8007202:	2201      	movs	r2, #1
 8007204:	f883 203c 	strb.w	r2, [r3, #60]	@ 0x3c
 8007208:	687b      	ldr	r3, [r7, #4]
 800720a:	2202      	movs	r2, #2
 800720c:	f883 203d 	strb.w	r2, [r3, #61]	@ 0x3d
 8007210:	687b      	ldr	r3, [r7, #4]
 8007212:	681b      	ldr	r3, [r3, #0]
 8007214:	685b      	ldr	r3, [r3, #4]
 8007216:	60fb      	str	r3, [r7, #12]
 8007218:	687b      	ldr	r3, [r7, #4]
 800721a:	681b      	ldr	r3, [r3, #0]
 800721c:	689b      	ldr	r3, [r3, #8]
 800721e:	60bb      	str	r3, [r7, #8]
 8007220:	687b      	ldr	r3, [r7, #4]
 8007222:	681b      	ldr	r3, [r3, #0]
 8007224:	4a30      	ldr	r2, [pc, #192]	@ (80072e8 <HAL_TIMEx_MasterConfigSynchronization+0x100>)
 8007226:	4293      	cmp	r3, r2
 8007228:	d004      	beq.n	8007234 <HAL_TIMEx_MasterConfigSynchronization+0x4c>
 800722a:	687b      	ldr	r3, [r7, #4]
 800722c:	681b      	ldr	r3, [r3, #0]
 800722e:	4a2f      	ldr	r2, [pc, #188]	@ (80072ec <HAL_TIMEx_MasterConfigSynchronization+0x104>)
 8007230:	4293      	cmp	r3, r2
 8007232:	d108      	bne.n	8007246 <HAL_TIMEx_MasterConfigSynchronization+0x5e>
 8007234:	68fb      	ldr	r3, [r7, #12]
 8007236:	f423 0370 	bic.w	r3, r3, #15728640	@ 0xf00000
 800723a:	60fb      	str	r3, [r7, #12]
 800723c:	683b      	ldr	r3, [r7, #0]
 800723e:	685b      	ldr	r3, [r3, #4]
 8007240:	68fa      	ldr	r2, [r7, #12]
 8007242:	4313      	orrs	r3, r2
 8007244:	60fb      	str	r3, [r7, #12]
 8007246:	68fb      	ldr	r3, [r7, #12]
 8007248:	f023 0370 	bic.w	r3, r3, #112	@ 0x70
 800724c:	60fb      	str	r3, [r7, #12]
 800724e:	683b      	ldr	r3, [r7, #0]
 8007250:	681b      	ldr	r3, [r3, #0]
 8007252:	68fa      	ldr	r2, [r7, #12]
 8007254:	4313      	orrs	r3, r2
 8007256:	60fb      	str	r3, [r7, #12]
 8007258:	687b      	ldr	r3, [r7, #4]
 800725a:	681b      	ldr	r3, [r3, #0]
 800725c:	68fa      	ldr	r2, [r7, #12]
 800725e:	605a      	str	r2, [r3, #4]
 8007260:	687b      	ldr	r3, [r7, #4]
 8007262:	681b      	ldr	r3, [r3, #0]
 8007264:	4a20      	ldr	r2, [pc, #128]	@ (80072e8 <HAL_TIMEx_MasterConfigSynchronization+0x100>)
 8007266:	4293      	cmp	r3, r2
 8007268:	d022      	beq.n	80072b0 <HAL_TIMEx_MasterConfigSynchronization+0xc8>
 800726a:	687b      	ldr	r3, [r7, #4]
 800726c:	681b      	ldr	r3, [r3, #0]
 800726e:	f1b3 4f80 	cmp.w	r3, #1073741824	@ 0x40000000
 8007272:	d01d      	beq.n	80072b0 <HAL_TIMEx_MasterConfigSynchronization+0xc8>
 8007274:	687b      	ldr	r3, [r7, #4]
 8007276:	681b      	ldr	r3, [r3, #0]
 8007278:	4a1d      	ldr	r2, [pc, #116]	@ (80072f0 <HAL_TIMEx_MasterConfigSynchronization+0x108>)
 800727a:	4293      	cmp	r3, r2
 800727c:	d018      	beq.n	80072b0 <HAL_TIMEx_MasterConfigSynchronization+0xc8>
 800727e:	687b      	ldr	r3, [r7, #4]
 8007280:	681b      	ldr	r3, [r3, #0]
 8007282:	4a1c      	ldr	r2, [pc, #112]	@ (80072f4 <HAL_TIMEx_MasterConfigSynchronization+0x10c>)
 8007284:	4293      	cmp	r3, r2
 8007286:	d013      	beq.n	80072b0 <HAL_TIMEx_MasterConfigSynchronization+0xc8>
 8007288:	687b      	ldr	r3, [r7, #4]
 800728a:	681b      	ldr	r3, [r3, #0]
 800728c:	4a1a      	ldr	r2, [pc, #104]	@ (80072f8 <HAL_TIMEx_MasterConfigSynchronization+0x110>)
 800728e:	4293      	cmp	r3, r2
 8007290:	d00e      	beq.n	80072b0 <HAL_TIMEx_MasterConfigSynchronization+0xc8>
 8007292:	687b      	ldr	r3, [r7, #4]
 8007294:	681b      	ldr	r3, [r3, #0]
 8007296:	4a15      	ldr	r2, [pc, #84]	@ (80072ec <HAL_TIMEx_MasterConfigSynchronization+0x104>)
 8007298:	4293      	cmp	r3, r2
 800729a:	d009      	beq.n	80072b0 <HAL_TIMEx_MasterConfigSynchronization+0xc8>
 800729c:	687b      	ldr	r3, [r7, #4]
 800729e:	681b      	ldr	r3, [r3, #0]
 80072a0:	4a16      	ldr	r2, [pc, #88]	@ (80072fc <HAL_TIMEx_MasterConfigSynchronization+0x114>)
 80072a2:	4293      	cmp	r3, r2
 80072a4:	d004      	beq.n	80072b0 <HAL_TIMEx_MasterConfigSynchronization+0xc8>
 80072a6:	687b      	ldr	r3, [r7, #4]
 80072a8:	681b      	ldr	r3, [r3, #0]
 80072aa:	4a15      	ldr	r2, [pc, #84]	@ (8007300 <HAL_TIMEx_MasterConfigSynchronization+0x118>)
 80072ac:	4293      	cmp	r3, r2
 80072ae:	d10c      	bne.n	80072ca <HAL_TIMEx_MasterConfigSynchronization+0xe2>
 80072b0:	68bb      	ldr	r3, [r7, #8]
 80072b2:	f023 0380 	bic.w	r3, r3, #128	@ 0x80
 80072b6:	60bb      	str	r3, [r7, #8]
 80072b8:	683b      	ldr	r3, [r7, #0]
 80072ba:	689b      	ldr	r3, [r3, #8]
 80072bc:	68ba      	ldr	r2, [r7, #8]
 80072be:	4313      	orrs	r3, r2
 80072c0:	60bb      	str	r3, [r7, #8]
 80072c2:	687b      	ldr	r3, [r7, #4]
 80072c4:	681b      	ldr	r3, [r3, #0]
 80072c6:	68ba      	ldr	r2, [r7, #8]
 80072c8:	609a      	str	r2, [r3, #8]
 80072ca:	687b      	ldr	r3, [r7, #4]
 80072cc:	2201      	movs	r2, #1
 80072ce:	f883 203d 	strb.w	r2, [r3, #61]	@ 0x3d
 80072d2:	687b      	ldr	r3, [r7, #4]
 80072d4:	2200      	movs	r2, #0
 80072d6:	f883 203c 	strb.w	r2, [r3, #60]	@ 0x3c
 80072da:	2300      	movs	r3, #0
 80072dc:	4618      	mov	r0, r3
 80072de:	3714      	adds	r7, #20
 80072e0:	46bd      	mov	sp, r7
 80072e2:	f85d 7b04 	ldr.w	r7, [sp], #4
 80072e6:	4770      	bx	lr
 80072e8:	40010000 	.word	0x40010000
 80072ec:	40010400 	.word	0x40010400
 80072f0:	40000400 	.word	0x40000400
 80072f4:	40000800 	.word	0x40000800
 80072f8:	40000c00 	.word	0x40000c00
 80072fc:	40014000 	.word	0x40014000
 8007300:	40001800 	.word	0x40001800

08007304 <HAL_TIMEx_CommutCallback>:
 8007304:	b480      	push	{r7}
 8007306:	b083      	sub	sp, #12
 8007308:	af00      	add	r7, sp, #0
 800730a:	6078      	str	r0, [r7, #4]
 800730c:	bf00      	nop
 800730e:	370c      	adds	r7, #12
 8007310:	46bd      	mov	sp, r7
 8007312:	f85d 7b04 	ldr.w	r7, [sp], #4
 8007316:	4770      	bx	lr

08007318 <HAL_TIMEx_BreakCallback>:
 8007318:	b480      	push	{r7}
 800731a:	b083      	sub	sp, #12
 800731c:	af00      	add	r7, sp, #0
 800731e:	6078      	str	r0, [r7, #4]
 8007320:	bf00      	nop
 8007322:	370c      	adds	r7, #12
 8007324:	46bd      	mov	sp, r7
 8007326:	f85d 7b04 	ldr.w	r7, [sp], #4
 800732a:	4770      	bx	lr

0800732c <HAL_TIMEx_Break2Callback>:
 800732c:	b480      	push	{r7}
 800732e:	b083      	sub	sp, #12
 8007330:	af00      	add	r7, sp, #0
 8007332:	6078      	str	r0, [r7, #4]
 8007334:	bf00      	nop
 8007336:	370c      	adds	r7, #12
 8007338:	46bd      	mov	sp, r7
 800733a:	f85d 7b04 	ldr.w	r7, [sp], #4
 800733e:	4770      	bx	lr

08007340 <HAL_UART_Init>:
 8007340:	b580      	push	{r7, lr}
 8007342:	b082      	sub	sp, #8
 8007344:	af00      	add	r7, sp, #0
 8007346:	6078      	str	r0, [r7, #4]
 8007348:	687b      	ldr	r3, [r7, #4]
 800734a:	2b00      	cmp	r3, #0
 800734c:	d101      	bne.n	8007352 <HAL_UART_Init+0x12>
 800734e:	2301      	movs	r3, #1
 8007350:	e040      	b.n	80073d4 <HAL_UART_Init+0x94>
 8007352:	687b      	ldr	r3, [r7, #4]
 8007354:	6fdb      	ldr	r3, [r3, #124]	@ 0x7c
 8007356:	2b00      	cmp	r3, #0
 8007358:	d106      	bne.n	8007368 <HAL_UART_Init+0x28>
 800735a:	687b      	ldr	r3, [r7, #4]
 800735c:	2200      	movs	r2, #0
 800735e:	f883 2078 	strb.w	r2, [r3, #120]	@ 0x78
 8007362:	6878      	ldr	r0, [r7, #4]
 8007364:	f7fb f998 	bl	8002698 <HAL_UART_MspInit>
 8007368:	687b      	ldr	r3, [r7, #4]
 800736a:	2224      	movs	r2, #36	@ 0x24
 800736c:	67da      	str	r2, [r3, #124]	@ 0x7c
 800736e:	687b      	ldr	r3, [r7, #4]
 8007370:	681b      	ldr	r3, [r3, #0]
 8007372:	681a      	ldr	r2, [r3, #0]
 8007374:	687b      	ldr	r3, [r7, #4]
 8007376:	681b      	ldr	r3, [r3, #0]
 8007378:	f022 0201 	bic.w	r2, r2, #1
 800737c:	601a      	str	r2, [r3, #0]
 800737e:	687b      	ldr	r3, [r7, #4]
 8007380:	6a5b      	ldr	r3, [r3, #36]	@ 0x24
 8007382:	2b00      	cmp	r3, #0
 8007384:	d002      	beq.n	800738c <HAL_UART_Init+0x4c>
 8007386:	6878      	ldr	r0, [r7, #4]
 8007388:	f000 fa8c 	bl	80078a4 <UART_AdvFeatureConfig>
 800738c:	6878      	ldr	r0, [r7, #4]
 800738e:	f000 f825 	bl	80073dc <UART_SetConfig>
 8007392:	4603      	mov	r3, r0
 8007394:	2b01      	cmp	r3, #1
 8007396:	d101      	bne.n	800739c <HAL_UART_Init+0x5c>
 8007398:	2301      	movs	r3, #1
 800739a:	e01b      	b.n	80073d4 <HAL_UART_Init+0x94>
 800739c:	687b      	ldr	r3, [r7, #4]
 800739e:	681b      	ldr	r3, [r3, #0]
 80073a0:	685a      	ldr	r2, [r3, #4]
 80073a2:	687b      	ldr	r3, [r7, #4]
 80073a4:	681b      	ldr	r3, [r3, #0]
 80073a6:	f422 4290 	bic.w	r2, r2, #18432	@ 0x4800
 80073aa:	605a      	str	r2, [r3, #4]
 80073ac:	687b      	ldr	r3, [r7, #4]
 80073ae:	681b      	ldr	r3, [r3, #0]
 80073b0:	689a      	ldr	r2, [r3, #8]
 80073b2:	687b      	ldr	r3, [r7, #4]
 80073b4:	681b      	ldr	r3, [r3, #0]
 80073b6:	f022 022a 	bic.w	r2, r2, #42	@ 0x2a
 80073ba:	609a      	str	r2, [r3, #8]
 80073bc:	687b      	ldr	r3, [r7, #4]
 80073be:	681b      	ldr	r3, [r3, #0]
 80073c0:	681a      	ldr	r2, [r3, #0]
 80073c2:	687b      	ldr	r3, [r7, #4]
 80073c4:	681b      	ldr	r3, [r3, #0]
 80073c6:	f042 0201 	orr.w	r2, r2, #1
 80073ca:	601a      	str	r2, [r3, #0]
 80073cc:	6878      	ldr	r0, [r7, #4]
 80073ce:	f000 fb0b 	bl	80079e8 <UART_CheckIdleState>
 80073d2:	4603      	mov	r3, r0
 80073d4:	4618      	mov	r0, r3
 80073d6:	3708      	adds	r7, #8
 80073d8:	46bd      	mov	sp, r7
 80073da:	bd80      	pop	{r7, pc}

080073dc <UART_SetConfig>:
 80073dc:	b580      	push	{r7, lr}
 80073de:	b088      	sub	sp, #32
 80073e0:	af00      	add	r7, sp, #0
 80073e2:	6078      	str	r0, [r7, #4]
 80073e4:	2300      	movs	r3, #0
 80073e6:	77bb      	strb	r3, [r7, #30]
 80073e8:	687b      	ldr	r3, [r7, #4]
 80073ea:	689a      	ldr	r2, [r3, #8]
 80073ec:	687b      	ldr	r3, [r7, #4]
 80073ee:	691b      	ldr	r3, [r3, #16]
 80073f0:	431a      	orrs	r2, r3
 80073f2:	687b      	ldr	r3, [r7, #4]
 80073f4:	695b      	ldr	r3, [r3, #20]
 80073f6:	431a      	orrs	r2, r3
 80073f8:	687b      	ldr	r3, [r7, #4]
 80073fa:	69db      	ldr	r3, [r3, #28]
 80073fc:	4313      	orrs	r3, r2
 80073fe:	617b      	str	r3, [r7, #20]
 8007400:	687b      	ldr	r3, [r7, #4]
 8007402:	681b      	ldr	r3, [r3, #0]
 8007404:	681a      	ldr	r2, [r3, #0]
 8007406:	4ba6      	ldr	r3, [pc, #664]	@ (80076a0 <UART_SetConfig+0x2c4>)
 8007408:	4013      	ands	r3, r2
 800740a:	687a      	ldr	r2, [r7, #4]
 800740c:	6812      	ldr	r2, [r2, #0]
 800740e:	6979      	ldr	r1, [r7, #20]
 8007410:	430b      	orrs	r3, r1
 8007412:	6013      	str	r3, [r2, #0]
 8007414:	687b      	ldr	r3, [r7, #4]
 8007416:	681b      	ldr	r3, [r3, #0]
 8007418:	685b      	ldr	r3, [r3, #4]
 800741a:	f423 5140 	bic.w	r1, r3, #12288	@ 0x3000
 800741e:	687b      	ldr	r3, [r7, #4]
 8007420:	68da      	ldr	r2, [r3, #12]
 8007422:	687b      	ldr	r3, [r7, #4]
 8007424:	681b      	ldr	r3, [r3, #0]
 8007426:	430a      	orrs	r2, r1
 8007428:	605a      	str	r2, [r3, #4]
 800742a:	687b      	ldr	r3, [r7, #4]
 800742c:	699b      	ldr	r3, [r3, #24]
 800742e:	617b      	str	r3, [r7, #20]
 8007430:	687b      	ldr	r3, [r7, #4]
 8007432:	6a1b      	ldr	r3, [r3, #32]
 8007434:	697a      	ldr	r2, [r7, #20]
 8007436:	4313      	orrs	r3, r2
 8007438:	617b      	str	r3, [r7, #20]
 800743a:	687b      	ldr	r3, [r7, #4]
 800743c:	681b      	ldr	r3, [r3, #0]
 800743e:	689b      	ldr	r3, [r3, #8]
 8007440:	f423 6130 	bic.w	r1, r3, #2816	@ 0xb00
 8007444:	687b      	ldr	r3, [r7, #4]
 8007446:	681b      	ldr	r3, [r3, #0]
 8007448:	697a      	ldr	r2, [r7, #20]
 800744a:	430a      	orrs	r2, r1
 800744c:	609a      	str	r2, [r3, #8]
 800744e:	687b      	ldr	r3, [r7, #4]
 8007450:	681b      	ldr	r3, [r3, #0]
 8007452:	4a94      	ldr	r2, [pc, #592]	@ (80076a4 <UART_SetConfig+0x2c8>)
 8007454:	4293      	cmp	r3, r2
 8007456:	d120      	bne.n	800749a <UART_SetConfig+0xbe>
 8007458:	4b93      	ldr	r3, [pc, #588]	@ (80076a8 <UART_SetConfig+0x2cc>)
 800745a:	f8d3 3090 	ldr.w	r3, [r3, #144]	@ 0x90
 800745e:	f003 0303 	and.w	r3, r3, #3
 8007462:	2b03      	cmp	r3, #3
 8007464:	d816      	bhi.n	8007494 <UART_SetConfig+0xb8>
 8007466:	a201      	add	r2, pc, #4	@ (adr r2, 800746c <UART_SetConfig+0x90>)
 8007468:	f852 f023 	ldr.w	pc, [r2, r3, lsl #2]
 800746c:	0800747d 	.word	0x0800747d
 8007470:	08007489 	.word	0x08007489
 8007474:	08007483 	.word	0x08007483
 8007478:	0800748f 	.word	0x0800748f
 800747c:	2301      	movs	r3, #1
 800747e:	77fb      	strb	r3, [r7, #31]
 8007480:	e150      	b.n	8007724 <UART_SetConfig+0x348>
 8007482:	2302      	movs	r3, #2
 8007484:	77fb      	strb	r3, [r7, #31]
 8007486:	e14d      	b.n	8007724 <UART_SetConfig+0x348>
 8007488:	2304      	movs	r3, #4
 800748a:	77fb      	strb	r3, [r7, #31]
 800748c:	e14a      	b.n	8007724 <UART_SetConfig+0x348>
 800748e:	2308      	movs	r3, #8
 8007490:	77fb      	strb	r3, [r7, #31]
 8007492:	e147      	b.n	8007724 <UART_SetConfig+0x348>
 8007494:	2310      	movs	r3, #16
 8007496:	77fb      	strb	r3, [r7, #31]
 8007498:	e144      	b.n	8007724 <UART_SetConfig+0x348>
 800749a:	687b      	ldr	r3, [r7, #4]
 800749c:	681b      	ldr	r3, [r3, #0]
 800749e:	4a83      	ldr	r2, [pc, #524]	@ (80076ac <UART_SetConfig+0x2d0>)
 80074a0:	4293      	cmp	r3, r2
 80074a2:	d132      	bne.n	800750a <UART_SetConfig+0x12e>
 80074a4:	4b80      	ldr	r3, [pc, #512]	@ (80076a8 <UART_SetConfig+0x2cc>)
 80074a6:	f8d3 3090 	ldr.w	r3, [r3, #144]	@ 0x90
 80074aa:	f003 030c 	and.w	r3, r3, #12
 80074ae:	2b0c      	cmp	r3, #12
 80074b0:	d828      	bhi.n	8007504 <UART_SetConfig+0x128>
 80074b2:	a201      	add	r2, pc, #4	@ (adr r2, 80074b8 <UART_SetConfig+0xdc>)
 80074b4:	f852 f023 	ldr.w	pc, [r2, r3, lsl #2]
 80074b8:	080074ed 	.word	0x080074ed
 80074bc:	08007505 	.word	0x08007505
 80074c0:	08007505 	.word	0x08007505
 80074c4:	08007505 	.word	0x08007505
 80074c8:	080074f9 	.word	0x080074f9
 80074cc:	08007505 	.word	0x08007505
 80074d0:	08007505 	.word	0x08007505
 80074d4:	08007505 	.word	0x08007505
 80074d8:	080074f3 	.word	0x080074f3
 80074dc:	08007505 	.word	0x08007505
 80074e0:	08007505 	.word	0x08007505
 80074e4:	08007505 	.word	0x08007505
 80074e8:	080074ff 	.word	0x080074ff
 80074ec:	2300      	movs	r3, #0
 80074ee:	77fb      	strb	r3, [r7, #31]
 80074f0:	e118      	b.n	8007724 <UART_SetConfig+0x348>
 80074f2:	2302      	movs	r3, #2
 80074f4:	77fb      	strb	r3, [r7, #31]
 80074f6:	e115      	b.n	8007724 <UART_SetConfig+0x348>
 80074f8:	2304      	movs	r3, #4
 80074fa:	77fb      	strb	r3, [r7, #31]
 80074fc:	e112      	b.n	8007724 <UART_SetConfig+0x348>
 80074fe:	2308      	movs	r3, #8
 8007500:	77fb      	strb	r3, [r7, #31]
 8007502:	e10f      	b.n	8007724 <UART_SetConfig+0x348>
 8007504:	2310      	movs	r3, #16
 8007506:	77fb      	strb	r3, [r7, #31]
 8007508:	e10c      	b.n	8007724 <UART_SetConfig+0x348>
 800750a:	687b      	ldr	r3, [r7, #4]
 800750c:	681b      	ldr	r3, [r3, #0]
 800750e:	4a68      	ldr	r2, [pc, #416]	@ (80076b0 <UART_SetConfig+0x2d4>)
 8007510:	4293      	cmp	r3, r2
 8007512:	d120      	bne.n	8007556 <UART_SetConfig+0x17a>
 8007514:	4b64      	ldr	r3, [pc, #400]	@ (80076a8 <UART_SetConfig+0x2cc>)
 8007516:	f8d3 3090 	ldr.w	r3, [r3, #144]	@ 0x90
 800751a:	f003 0330 	and.w	r3, r3, #48	@ 0x30
 800751e:	2b30      	cmp	r3, #48	@ 0x30
 8007520:	d013      	beq.n	800754a <UART_SetConfig+0x16e>
 8007522:	2b30      	cmp	r3, #48	@ 0x30
 8007524:	d814      	bhi.n	8007550 <UART_SetConfig+0x174>
 8007526:	2b20      	cmp	r3, #32
 8007528:	d009      	beq.n	800753e <UART_SetConfig+0x162>
 800752a:	2b20      	cmp	r3, #32
 800752c:	d810      	bhi.n	8007550 <UART_SetConfig+0x174>
 800752e:	2b00      	cmp	r3, #0
 8007530:	d002      	beq.n	8007538 <UART_SetConfig+0x15c>
 8007532:	2b10      	cmp	r3, #16
 8007534:	d006      	beq.n	8007544 <UART_SetConfig+0x168>
 8007536:	e00b      	b.n	8007550 <UART_SetConfig+0x174>
 8007538:	2300      	movs	r3, #0
 800753a:	77fb      	strb	r3, [r7, #31]
 800753c:	e0f2      	b.n	8007724 <UART_SetConfig+0x348>
 800753e:	2302      	movs	r3, #2
 8007540:	77fb      	strb	r3, [r7, #31]
 8007542:	e0ef      	b.n	8007724 <UART_SetConfig+0x348>
 8007544:	2304      	movs	r3, #4
 8007546:	77fb      	strb	r3, [r7, #31]
 8007548:	e0ec      	b.n	8007724 <UART_SetConfig+0x348>
 800754a:	2308      	movs	r3, #8
 800754c:	77fb      	strb	r3, [r7, #31]
 800754e:	e0e9      	b.n	8007724 <UART_SetConfig+0x348>
 8007550:	2310      	movs	r3, #16
 8007552:	77fb      	strb	r3, [r7, #31]
 8007554:	e0e6      	b.n	8007724 <UART_SetConfig+0x348>
 8007556:	687b      	ldr	r3, [r7, #4]
 8007558:	681b      	ldr	r3, [r3, #0]
 800755a:	4a56      	ldr	r2, [pc, #344]	@ (80076b4 <UART_SetConfig+0x2d8>)
 800755c:	4293      	cmp	r3, r2
 800755e:	d120      	bne.n	80075a2 <UART_SetConfig+0x1c6>
 8007560:	4b51      	ldr	r3, [pc, #324]	@ (80076a8 <UART_SetConfig+0x2cc>)
 8007562:	f8d3 3090 	ldr.w	r3, [r3, #144]	@ 0x90
 8007566:	f003 03c0 	and.w	r3, r3, #192	@ 0xc0
 800756a:	2bc0      	cmp	r3, #192	@ 0xc0
 800756c:	d013      	beq.n	8007596 <UART_SetConfig+0x1ba>
 800756e:	2bc0      	cmp	r3, #192	@ 0xc0
 8007570:	d814      	bhi.n	800759c <UART_SetConfig+0x1c0>
 8007572:	2b80      	cmp	r3, #128	@ 0x80
 8007574:	d009      	beq.n	800758a <UART_SetConfig+0x1ae>
 8007576:	2b80      	cmp	r3, #128	@ 0x80
 8007578:	d810      	bhi.n	800759c <UART_SetConfig+0x1c0>
 800757a:	2b00      	cmp	r3, #0
 800757c:	d002      	beq.n	8007584 <UART_SetConfig+0x1a8>
 800757e:	2b40      	cmp	r3, #64	@ 0x40
 8007580:	d006      	beq.n	8007590 <UART_SetConfig+0x1b4>
 8007582:	e00b      	b.n	800759c <UART_SetConfig+0x1c0>
 8007584:	2300      	movs	r3, #0
 8007586:	77fb      	strb	r3, [r7, #31]
 8007588:	e0cc      	b.n	8007724 <UART_SetConfig+0x348>
 800758a:	2302      	movs	r3, #2
 800758c:	77fb      	strb	r3, [r7, #31]
 800758e:	e0c9      	b.n	8007724 <UART_SetConfig+0x348>
 8007590:	2304      	movs	r3, #4
 8007592:	77fb      	strb	r3, [r7, #31]
 8007594:	e0c6      	b.n	8007724 <UART_SetConfig+0x348>
 8007596:	2308      	movs	r3, #8
 8007598:	77fb      	strb	r3, [r7, #31]
 800759a:	e0c3      	b.n	8007724 <UART_SetConfig+0x348>
 800759c:	2310      	movs	r3, #16
 800759e:	77fb      	strb	r3, [r7, #31]
 80075a0:	e0c0      	b.n	8007724 <UART_SetConfig+0x348>
 80075a2:	687b      	ldr	r3, [r7, #4]
 80075a4:	681b      	ldr	r3, [r3, #0]
 80075a6:	4a44      	ldr	r2, [pc, #272]	@ (80076b8 <UART_SetConfig+0x2dc>)
 80075a8:	4293      	cmp	r3, r2
 80075aa:	d125      	bne.n	80075f8 <UART_SetConfig+0x21c>
 80075ac:	4b3e      	ldr	r3, [pc, #248]	@ (80076a8 <UART_SetConfig+0x2cc>)
 80075ae:	f8d3 3090 	ldr.w	r3, [r3, #144]	@ 0x90
 80075b2:	f403 7340 	and.w	r3, r3, #768	@ 0x300
 80075b6:	f5b3 7f40 	cmp.w	r3, #768	@ 0x300
 80075ba:	d017      	beq.n	80075ec <UART_SetConfig+0x210>
 80075bc:	f5b3 7f40 	cmp.w	r3, #768	@ 0x300
 80075c0:	d817      	bhi.n	80075f2 <UART_SetConfig+0x216>
 80075c2:	f5b3 7f00 	cmp.w	r3, #512	@ 0x200
 80075c6:	d00b      	beq.n	80075e0 <UART_SetConfig+0x204>
 80075c8:	f5b3 7f00 	cmp.w	r3, #512	@ 0x200
 80075cc:	d811      	bhi.n	80075f2 <UART_SetConfig+0x216>
 80075ce:	2b00      	cmp	r3, #0
 80075d0:	d003      	beq.n	80075da <UART_SetConfig+0x1fe>
 80075d2:	f5b3 7f80 	cmp.w	r3, #256	@ 0x100
 80075d6:	d006      	beq.n	80075e6 <UART_SetConfig+0x20a>
 80075d8:	e00b      	b.n	80075f2 <UART_SetConfig+0x216>
 80075da:	2300      	movs	r3, #0
 80075dc:	77fb      	strb	r3, [r7, #31]
 80075de:	e0a1      	b.n	8007724 <UART_SetConfig+0x348>
 80075e0:	2302      	movs	r3, #2
 80075e2:	77fb      	strb	r3, [r7, #31]
 80075e4:	e09e      	b.n	8007724 <UART_SetConfig+0x348>
 80075e6:	2304      	movs	r3, #4
 80075e8:	77fb      	strb	r3, [r7, #31]
 80075ea:	e09b      	b.n	8007724 <UART_SetConfig+0x348>
 80075ec:	2308      	movs	r3, #8
 80075ee:	77fb      	strb	r3, [r7, #31]
 80075f0:	e098      	b.n	8007724 <UART_SetConfig+0x348>
 80075f2:	2310      	movs	r3, #16
 80075f4:	77fb      	strb	r3, [r7, #31]
 80075f6:	e095      	b.n	8007724 <UART_SetConfig+0x348>
 80075f8:	687b      	ldr	r3, [r7, #4]
 80075fa:	681b      	ldr	r3, [r3, #0]
 80075fc:	4a2f      	ldr	r2, [pc, #188]	@ (80076bc <UART_SetConfig+0x2e0>)
 80075fe:	4293      	cmp	r3, r2
 8007600:	d125      	bne.n	800764e <UART_SetConfig+0x272>
 8007602:	4b29      	ldr	r3, [pc, #164]	@ (80076a8 <UART_SetConfig+0x2cc>)
 8007604:	f8d3 3090 	ldr.w	r3, [r3, #144]	@ 0x90
 8007608:	f403 6340 	and.w	r3, r3, #3072	@ 0xc00
 800760c:	f5b3 6f40 	cmp.w	r3, #3072	@ 0xc00
 8007610:	d017      	beq.n	8007642 <UART_SetConfig+0x266>
 8007612:	f5b3 6f40 	cmp.w	r3, #3072	@ 0xc00
 8007616:	d817      	bhi.n	8007648 <UART_SetConfig+0x26c>
 8007618:	f5b3 6f00 	cmp.w	r3, #2048	@ 0x800
 800761c:	d00b      	beq.n	8007636 <UART_SetConfig+0x25a>
 800761e:	f5b3 6f00 	cmp.w	r3, #2048	@ 0x800
 8007622:	d811      	bhi.n	8007648 <UART_SetConfig+0x26c>
 8007624:	2b00      	cmp	r3, #0
 8007626:	d003      	beq.n	8007630 <UART_SetConfig+0x254>
 8007628:	f5b3 6f80 	cmp.w	r3, #1024	@ 0x400
 800762c:	d006      	beq.n	800763c <UART_SetConfig+0x260>
 800762e:	e00b      	b.n	8007648 <UART_SetConfig+0x26c>
 8007630:	2301      	movs	r3, #1
 8007632:	77fb      	strb	r3, [r7, #31]
 8007634:	e076      	b.n	8007724 <UART_SetConfig+0x348>
 8007636:	2302      	movs	r3, #2
 8007638:	77fb      	strb	r3, [r7, #31]
 800763a:	e073      	b.n	8007724 <UART_SetConfig+0x348>
 800763c:	2304      	movs	r3, #4
 800763e:	77fb      	strb	r3, [r7, #31]
 8007640:	e070      	b.n	8007724 <UART_SetConfig+0x348>
 8007642:	2308      	movs	r3, #8
 8007644:	77fb      	strb	r3, [r7, #31]
 8007646:	e06d      	b.n	8007724 <UART_SetConfig+0x348>
 8007648:	2310      	movs	r3, #16
 800764a:	77fb      	strb	r3, [r7, #31]
 800764c:	e06a      	b.n	8007724 <UART_SetConfig+0x348>
 800764e:	687b      	ldr	r3, [r7, #4]
 8007650:	681b      	ldr	r3, [r3, #0]
 8007652:	4a1b      	ldr	r2, [pc, #108]	@ (80076c0 <UART_SetConfig+0x2e4>)
 8007654:	4293      	cmp	r3, r2
 8007656:	d138      	bne.n	80076ca <UART_SetConfig+0x2ee>
 8007658:	4b13      	ldr	r3, [pc, #76]	@ (80076a8 <UART_SetConfig+0x2cc>)
 800765a:	f8d3 3090 	ldr.w	r3, [r3, #144]	@ 0x90
 800765e:	f403 5340 	and.w	r3, r3, #12288	@ 0x3000
 8007662:	f5b3 5f40 	cmp.w	r3, #12288	@ 0x3000
 8007666:	d017      	beq.n	8007698 <UART_SetConfig+0x2bc>
 8007668:	f5b3 5f40 	cmp.w	r3, #12288	@ 0x3000
 800766c:	d82a      	bhi.n	80076c4 <UART_SetConfig+0x2e8>
 800766e:	f5b3 5f00 	cmp.w	r3, #8192	@ 0x2000
 8007672:	d00b      	beq.n	800768c <UART_SetConfig+0x2b0>
 8007674:	f5b3 5f00 	cmp.w	r3, #8192	@ 0x2000
 8007678:	d824      	bhi.n	80076c4 <UART_SetConfig+0x2e8>
 800767a:	2b00      	cmp	r3, #0
 800767c:	d003      	beq.n	8007686 <UART_SetConfig+0x2aa>
 800767e:	f5b3 5f80 	cmp.w	r3, #4096	@ 0x1000
 8007682:	d006      	beq.n	8007692 <UART_SetConfig+0x2b6>
 8007684:	e01e      	b.n	80076c4 <UART_SetConfig+0x2e8>
 8007686:	2300      	movs	r3, #0
 8007688:	77fb      	strb	r3, [r7, #31]
 800768a:	e04b      	b.n	8007724 <UART_SetConfig+0x348>
 800768c:	2302      	movs	r3, #2
 800768e:	77fb      	strb	r3, [r7, #31]
 8007690:	e048      	b.n	8007724 <UART_SetConfig+0x348>
 8007692:	2304      	movs	r3, #4
 8007694:	77fb      	strb	r3, [r7, #31]
 8007696:	e045      	b.n	8007724 <UART_SetConfig+0x348>
 8007698:	2308      	movs	r3, #8
 800769a:	77fb      	strb	r3, [r7, #31]
 800769c:	e042      	b.n	8007724 <UART_SetConfig+0x348>
 800769e:	bf00      	nop
 80076a0:	efff69f3 	.word	0xefff69f3
 80076a4:	40011000 	.word	0x40011000
 80076a8:	40023800 	.word	0x40023800
 80076ac:	40004400 	.word	0x40004400
 80076b0:	40004800 	.word	0x40004800
 80076b4:	40004c00 	.word	0x40004c00
 80076b8:	40005000 	.word	0x40005000
 80076bc:	40011400 	.word	0x40011400
 80076c0:	40007800 	.word	0x40007800
 80076c4:	2310      	movs	r3, #16
 80076c6:	77fb      	strb	r3, [r7, #31]
 80076c8:	e02c      	b.n	8007724 <UART_SetConfig+0x348>
 80076ca:	687b      	ldr	r3, [r7, #4]
 80076cc:	681b      	ldr	r3, [r3, #0]
 80076ce:	4a72      	ldr	r2, [pc, #456]	@ (8007898 <UART_SetConfig+0x4bc>)
 80076d0:	4293      	cmp	r3, r2
 80076d2:	d125      	bne.n	8007720 <UART_SetConfig+0x344>
 80076d4:	4b71      	ldr	r3, [pc, #452]	@ (800789c <UART_SetConfig+0x4c0>)
 80076d6:	f8d3 3090 	ldr.w	r3, [r3, #144]	@ 0x90
 80076da:	f403 4340 	and.w	r3, r3, #49152	@ 0xc000
 80076de:	f5b3 4f40 	cmp.w	r3, #49152	@ 0xc000
 80076e2:	d017      	beq.n	8007714 <UART_SetConfig+0x338>
 80076e4:	f5b3 4f40 	cmp.w	r3, #49152	@ 0xc000
 80076e8:	d817      	bhi.n	800771a <UART_SetConfig+0x33e>
 80076ea:	f5b3 4f00 	cmp.w	r3, #32768	@ 0x8000
 80076ee:	d00b      	beq.n	8007708 <UART_SetConfig+0x32c>
 80076f0:	f5b3 4f00 	cmp.w	r3, #32768	@ 0x8000
 80076f4:	d811      	bhi.n	800771a <UART_SetConfig+0x33e>
 80076f6:	2b00      	cmp	r3, #0
 80076f8:	d003      	beq.n	8007702 <UART_SetConfig+0x326>
 80076fa:	f5b3 4f80 	cmp.w	r3, #16384	@ 0x4000
 80076fe:	d006      	beq.n	800770e <UART_SetConfig+0x332>
 8007700:	e00b      	b.n	800771a <UART_SetConfig+0x33e>
 8007702:	2300      	movs	r3, #0
 8007704:	77fb      	strb	r3, [r7, #31]
 8007706:	e00d      	b.n	8007724 <UART_SetConfig+0x348>
 8007708:	2302      	movs	r3, #2
 800770a:	77fb      	strb	r3, [r7, #31]
 800770c:	e00a      	b.n	8007724 <UART_SetConfig+0x348>
 800770e:	2304      	movs	r3, #4
 8007710:	77fb      	strb	r3, [r7, #31]
 8007712:	e007      	b.n	8007724 <UART_SetConfig+0x348>
 8007714:	2308      	movs	r3, #8
 8007716:	77fb      	strb	r3, [r7, #31]
 8007718:	e004      	b.n	8007724 <UART_SetConfig+0x348>
 800771a:	2310      	movs	r3, #16
 800771c:	77fb      	strb	r3, [r7, #31]
 800771e:	e001      	b.n	8007724 <UART_SetConfig+0x348>
 8007720:	2310      	movs	r3, #16
 8007722:	77fb      	strb	r3, [r7, #31]
 8007724:	687b      	ldr	r3, [r7, #4]
 8007726:	69db      	ldr	r3, [r3, #28]
 8007728:	f5b3 4f00 	cmp.w	r3, #32768	@ 0x8000
 800772c:	d15b      	bne.n	80077e6 <UART_SetConfig+0x40a>
 800772e:	7ffb      	ldrb	r3, [r7, #31]
 8007730:	2b08      	cmp	r3, #8
 8007732:	d828      	bhi.n	8007786 <UART_SetConfig+0x3aa>
 8007734:	a201      	add	r2, pc, #4	@ (adr r2, 800773c <UART_SetConfig+0x360>)
 8007736:	f852 f023 	ldr.w	pc, [r2, r3, lsl #2]
 800773a:	bf00      	nop
 800773c:	08007761 	.word	0x08007761
 8007740:	08007769 	.word	0x08007769
 8007744:	08007771 	.word	0x08007771
 8007748:	08007787 	.word	0x08007787
 800774c:	08007777 	.word	0x08007777
 8007750:	08007787 	.word	0x08007787
 8007754:	08007787 	.word	0x08007787
 8007758:	08007787 	.word	0x08007787
 800775c:	0800777f 	.word	0x0800777f
 8007760:	f7fd ff86 	bl	8005670 <HAL_RCC_GetPCLK1Freq>
 8007764:	61b8      	str	r0, [r7, #24]
 8007766:	e013      	b.n	8007790 <UART_SetConfig+0x3b4>
 8007768:	f7fd ff96 	bl	8005698 <HAL_RCC_GetPCLK2Freq>
 800776c:	61b8      	str	r0, [r7, #24]
 800776e:	e00f      	b.n	8007790 <UART_SetConfig+0x3b4>
 8007770:	4b4b      	ldr	r3, [pc, #300]	@ (80078a0 <UART_SetConfig+0x4c4>)
 8007772:	61bb      	str	r3, [r7, #24]
 8007774:	e00c      	b.n	8007790 <UART_SetConfig+0x3b4>
 8007776:	f7fd fe69 	bl	800544c <HAL_RCC_GetSysClockFreq>
 800777a:	61b8      	str	r0, [r7, #24]
 800777c:	e008      	b.n	8007790 <UART_SetConfig+0x3b4>
 800777e:	f44f 4300 	mov.w	r3, #32768	@ 0x8000
 8007782:	61bb      	str	r3, [r7, #24]
 8007784:	e004      	b.n	8007790 <UART_SetConfig+0x3b4>
 8007786:	2300      	movs	r3, #0
 8007788:	61bb      	str	r3, [r7, #24]
 800778a:	2301      	movs	r3, #1
 800778c:	77bb      	strb	r3, [r7, #30]
 800778e:	bf00      	nop
 8007790:	69bb      	ldr	r3, [r7, #24]
 8007792:	2b00      	cmp	r3, #0
 8007794:	d074      	beq.n	8007880 <UART_SetConfig+0x4a4>
 8007796:	69bb      	ldr	r3, [r7, #24]
 8007798:	005a      	lsls	r2, r3, #1
 800779a:	687b      	ldr	r3, [r7, #4]
 800779c:	685b      	ldr	r3, [r3, #4]
 800779e:	085b      	lsrs	r3, r3, #1
 80077a0:	441a      	add	r2, r3
 80077a2:	687b      	ldr	r3, [r7, #4]
 80077a4:	685b      	ldr	r3, [r3, #4]
 80077a6:	fbb2 f3f3 	udiv	r3, r2, r3
 80077aa:	613b      	str	r3, [r7, #16]
 80077ac:	693b      	ldr	r3, [r7, #16]
 80077ae:	2b0f      	cmp	r3, #15
 80077b0:	d916      	bls.n	80077e0 <UART_SetConfig+0x404>
 80077b2:	693b      	ldr	r3, [r7, #16]
 80077b4:	f5b3 3f80 	cmp.w	r3, #65536	@ 0x10000
 80077b8:	d212      	bcs.n	80077e0 <UART_SetConfig+0x404>
 80077ba:	693b      	ldr	r3, [r7, #16]
 80077bc:	b29b      	uxth	r3, r3
 80077be:	f023 030f 	bic.w	r3, r3, #15
 80077c2:	81fb      	strh	r3, [r7, #14]
 80077c4:	693b      	ldr	r3, [r7, #16]
 80077c6:	085b      	lsrs	r3, r3, #1
 80077c8:	b29b      	uxth	r3, r3
 80077ca:	f003 0307 	and.w	r3, r3, #7
 80077ce:	b29a      	uxth	r2, r3
 80077d0:	89fb      	ldrh	r3, [r7, #14]
 80077d2:	4313      	orrs	r3, r2
 80077d4:	81fb      	strh	r3, [r7, #14]
 80077d6:	687b      	ldr	r3, [r7, #4]
 80077d8:	681b      	ldr	r3, [r3, #0]
 80077da:	89fa      	ldrh	r2, [r7, #14]
 80077dc:	60da      	str	r2, [r3, #12]
 80077de:	e04f      	b.n	8007880 <UART_SetConfig+0x4a4>
 80077e0:	2301      	movs	r3, #1
 80077e2:	77bb      	strb	r3, [r7, #30]
 80077e4:	e04c      	b.n	8007880 <UART_SetConfig+0x4a4>
 80077e6:	7ffb      	ldrb	r3, [r7, #31]
 80077e8:	2b08      	cmp	r3, #8
 80077ea:	d828      	bhi.n	800783e <UART_SetConfig+0x462>
 80077ec:	a201      	add	r2, pc, #4	@ (adr r2, 80077f4 <UART_SetConfig+0x418>)
 80077ee:	f852 f023 	ldr.w	pc, [r2, r3, lsl #2]
 80077f2:	bf00      	nop
 80077f4:	08007819 	.word	0x08007819
 80077f8:	08007821 	.word	0x08007821
 80077fc:	08007829 	.word	0x08007829
 8007800:	0800783f 	.word	0x0800783f
 8007804:	0800782f 	.word	0x0800782f
 8007808:	0800783f 	.word	0x0800783f
 800780c:	0800783f 	.word	0x0800783f
 8007810:	0800783f 	.word	0x0800783f
 8007814:	08007837 	.word	0x08007837
 8007818:	f7fd ff2a 	bl	8005670 <HAL_RCC_GetPCLK1Freq>
 800781c:	61b8      	str	r0, [r7, #24]
 800781e:	e013      	b.n	8007848 <UART_SetConfig+0x46c>
 8007820:	f7fd ff3a 	bl	8005698 <HAL_RCC_GetPCLK2Freq>
 8007824:	61b8      	str	r0, [r7, #24]
 8007826:	e00f      	b.n	8007848 <UART_SetConfig+0x46c>
 8007828:	4b1d      	ldr	r3, [pc, #116]	@ (80078a0 <UART_SetConfig+0x4c4>)
 800782a:	61bb      	str	r3, [r7, #24]
 800782c:	e00c      	b.n	8007848 <UART_SetConfig+0x46c>
 800782e:	f7fd fe0d 	bl	800544c <HAL_RCC_GetSysClockFreq>
 8007832:	61b8      	str	r0, [r7, #24]
 8007834:	e008      	b.n	8007848 <UART_SetConfig+0x46c>
 8007836:	f44f 4300 	mov.w	r3, #32768	@ 0x8000
 800783a:	61bb      	str	r3, [r7, #24]
 800783c:	e004      	b.n	8007848 <UART_SetConfig+0x46c>
 800783e:	2300      	movs	r3, #0
 8007840:	61bb      	str	r3, [r7, #24]
 8007842:	2301      	movs	r3, #1
 8007844:	77bb      	strb	r3, [r7, #30]
 8007846:	bf00      	nop
 8007848:	69bb      	ldr	r3, [r7, #24]
 800784a:	2b00      	cmp	r3, #0
 800784c:	d018      	beq.n	8007880 <UART_SetConfig+0x4a4>
 800784e:	687b      	ldr	r3, [r7, #4]
 8007850:	685b      	ldr	r3, [r3, #4]
 8007852:	085a      	lsrs	r2, r3, #1
 8007854:	69bb      	ldr	r3, [r7, #24]
 8007856:	441a      	add	r2, r3
 8007858:	687b      	ldr	r3, [r7, #4]
 800785a:	685b      	ldr	r3, [r3, #4]
 800785c:	fbb2 f3f3 	udiv	r3, r2, r3
 8007860:	613b      	str	r3, [r7, #16]
 8007862:	693b      	ldr	r3, [r7, #16]
 8007864:	2b0f      	cmp	r3, #15
 8007866:	d909      	bls.n	800787c <UART_SetConfig+0x4a0>
 8007868:	693b      	ldr	r3, [r7, #16]
 800786a:	f5b3 3f80 	cmp.w	r3, #65536	@ 0x10000
 800786e:	d205      	bcs.n	800787c <UART_SetConfig+0x4a0>
 8007870:	693b      	ldr	r3, [r7, #16]
 8007872:	b29a      	uxth	r2, r3
 8007874:	687b      	ldr	r3, [r7, #4]
 8007876:	681b      	ldr	r3, [r3, #0]
 8007878:	60da      	str	r2, [r3, #12]
 800787a:	e001      	b.n	8007880 <UART_SetConfig+0x4a4>
 800787c:	2301      	movs	r3, #1
 800787e:	77bb      	strb	r3, [r7, #30]
 8007880:	687b      	ldr	r3, [r7, #4]
 8007882:	2200      	movs	r2, #0
 8007884:	669a      	str	r2, [r3, #104]	@ 0x68
 8007886:	687b      	ldr	r3, [r7, #4]
 8007888:	2200      	movs	r2, #0
 800788a:	66da      	str	r2, [r3, #108]	@ 0x6c
 800788c:	7fbb      	ldrb	r3, [r7, #30]
 800788e:	4618      	mov	r0, r3
 8007890:	3720      	adds	r7, #32
 8007892:	46bd      	mov	sp, r7
 8007894:	bd80      	pop	{r7, pc}
 8007896:	bf00      	nop
 8007898:	40007c00 	.word	0x40007c00
 800789c:	40023800 	.word	0x40023800
 80078a0:	00f42400 	.word	0x00f42400

080078a4 <UART_AdvFeatureConfig>:
 80078a4:	b480      	push	{r7}
 80078a6:	b083      	sub	sp, #12
 80078a8:	af00      	add	r7, sp, #0
 80078aa:	6078      	str	r0, [r7, #4]
 80078ac:	687b      	ldr	r3, [r7, #4]
 80078ae:	6a5b      	ldr	r3, [r3, #36]	@ 0x24
 80078b0:	f003 0308 	and.w	r3, r3, #8
 80078b4:	2b00      	cmp	r3, #0
 80078b6:	d00a      	beq.n	80078ce <UART_AdvFeatureConfig+0x2a>
 80078b8:	687b      	ldr	r3, [r7, #4]
 80078ba:	681b      	ldr	r3, [r3, #0]
 80078bc:	685b      	ldr	r3, [r3, #4]
 80078be:	f423 4100 	bic.w	r1, r3, #32768	@ 0x8000
 80078c2:	687b      	ldr	r3, [r7, #4]
 80078c4:	6b5a      	ldr	r2, [r3, #52]	@ 0x34
 80078c6:	687b      	ldr	r3, [r7, #4]
 80078c8:	681b      	ldr	r3, [r3, #0]
 80078ca:	430a      	orrs	r2, r1
 80078cc:	605a      	str	r2, [r3, #4]
 80078ce:	687b      	ldr	r3, [r7, #4]
 80078d0:	6a5b      	ldr	r3, [r3, #36]	@ 0x24
 80078d2:	f003 0301 	and.w	r3, r3, #1
 80078d6:	2b00      	cmp	r3, #0
 80078d8:	d00a      	beq.n	80078f0 <UART_AdvFeatureConfig+0x4c>
 80078da:	687b      	ldr	r3, [r7, #4]
 80078dc:	681b      	ldr	r3, [r3, #0]
 80078de:	685b      	ldr	r3, [r3, #4]
 80078e0:	f423 3100 	bic.w	r1, r3, #131072	@ 0x20000
 80078e4:	687b      	ldr	r3, [r7, #4]
 80078e6:	6a9a      	ldr	r2, [r3, #40]	@ 0x28
 80078e8:	687b      	ldr	r3, [r7, #4]
 80078ea:	681b      	ldr	r3, [r3, #0]
 80078ec:	430a      	orrs	r2, r1
 80078ee:	605a      	str	r2, [r3, #4]
 80078f0:	687b      	ldr	r3, [r7, #4]
 80078f2:	6a5b      	ldr	r3, [r3, #36]	@ 0x24
 80078f4:	f003 0302 	and.w	r3, r3, #2
 80078f8:	2b00      	cmp	r3, #0
 80078fa:	d00a      	beq.n	8007912 <UART_AdvFeatureConfig+0x6e>
 80078fc:	687b      	ldr	r3, [r7, #4]
 80078fe:	681b      	ldr	r3, [r3, #0]
 8007900:	685b      	ldr	r3, [r3, #4]
 8007902:	f423 3180 	bic.w	r1, r3, #65536	@ 0x10000
 8007906:	687b      	ldr	r3, [r7, #4]
 8007908:	6ada      	ldr	r2, [r3, #44]	@ 0x2c
 800790a:	687b      	ldr	r3, [r7, #4]
 800790c:	681b      	ldr	r3, [r3, #0]
 800790e:	430a      	orrs	r2, r1
 8007910:	605a      	str	r2, [r3, #4]
 8007912:	687b      	ldr	r3, [r7, #4]
 8007914:	6a5b      	ldr	r3, [r3, #36]	@ 0x24
 8007916:	f003 0304 	and.w	r3, r3, #4
 800791a:	2b00      	cmp	r3, #0
 800791c:	d00a      	beq.n	8007934 <UART_AdvFeatureConfig+0x90>
 800791e:	687b      	ldr	r3, [r7, #4]
 8007920:	681b      	ldr	r3, [r3, #0]
 8007922:	685b      	ldr	r3, [r3, #4]
 8007924:	f423 2180 	bic.w	r1, r3, #262144	@ 0x40000
 8007928:	687b      	ldr	r3, [r7, #4]
 800792a:	6b1a      	ldr	r2, [r3, #48]	@ 0x30
 800792c:	687b      	ldr	r3, [r7, #4]
 800792e:	681b      	ldr	r3, [r3, #0]
 8007930:	430a      	orrs	r2, r1
 8007932:	605a      	str	r2, [r3, #4]
 8007934:	687b      	ldr	r3, [r7, #4]
 8007936:	6a5b      	ldr	r3, [r3, #36]	@ 0x24
 8007938:	f003 0310 	and.w	r3, r3, #16
 800793c:	2b00      	cmp	r3, #0
 800793e:	d00a      	beq.n	8007956 <UART_AdvFeatureConfig+0xb2>
 8007940:	687b      	ldr	r3, [r7, #4]
 8007942:	681b      	ldr	r3, [r3, #0]
 8007944:	689b      	ldr	r3, [r3, #8]
 8007946:	f423 5180 	bic.w	r1, r3, #4096	@ 0x1000
 800794a:	687b      	ldr	r3, [r7, #4]
 800794c:	6b9a      	ldr	r2, [r3, #56]	@ 0x38
 800794e:	687b      	ldr	r3, [r7, #4]
 8007950:	681b      	ldr	r3, [r3, #0]
 8007952:	430a      	orrs	r2, r1
 8007954:	609a      	str	r2, [r3, #8]
 8007956:	687b      	ldr	r3, [r7, #4]
 8007958:	6a5b      	ldr	r3, [r3, #36]	@ 0x24
 800795a:	f003 0320 	and.w	r3, r3, #32
 800795e:	2b00      	cmp	r3, #0
 8007960:	d00a      	beq.n	8007978 <UART_AdvFeatureConfig+0xd4>
 8007962:	687b      	ldr	r3, [r7, #4]
 8007964:	681b      	ldr	r3, [r3, #0]
 8007966:	689b      	ldr	r3, [r3, #8]
 8007968:	f423 5100 	bic.w	r1, r3, #8192	@ 0x2000
 800796c:	687b      	ldr	r3, [r7, #4]
 800796e:	6bda      	ldr	r2, [r3, #60]	@ 0x3c
 8007970:	687b      	ldr	r3, [r7, #4]
 8007972:	681b      	ldr	r3, [r3, #0]
 8007974:	430a      	orrs	r2, r1
 8007976:	609a      	str	r2, [r3, #8]
 8007978:	687b      	ldr	r3, [r7, #4]
 800797a:	6a5b      	ldr	r3, [r3, #36]	@ 0x24
 800797c:	f003 0340 	and.w	r3, r3, #64	@ 0x40
 8007980:	2b00      	cmp	r3, #0
 8007982:	d01a      	beq.n	80079ba <UART_AdvFeatureConfig+0x116>
 8007984:	687b      	ldr	r3, [r7, #4]
 8007986:	681b      	ldr	r3, [r3, #0]
 8007988:	685b      	ldr	r3, [r3, #4]
 800798a:	f423 1180 	bic.w	r1, r3, #1048576	@ 0x100000
 800798e:	687b      	ldr	r3, [r7, #4]
 8007990:	6c1a      	ldr	r2, [r3, #64]	@ 0x40
 8007992:	687b      	ldr	r3, [r7, #4]
 8007994:	681b      	ldr	r3, [r3, #0]
 8007996:	430a      	orrs	r2, r1
 8007998:	605a      	str	r2, [r3, #4]
 800799a:	687b      	ldr	r3, [r7, #4]
 800799c:	6c1b      	ldr	r3, [r3, #64]	@ 0x40
 800799e:	f5b3 1f80 	cmp.w	r3, #1048576	@ 0x100000
 80079a2:	d10a      	bne.n	80079ba <UART_AdvFeatureConfig+0x116>
 80079a4:	687b      	ldr	r3, [r7, #4]
 80079a6:	681b      	ldr	r3, [r3, #0]
 80079a8:	685b      	ldr	r3, [r3, #4]
 80079aa:	f423 01c0 	bic.w	r1, r3, #6291456	@ 0x600000
 80079ae:	687b      	ldr	r3, [r7, #4]
 80079b0:	6c5a      	ldr	r2, [r3, #68]	@ 0x44
 80079b2:	687b      	ldr	r3, [r7, #4]
 80079b4:	681b      	ldr	r3, [r3, #0]
 80079b6:	430a      	orrs	r2, r1
 80079b8:	605a      	str	r2, [r3, #4]
 80079ba:	687b      	ldr	r3, [r7, #4]
 80079bc:	6a5b      	ldr	r3, [r3, #36]	@ 0x24
 80079be:	f003 0380 	and.w	r3, r3, #128	@ 0x80
 80079c2:	2b00      	cmp	r3, #0
 80079c4:	d00a      	beq.n	80079dc <UART_AdvFeatureConfig+0x138>
 80079c6:	687b      	ldr	r3, [r7, #4]
 80079c8:	681b      	ldr	r3, [r3, #0]
 80079ca:	685b      	ldr	r3, [r3, #4]
 80079cc:	f423 2100 	bic.w	r1, r3, #524288	@ 0x80000
 80079d0:	687b      	ldr	r3, [r7, #4]
 80079d2:	6c9a      	ldr	r2, [r3, #72]	@ 0x48
 80079d4:	687b      	ldr	r3, [r7, #4]
 80079d6:	681b      	ldr	r3, [r3, #0]
 80079d8:	430a      	orrs	r2, r1
 80079da:	605a      	str	r2, [r3, #4]
 80079dc:	bf00      	nop
 80079de:	370c      	adds	r7, #12
 80079e0:	46bd      	mov	sp, r7
 80079e2:	f85d 7b04 	ldr.w	r7, [sp], #4
 80079e6:	4770      	bx	lr

080079e8 <UART_CheckIdleState>:
 80079e8:	b580      	push	{r7, lr}
 80079ea:	b08c      	sub	sp, #48	@ 0x30
 80079ec:	af02      	add	r7, sp, #8
 80079ee:	6078      	str	r0, [r7, #4]
 80079f0:	687b      	ldr	r3, [r7, #4]
 80079f2:	2200      	movs	r2, #0
 80079f4:	f8c3 2084 	str.w	r2, [r3, #132]	@ 0x84
 80079f8:	f7fb fb9c 	bl	8003134 <HAL_GetTick>
 80079fc:	6278      	str	r0, [r7, #36]	@ 0x24
 80079fe:	687b      	ldr	r3, [r7, #4]
 8007a00:	681b      	ldr	r3, [r3, #0]
 8007a02:	681b      	ldr	r3, [r3, #0]
 8007a04:	f003 0308 	and.w	r3, r3, #8
 8007a08:	2b08      	cmp	r3, #8
 8007a0a:	d12e      	bne.n	8007a6a <UART_CheckIdleState+0x82>
 8007a0c:	f06f 437e 	mvn.w	r3, #4261412864	@ 0xfe000000
 8007a10:	9300      	str	r3, [sp, #0]
 8007a12:	6a7b      	ldr	r3, [r7, #36]	@ 0x24
 8007a14:	2200      	movs	r2, #0
 8007a16:	f44f 1100 	mov.w	r1, #2097152	@ 0x200000
 8007a1a:	6878      	ldr	r0, [r7, #4]
 8007a1c:	f000 f83b 	bl	8007a96 <UART_WaitOnFlagUntilTimeout>
 8007a20:	4603      	mov	r3, r0
 8007a22:	2b00      	cmp	r3, #0
 8007a24:	d021      	beq.n	8007a6a <UART_CheckIdleState+0x82>
 8007a26:	687b      	ldr	r3, [r7, #4]
 8007a28:	681b      	ldr	r3, [r3, #0]
 8007a2a:	613b      	str	r3, [r7, #16]
 8007a2c:	693b      	ldr	r3, [r7, #16]
 8007a2e:	e853 3f00 	ldrex	r3, [r3]
 8007a32:	60fb      	str	r3, [r7, #12]
 8007a34:	68fb      	ldr	r3, [r7, #12]
 8007a36:	f023 0380 	bic.w	r3, r3, #128	@ 0x80
 8007a3a:	623b      	str	r3, [r7, #32]
 8007a3c:	687b      	ldr	r3, [r7, #4]
 8007a3e:	681b      	ldr	r3, [r3, #0]
 8007a40:	461a      	mov	r2, r3
 8007a42:	6a3b      	ldr	r3, [r7, #32]
 8007a44:	61fb      	str	r3, [r7, #28]
 8007a46:	61ba      	str	r2, [r7, #24]
 8007a48:	69b9      	ldr	r1, [r7, #24]
 8007a4a:	69fa      	ldr	r2, [r7, #28]
 8007a4c:	e841 2300 	strex	r3, r2, [r1]
 8007a50:	617b      	str	r3, [r7, #20]
 8007a52:	697b      	ldr	r3, [r7, #20]
 8007a54:	2b00      	cmp	r3, #0
 8007a56:	d1e6      	bne.n	8007a26 <UART_CheckIdleState+0x3e>
 8007a58:	687b      	ldr	r3, [r7, #4]
 8007a5a:	2220      	movs	r2, #32
 8007a5c:	67da      	str	r2, [r3, #124]	@ 0x7c
 8007a5e:	687b      	ldr	r3, [r7, #4]
 8007a60:	2200      	movs	r2, #0
 8007a62:	f883 2078 	strb.w	r2, [r3, #120]	@ 0x78
 8007a66:	2303      	movs	r3, #3
 8007a68:	e011      	b.n	8007a8e <UART_CheckIdleState+0xa6>
 8007a6a:	687b      	ldr	r3, [r7, #4]
 8007a6c:	2220      	movs	r2, #32
 8007a6e:	67da      	str	r2, [r3, #124]	@ 0x7c
 8007a70:	687b      	ldr	r3, [r7, #4]
 8007a72:	2220      	movs	r2, #32
 8007a74:	f8c3 2080 	str.w	r2, [r3, #128]	@ 0x80
 8007a78:	687b      	ldr	r3, [r7, #4]
 8007a7a:	2200      	movs	r2, #0
 8007a7c:	661a      	str	r2, [r3, #96]	@ 0x60
 8007a7e:	687b      	ldr	r3, [r7, #4]
 8007a80:	2200      	movs	r2, #0
 8007a82:	665a      	str	r2, [r3, #100]	@ 0x64
 8007a84:	687b      	ldr	r3, [r7, #4]
 8007a86:	2200      	movs	r2, #0
 8007a88:	f883 2078 	strb.w	r2, [r3, #120]	@ 0x78
 8007a8c:	2300      	movs	r3, #0
 8007a8e:	4618      	mov	r0, r3
 8007a90:	3728      	adds	r7, #40	@ 0x28
 8007a92:	46bd      	mov	sp, r7
 8007a94:	bd80      	pop	{r7, pc}

08007a96 <UART_WaitOnFlagUntilTimeout>:
 8007a96:	b580      	push	{r7, lr}
 8007a98:	b084      	sub	sp, #16
 8007a9a:	af00      	add	r7, sp, #0
 8007a9c:	60f8      	str	r0, [r7, #12]
 8007a9e:	60b9      	str	r1, [r7, #8]
 8007aa0:	603b      	str	r3, [r7, #0]
 8007aa2:	4613      	mov	r3, r2
 8007aa4:	71fb      	strb	r3, [r7, #7]
 8007aa6:	e04f      	b.n	8007b48 <UART_WaitOnFlagUntilTimeout+0xb2>
 8007aa8:	69bb      	ldr	r3, [r7, #24]
 8007aaa:	f1b3 3fff 	cmp.w	r3, #4294967295
 8007aae:	d04b      	beq.n	8007b48 <UART_WaitOnFlagUntilTimeout+0xb2>
 8007ab0:	f7fb fb40 	bl	8003134 <HAL_GetTick>
 8007ab4:	4602      	mov	r2, r0
 8007ab6:	683b      	ldr	r3, [r7, #0]
 8007ab8:	1ad3      	subs	r3, r2, r3
 8007aba:	69ba      	ldr	r2, [r7, #24]
 8007abc:	429a      	cmp	r2, r3
 8007abe:	d302      	bcc.n	8007ac6 <UART_WaitOnFlagUntilTimeout+0x30>
 8007ac0:	69bb      	ldr	r3, [r7, #24]
 8007ac2:	2b00      	cmp	r3, #0
 8007ac4:	d101      	bne.n	8007aca <UART_WaitOnFlagUntilTimeout+0x34>
 8007ac6:	2303      	movs	r3, #3
 8007ac8:	e04e      	b.n	8007b68 <UART_WaitOnFlagUntilTimeout+0xd2>
 8007aca:	68fb      	ldr	r3, [r7, #12]
 8007acc:	681b      	ldr	r3, [r3, #0]
 8007ace:	681b      	ldr	r3, [r3, #0]
 8007ad0:	f003 0304 	and.w	r3, r3, #4
 8007ad4:	2b00      	cmp	r3, #0
 8007ad6:	d037      	beq.n	8007b48 <UART_WaitOnFlagUntilTimeout+0xb2>
 8007ad8:	68bb      	ldr	r3, [r7, #8]
 8007ada:	2b80      	cmp	r3, #128	@ 0x80
 8007adc:	d034      	beq.n	8007b48 <UART_WaitOnFlagUntilTimeout+0xb2>
 8007ade:	68bb      	ldr	r3, [r7, #8]
 8007ae0:	2b40      	cmp	r3, #64	@ 0x40
 8007ae2:	d031      	beq.n	8007b48 <UART_WaitOnFlagUntilTimeout+0xb2>
 8007ae4:	68fb      	ldr	r3, [r7, #12]
 8007ae6:	681b      	ldr	r3, [r3, #0]
 8007ae8:	69db      	ldr	r3, [r3, #28]
 8007aea:	f003 0308 	and.w	r3, r3, #8
 8007aee:	2b08      	cmp	r3, #8
 8007af0:	d110      	bne.n	8007b14 <UART_WaitOnFlagUntilTimeout+0x7e>
 8007af2:	68fb      	ldr	r3, [r7, #12]
 8007af4:	681b      	ldr	r3, [r3, #0]
 8007af6:	2208      	movs	r2, #8
 8007af8:	621a      	str	r2, [r3, #32]
 8007afa:	68f8      	ldr	r0, [r7, #12]
 8007afc:	f000 f838 	bl	8007b70 <UART_EndRxTransfer>
 8007b00:	68fb      	ldr	r3, [r7, #12]
 8007b02:	2208      	movs	r2, #8
 8007b04:	f8c3 2084 	str.w	r2, [r3, #132]	@ 0x84
 8007b08:	68fb      	ldr	r3, [r7, #12]
 8007b0a:	2200      	movs	r2, #0
 8007b0c:	f883 2078 	strb.w	r2, [r3, #120]	@ 0x78
 8007b10:	2301      	movs	r3, #1
 8007b12:	e029      	b.n	8007b68 <UART_WaitOnFlagUntilTimeout+0xd2>
 8007b14:	68fb      	ldr	r3, [r7, #12]
 8007b16:	681b      	ldr	r3, [r3, #0]
 8007b18:	69db      	ldr	r3, [r3, #28]
 8007b1a:	f403 6300 	and.w	r3, r3, #2048	@ 0x800
 8007b1e:	f5b3 6f00 	cmp.w	r3, #2048	@ 0x800
 8007b22:	d111      	bne.n	8007b48 <UART_WaitOnFlagUntilTimeout+0xb2>
 8007b24:	68fb      	ldr	r3, [r7, #12]
 8007b26:	681b      	ldr	r3, [r3, #0]
 8007b28:	f44f 6200 	mov.w	r2, #2048	@ 0x800
 8007b2c:	621a      	str	r2, [r3, #32]
 8007b2e:	68f8      	ldr	r0, [r7, #12]
 8007b30:	f000 f81e 	bl	8007b70 <UART_EndRxTransfer>
 8007b34:	68fb      	ldr	r3, [r7, #12]
 8007b36:	2220      	movs	r2, #32
 8007b38:	f8c3 2084 	str.w	r2, [r3, #132]	@ 0x84
 8007b3c:	68fb      	ldr	r3, [r7, #12]
 8007b3e:	2200      	movs	r2, #0
 8007b40:	f883 2078 	strb.w	r2, [r3, #120]	@ 0x78
 8007b44:	2303      	movs	r3, #3
 8007b46:	e00f      	b.n	8007b68 <UART_WaitOnFlagUntilTimeout+0xd2>
 8007b48:	68fb      	ldr	r3, [r7, #12]
 8007b4a:	681b      	ldr	r3, [r3, #0]
 8007b4c:	69da      	ldr	r2, [r3, #28]
 8007b4e:	68bb      	ldr	r3, [r7, #8]
 8007b50:	4013      	ands	r3, r2
 8007b52:	68ba      	ldr	r2, [r7, #8]
 8007b54:	429a      	cmp	r2, r3
 8007b56:	bf0c      	ite	eq
 8007b58:	2301      	moveq	r3, #1
 8007b5a:	2300      	movne	r3, #0
 8007b5c:	b2db      	uxtb	r3, r3
 8007b5e:	461a      	mov	r2, r3
 8007b60:	79fb      	ldrb	r3, [r7, #7]
 8007b62:	429a      	cmp	r2, r3
 8007b64:	d0a0      	beq.n	8007aa8 <UART_WaitOnFlagUntilTimeout+0x12>
 8007b66:	2300      	movs	r3, #0
 8007b68:	4618      	mov	r0, r3
 8007b6a:	3710      	adds	r7, #16
 8007b6c:	46bd      	mov	sp, r7
 8007b6e:	bd80      	pop	{r7, pc}

08007b70 <UART_EndRxTransfer>:
 8007b70:	b480      	push	{r7}
 8007b72:	b095      	sub	sp, #84	@ 0x54
 8007b74:	af00      	add	r7, sp, #0
 8007b76:	6078      	str	r0, [r7, #4]
 8007b78:	687b      	ldr	r3, [r7, #4]
 8007b7a:	681b      	ldr	r3, [r3, #0]
 8007b7c:	637b      	str	r3, [r7, #52]	@ 0x34
 8007b7e:	6b7b      	ldr	r3, [r7, #52]	@ 0x34
 8007b80:	e853 3f00 	ldrex	r3, [r3]
 8007b84:	633b      	str	r3, [r7, #48]	@ 0x30
 8007b86:	6b3b      	ldr	r3, [r7, #48]	@ 0x30
 8007b88:	f423 7390 	bic.w	r3, r3, #288	@ 0x120
 8007b8c:	64fb      	str	r3, [r7, #76]	@ 0x4c
 8007b8e:	687b      	ldr	r3, [r7, #4]
 8007b90:	681b      	ldr	r3, [r3, #0]
 8007b92:	461a      	mov	r2, r3
 8007b94:	6cfb      	ldr	r3, [r7, #76]	@ 0x4c
 8007b96:	643b      	str	r3, [r7, #64]	@ 0x40
 8007b98:	63fa      	str	r2, [r7, #60]	@ 0x3c
 8007b9a:	6bf9      	ldr	r1, [r7, #60]	@ 0x3c
 8007b9c:	6c3a      	ldr	r2, [r7, #64]	@ 0x40
 8007b9e:	e841 2300 	strex	r3, r2, [r1]
 8007ba2:	63bb      	str	r3, [r7, #56]	@ 0x38
 8007ba4:	6bbb      	ldr	r3, [r7, #56]	@ 0x38
 8007ba6:	2b00      	cmp	r3, #0
 8007ba8:	d1e6      	bne.n	8007b78 <UART_EndRxTransfer+0x8>
 8007baa:	687b      	ldr	r3, [r7, #4]
 8007bac:	681b      	ldr	r3, [r3, #0]
 8007bae:	3308      	adds	r3, #8
 8007bb0:	623b      	str	r3, [r7, #32]
 8007bb2:	6a3b      	ldr	r3, [r7, #32]
 8007bb4:	e853 3f00 	ldrex	r3, [r3]
 8007bb8:	61fb      	str	r3, [r7, #28]
 8007bba:	69fb      	ldr	r3, [r7, #28]
 8007bbc:	f023 0301 	bic.w	r3, r3, #1
 8007bc0:	64bb      	str	r3, [r7, #72]	@ 0x48
 8007bc2:	687b      	ldr	r3, [r7, #4]
 8007bc4:	681b      	ldr	r3, [r3, #0]
 8007bc6:	3308      	adds	r3, #8
 8007bc8:	6cba      	ldr	r2, [r7, #72]	@ 0x48
 8007bca:	62fa      	str	r2, [r7, #44]	@ 0x2c
 8007bcc:	62bb      	str	r3, [r7, #40]	@ 0x28
 8007bce:	6ab9      	ldr	r1, [r7, #40]	@ 0x28
 8007bd0:	6afa      	ldr	r2, [r7, #44]	@ 0x2c
 8007bd2:	e841 2300 	strex	r3, r2, [r1]
 8007bd6:	627b      	str	r3, [r7, #36]	@ 0x24
 8007bd8:	6a7b      	ldr	r3, [r7, #36]	@ 0x24
 8007bda:	2b00      	cmp	r3, #0
 8007bdc:	d1e5      	bne.n	8007baa <UART_EndRxTransfer+0x3a>
 8007bde:	687b      	ldr	r3, [r7, #4]
 8007be0:	6e1b      	ldr	r3, [r3, #96]	@ 0x60
 8007be2:	2b01      	cmp	r3, #1
 8007be4:	d118      	bne.n	8007c18 <UART_EndRxTransfer+0xa8>
 8007be6:	687b      	ldr	r3, [r7, #4]
 8007be8:	681b      	ldr	r3, [r3, #0]
 8007bea:	60fb      	str	r3, [r7, #12]
 8007bec:	68fb      	ldr	r3, [r7, #12]
 8007bee:	e853 3f00 	ldrex	r3, [r3]
 8007bf2:	60bb      	str	r3, [r7, #8]
 8007bf4:	68bb      	ldr	r3, [r7, #8]
 8007bf6:	f023 0310 	bic.w	r3, r3, #16
 8007bfa:	647b      	str	r3, [r7, #68]	@ 0x44
 8007bfc:	687b      	ldr	r3, [r7, #4]
 8007bfe:	681b      	ldr	r3, [r3, #0]
 8007c00:	461a      	mov	r2, r3
 8007c02:	6c7b      	ldr	r3, [r7, #68]	@ 0x44
 8007c04:	61bb      	str	r3, [r7, #24]
 8007c06:	617a      	str	r2, [r7, #20]
 8007c08:	6979      	ldr	r1, [r7, #20]
 8007c0a:	69ba      	ldr	r2, [r7, #24]
 8007c0c:	e841 2300 	strex	r3, r2, [r1]
 8007c10:	613b      	str	r3, [r7, #16]
 8007c12:	693b      	ldr	r3, [r7, #16]
 8007c14:	2b00      	cmp	r3, #0
 8007c16:	d1e6      	bne.n	8007be6 <UART_EndRxTransfer+0x76>
 8007c18:	687b      	ldr	r3, [r7, #4]
 8007c1a:	2220      	movs	r2, #32
 8007c1c:	f8c3 2080 	str.w	r2, [r3, #128]	@ 0x80
 8007c20:	687b      	ldr	r3, [r7, #4]
 8007c22:	2200      	movs	r2, #0
 8007c24:	661a      	str	r2, [r3, #96]	@ 0x60
 8007c26:	687b      	ldr	r3, [r7, #4]
 8007c28:	2200      	movs	r2, #0
 8007c2a:	669a      	str	r2, [r3, #104]	@ 0x68
 8007c2c:	bf00      	nop
 8007c2e:	3754      	adds	r7, #84	@ 0x54
 8007c30:	46bd      	mov	sp, r7
 8007c32:	f85d 7b04 	ldr.w	r7, [sp], #4
 8007c36:	4770      	bx	lr

08007c38 <USB_CoreInit>:
 8007c38:	b084      	sub	sp, #16
 8007c3a:	b580      	push	{r7, lr}
 8007c3c:	b084      	sub	sp, #16
 8007c3e:	af00      	add	r7, sp, #0
 8007c40:	6078      	str	r0, [r7, #4]
 8007c42:	f107 001c 	add.w	r0, r7, #28
 8007c46:	e880 000e 	stmia.w	r0, {r1, r2, r3}
 8007c4a:	f897 3021 	ldrb.w	r3, [r7, #33]	@ 0x21
 8007c4e:	2b01      	cmp	r3, #1
 8007c50:	d121      	bne.n	8007c96 <USB_CoreInit+0x5e>
 8007c52:	687b      	ldr	r3, [r7, #4]
 8007c54:	6b9b      	ldr	r3, [r3, #56]	@ 0x38
 8007c56:	f423 3280 	bic.w	r2, r3, #65536	@ 0x10000
 8007c5a:	687b      	ldr	r3, [r7, #4]
 8007c5c:	639a      	str	r2, [r3, #56]	@ 0x38
 8007c5e:	687b      	ldr	r3, [r7, #4]
 8007c60:	68da      	ldr	r2, [r3, #12]
 8007c62:	4b21      	ldr	r3, [pc, #132]	@ (8007ce8 <USB_CoreInit+0xb0>)
 8007c64:	4013      	ands	r3, r2
 8007c66:	687a      	ldr	r2, [r7, #4]
 8007c68:	60d3      	str	r3, [r2, #12]
 8007c6a:	687b      	ldr	r3, [r7, #4]
 8007c6c:	68db      	ldr	r3, [r3, #12]
 8007c6e:	f423 1240 	bic.w	r2, r3, #3145728	@ 0x300000
 8007c72:	687b      	ldr	r3, [r7, #4]
 8007c74:	60da      	str	r2, [r3, #12]
 8007c76:	f897 3028 	ldrb.w	r3, [r7, #40]	@ 0x28
 8007c7a:	2b01      	cmp	r3, #1
 8007c7c:	d105      	bne.n	8007c8a <USB_CoreInit+0x52>
 8007c7e:	687b      	ldr	r3, [r7, #4]
 8007c80:	68db      	ldr	r3, [r3, #12]
 8007c82:	f443 1280 	orr.w	r2, r3, #1048576	@ 0x100000
 8007c86:	687b      	ldr	r3, [r7, #4]
 8007c88:	60da      	str	r2, [r3, #12]
 8007c8a:	6878      	ldr	r0, [r7, #4]
 8007c8c:	f000 fa92 	bl	80081b4 <USB_CoreReset>
 8007c90:	4603      	mov	r3, r0
 8007c92:	73fb      	strb	r3, [r7, #15]
 8007c94:	e010      	b.n	8007cb8 <USB_CoreInit+0x80>
 8007c96:	687b      	ldr	r3, [r7, #4]
 8007c98:	68db      	ldr	r3, [r3, #12]
 8007c9a:	f043 0240 	orr.w	r2, r3, #64	@ 0x40
 8007c9e:	687b      	ldr	r3, [r7, #4]
 8007ca0:	60da      	str	r2, [r3, #12]
 8007ca2:	6878      	ldr	r0, [r7, #4]
 8007ca4:	f000 fa86 	bl	80081b4 <USB_CoreReset>
 8007ca8:	4603      	mov	r3, r0
 8007caa:	73fb      	strb	r3, [r7, #15]
 8007cac:	687b      	ldr	r3, [r7, #4]
 8007cae:	6b9b      	ldr	r3, [r3, #56]	@ 0x38
 8007cb0:	f443 3280 	orr.w	r2, r3, #65536	@ 0x10000
 8007cb4:	687b      	ldr	r3, [r7, #4]
 8007cb6:	639a      	str	r2, [r3, #56]	@ 0x38
 8007cb8:	7fbb      	ldrb	r3, [r7, #30]
 8007cba:	2b01      	cmp	r3, #1
 8007cbc:	d10b      	bne.n	8007cd6 <USB_CoreInit+0x9e>
 8007cbe:	687b      	ldr	r3, [r7, #4]
 8007cc0:	689b      	ldr	r3, [r3, #8]
 8007cc2:	f043 0206 	orr.w	r2, r3, #6
 8007cc6:	687b      	ldr	r3, [r7, #4]
 8007cc8:	609a      	str	r2, [r3, #8]
 8007cca:	687b      	ldr	r3, [r7, #4]
 8007ccc:	689b      	ldr	r3, [r3, #8]
 8007cce:	f043 0220 	orr.w	r2, r3, #32
 8007cd2:	687b      	ldr	r3, [r7, #4]
 8007cd4:	609a      	str	r2, [r3, #8]
 8007cd6:	7bfb      	ldrb	r3, [r7, #15]
 8007cd8:	4618      	mov	r0, r3
 8007cda:	3710      	adds	r7, #16
 8007cdc:	46bd      	mov	sp, r7
 8007cde:	e8bd 4080 	ldmia.w	sp!, {r7, lr}
 8007ce2:	b004      	add	sp, #16
 8007ce4:	4770      	bx	lr
 8007ce6:	bf00      	nop
 8007ce8:	ffbdffbf 	.word	0xffbdffbf

08007cec <USB_DisableGlobalInt>:
 8007cec:	b480      	push	{r7}
 8007cee:	b083      	sub	sp, #12
 8007cf0:	af00      	add	r7, sp, #0
 8007cf2:	6078      	str	r0, [r7, #4]
 8007cf4:	687b      	ldr	r3, [r7, #4]
 8007cf6:	689b      	ldr	r3, [r3, #8]
 8007cf8:	f023 0201 	bic.w	r2, r3, #1
 8007cfc:	687b      	ldr	r3, [r7, #4]
 8007cfe:	609a      	str	r2, [r3, #8]
 8007d00:	2300      	movs	r3, #0
 8007d02:	4618      	mov	r0, r3
 8007d04:	370c      	adds	r7, #12
 8007d06:	46bd      	mov	sp, r7
 8007d08:	f85d 7b04 	ldr.w	r7, [sp], #4
 8007d0c:	4770      	bx	lr

08007d0e <USB_SetCurrentMode>:
 8007d0e:	b580      	push	{r7, lr}
 8007d10:	b084      	sub	sp, #16
 8007d12:	af00      	add	r7, sp, #0
 8007d14:	6078      	str	r0, [r7, #4]
 8007d16:	460b      	mov	r3, r1
 8007d18:	70fb      	strb	r3, [r7, #3]
 8007d1a:	2300      	movs	r3, #0
 8007d1c:	60fb      	str	r3, [r7, #12]
 8007d1e:	687b      	ldr	r3, [r7, #4]
 8007d20:	68db      	ldr	r3, [r3, #12]
 8007d22:	f023 42c0 	bic.w	r2, r3, #1610612736	@ 0x60000000
 8007d26:	687b      	ldr	r3, [r7, #4]
 8007d28:	60da      	str	r2, [r3, #12]
 8007d2a:	78fb      	ldrb	r3, [r7, #3]
 8007d2c:	2b01      	cmp	r3, #1
 8007d2e:	d115      	bne.n	8007d5c <USB_SetCurrentMode+0x4e>
 8007d30:	687b      	ldr	r3, [r7, #4]
 8007d32:	68db      	ldr	r3, [r3, #12]
 8007d34:	f043 5200 	orr.w	r2, r3, #536870912	@ 0x20000000
 8007d38:	687b      	ldr	r3, [r7, #4]
 8007d3a:	60da      	str	r2, [r3, #12]
 8007d3c:	200a      	movs	r0, #10
 8007d3e:	f7fb fa05 	bl	800314c <HAL_Delay>
 8007d42:	68fb      	ldr	r3, [r7, #12]
 8007d44:	330a      	adds	r3, #10
 8007d46:	60fb      	str	r3, [r7, #12]
 8007d48:	6878      	ldr	r0, [r7, #4]
 8007d4a:	f000 fa25 	bl	8008198 <USB_GetMode>
 8007d4e:	4603      	mov	r3, r0
 8007d50:	2b01      	cmp	r3, #1
 8007d52:	d01e      	beq.n	8007d92 <USB_SetCurrentMode+0x84>
 8007d54:	68fb      	ldr	r3, [r7, #12]
 8007d56:	2bc7      	cmp	r3, #199	@ 0xc7
 8007d58:	d9f0      	bls.n	8007d3c <USB_SetCurrentMode+0x2e>
 8007d5a:	e01a      	b.n	8007d92 <USB_SetCurrentMode+0x84>
 8007d5c:	78fb      	ldrb	r3, [r7, #3]
 8007d5e:	2b00      	cmp	r3, #0
 8007d60:	d115      	bne.n	8007d8e <USB_SetCurrentMode+0x80>
 8007d62:	687b      	ldr	r3, [r7, #4]
 8007d64:	68db      	ldr	r3, [r3, #12]
 8007d66:	f043 4280 	orr.w	r2, r3, #1073741824	@ 0x40000000
 8007d6a:	687b      	ldr	r3, [r7, #4]
 8007d6c:	60da      	str	r2, [r3, #12]
 8007d6e:	200a      	movs	r0, #10
 8007d70:	f7fb f9ec 	bl	800314c <HAL_Delay>
 8007d74:	68fb      	ldr	r3, [r7, #12]
 8007d76:	330a      	adds	r3, #10
 8007d78:	60fb      	str	r3, [r7, #12]
 8007d7a:	6878      	ldr	r0, [r7, #4]
 8007d7c:	f000 fa0c 	bl	8008198 <USB_GetMode>
 8007d80:	4603      	mov	r3, r0
 8007d82:	2b00      	cmp	r3, #0
 8007d84:	d005      	beq.n	8007d92 <USB_SetCurrentMode+0x84>
 8007d86:	68fb      	ldr	r3, [r7, #12]
 8007d88:	2bc7      	cmp	r3, #199	@ 0xc7
 8007d8a:	d9f0      	bls.n	8007d6e <USB_SetCurrentMode+0x60>
 8007d8c:	e001      	b.n	8007d92 <USB_SetCurrentMode+0x84>
 8007d8e:	2301      	movs	r3, #1
 8007d90:	e005      	b.n	8007d9e <USB_SetCurrentMode+0x90>
 8007d92:	68fb      	ldr	r3, [r7, #12]
 8007d94:	2bc8      	cmp	r3, #200	@ 0xc8
 8007d96:	d101      	bne.n	8007d9c <USB_SetCurrentMode+0x8e>
 8007d98:	2301      	movs	r3, #1
 8007d9a:	e000      	b.n	8007d9e <USB_SetCurrentMode+0x90>
 8007d9c:	2300      	movs	r3, #0
 8007d9e:	4618      	mov	r0, r3
 8007da0:	3710      	adds	r7, #16
 8007da2:	46bd      	mov	sp, r7
 8007da4:	bd80      	pop	{r7, pc}
	...

08007da8 <USB_DevInit>:
 8007da8:	b084      	sub	sp, #16
 8007daa:	b580      	push	{r7, lr}
 8007dac:	b086      	sub	sp, #24
 8007dae:	af00      	add	r7, sp, #0
 8007db0:	6078      	str	r0, [r7, #4]
 8007db2:	f107 0024 	add.w	r0, r7, #36	@ 0x24
 8007db6:	e880 000e 	stmia.w	r0, {r1, r2, r3}
 8007dba:	2300      	movs	r3, #0
 8007dbc:	75fb      	strb	r3, [r7, #23]
 8007dbe:	687b      	ldr	r3, [r7, #4]
 8007dc0:	60fb      	str	r3, [r7, #12]
 8007dc2:	2300      	movs	r3, #0
 8007dc4:	613b      	str	r3, [r7, #16]
 8007dc6:	e009      	b.n	8007ddc <USB_DevInit+0x34>
 8007dc8:	687a      	ldr	r2, [r7, #4]
 8007dca:	693b      	ldr	r3, [r7, #16]
 8007dcc:	3340      	adds	r3, #64	@ 0x40
 8007dce:	009b      	lsls	r3, r3, #2
 8007dd0:	4413      	add	r3, r2
 8007dd2:	2200      	movs	r2, #0
 8007dd4:	605a      	str	r2, [r3, #4]
 8007dd6:	693b      	ldr	r3, [r7, #16]
 8007dd8:	3301      	adds	r3, #1
 8007dda:	613b      	str	r3, [r7, #16]
 8007ddc:	693b      	ldr	r3, [r7, #16]
 8007dde:	2b0e      	cmp	r3, #14
 8007de0:	d9f2      	bls.n	8007dc8 <USB_DevInit+0x20>
 8007de2:	f897 302e 	ldrb.w	r3, [r7, #46]	@ 0x2e
 8007de6:	2b00      	cmp	r3, #0
 8007de8:	d11c      	bne.n	8007e24 <USB_DevInit+0x7c>
 8007dea:	68fb      	ldr	r3, [r7, #12]
 8007dec:	f503 6300 	add.w	r3, r3, #2048	@ 0x800
 8007df0:	685b      	ldr	r3, [r3, #4]
 8007df2:	68fa      	ldr	r2, [r7, #12]
 8007df4:	f502 6200 	add.w	r2, r2, #2048	@ 0x800
 8007df8:	f043 0302 	orr.w	r3, r3, #2
 8007dfc:	6053      	str	r3, [r2, #4]
 8007dfe:	687b      	ldr	r3, [r7, #4]
 8007e00:	6b9b      	ldr	r3, [r3, #56]	@ 0x38
 8007e02:	f423 1200 	bic.w	r2, r3, #2097152	@ 0x200000
 8007e06:	687b      	ldr	r3, [r7, #4]
 8007e08:	639a      	str	r2, [r3, #56]	@ 0x38
 8007e0a:	687b      	ldr	r3, [r7, #4]
 8007e0c:	681b      	ldr	r3, [r3, #0]
 8007e0e:	f043 0240 	orr.w	r2, r3, #64	@ 0x40
 8007e12:	687b      	ldr	r3, [r7, #4]
 8007e14:	601a      	str	r2, [r3, #0]
 8007e16:	687b      	ldr	r3, [r7, #4]
 8007e18:	681b      	ldr	r3, [r3, #0]
 8007e1a:	f043 0280 	orr.w	r2, r3, #128	@ 0x80
 8007e1e:	687b      	ldr	r3, [r7, #4]
 8007e20:	601a      	str	r2, [r3, #0]
 8007e22:	e005      	b.n	8007e30 <USB_DevInit+0x88>
 8007e24:	687b      	ldr	r3, [r7, #4]
 8007e26:	6b9b      	ldr	r3, [r3, #56]	@ 0x38
 8007e28:	f443 1200 	orr.w	r2, r3, #2097152	@ 0x200000
 8007e2c:	687b      	ldr	r3, [r7, #4]
 8007e2e:	639a      	str	r2, [r3, #56]	@ 0x38
 8007e30:	68fb      	ldr	r3, [r7, #12]
 8007e32:	f503 6360 	add.w	r3, r3, #3584	@ 0xe00
 8007e36:	461a      	mov	r2, r3
 8007e38:	2300      	movs	r3, #0
 8007e3a:	6013      	str	r3, [r2, #0]
 8007e3c:	f897 3029 	ldrb.w	r3, [r7, #41]	@ 0x29
 8007e40:	2b01      	cmp	r3, #1
 8007e42:	d10d      	bne.n	8007e60 <USB_DevInit+0xb8>
 8007e44:	f897 3027 	ldrb.w	r3, [r7, #39]	@ 0x27
 8007e48:	2b00      	cmp	r3, #0
 8007e4a:	d104      	bne.n	8007e56 <USB_DevInit+0xae>
 8007e4c:	2100      	movs	r1, #0
 8007e4e:	6878      	ldr	r0, [r7, #4]
 8007e50:	f000 f968 	bl	8008124 <USB_SetDevSpeed>
 8007e54:	e008      	b.n	8007e68 <USB_DevInit+0xc0>
 8007e56:	2101      	movs	r1, #1
 8007e58:	6878      	ldr	r0, [r7, #4]
 8007e5a:	f000 f963 	bl	8008124 <USB_SetDevSpeed>
 8007e5e:	e003      	b.n	8007e68 <USB_DevInit+0xc0>
 8007e60:	2103      	movs	r1, #3
 8007e62:	6878      	ldr	r0, [r7, #4]
 8007e64:	f000 f95e 	bl	8008124 <USB_SetDevSpeed>
 8007e68:	2110      	movs	r1, #16
 8007e6a:	6878      	ldr	r0, [r7, #4]
 8007e6c:	f000 f8fa 	bl	8008064 <USB_FlushTxFifo>
 8007e70:	4603      	mov	r3, r0
 8007e72:	2b00      	cmp	r3, #0
 8007e74:	d001      	beq.n	8007e7a <USB_DevInit+0xd2>
 8007e76:	2301      	movs	r3, #1
 8007e78:	75fb      	strb	r3, [r7, #23]
 8007e7a:	6878      	ldr	r0, [r7, #4]
 8007e7c:	f000 f924 	bl	80080c8 <USB_FlushRxFifo>
 8007e80:	4603      	mov	r3, r0
 8007e82:	2b00      	cmp	r3, #0
 8007e84:	d001      	beq.n	8007e8a <USB_DevInit+0xe2>
 8007e86:	2301      	movs	r3, #1
 8007e88:	75fb      	strb	r3, [r7, #23]
 8007e8a:	68fb      	ldr	r3, [r7, #12]
 8007e8c:	f503 6300 	add.w	r3, r3, #2048	@ 0x800
 8007e90:	461a      	mov	r2, r3
 8007e92:	2300      	movs	r3, #0
 8007e94:	6113      	str	r3, [r2, #16]
 8007e96:	68fb      	ldr	r3, [r7, #12]
 8007e98:	f503 6300 	add.w	r3, r3, #2048	@ 0x800
 8007e9c:	461a      	mov	r2, r3
 8007e9e:	2300      	movs	r3, #0
 8007ea0:	6153      	str	r3, [r2, #20]
 8007ea2:	68fb      	ldr	r3, [r7, #12]
 8007ea4:	f503 6300 	add.w	r3, r3, #2048	@ 0x800
 8007ea8:	461a      	mov	r2, r3
 8007eaa:	2300      	movs	r3, #0
 8007eac:	61d3      	str	r3, [r2, #28]
 8007eae:	2300      	movs	r3, #0
 8007eb0:	613b      	str	r3, [r7, #16]
 8007eb2:	e043      	b.n	8007f3c <USB_DevInit+0x194>
 8007eb4:	693b      	ldr	r3, [r7, #16]
 8007eb6:	015a      	lsls	r2, r3, #5
 8007eb8:	68fb      	ldr	r3, [r7, #12]
 8007eba:	4413      	add	r3, r2
 8007ebc:	f503 6310 	add.w	r3, r3, #2304	@ 0x900
 8007ec0:	681b      	ldr	r3, [r3, #0]
 8007ec2:	f003 4300 	and.w	r3, r3, #2147483648	@ 0x80000000
 8007ec6:	f1b3 4f00 	cmp.w	r3, #2147483648	@ 0x80000000
 8007eca:	d118      	bne.n	8007efe <USB_DevInit+0x156>
 8007ecc:	693b      	ldr	r3, [r7, #16]
 8007ece:	2b00      	cmp	r3, #0
 8007ed0:	d10a      	bne.n	8007ee8 <USB_DevInit+0x140>
 8007ed2:	693b      	ldr	r3, [r7, #16]
 8007ed4:	015a      	lsls	r2, r3, #5
 8007ed6:	68fb      	ldr	r3, [r7, #12]
 8007ed8:	4413      	add	r3, r2
 8007eda:	f503 6310 	add.w	r3, r3, #2304	@ 0x900
 8007ede:	461a      	mov	r2, r3
 8007ee0:	f04f 6300 	mov.w	r3, #134217728	@ 0x8000000
 8007ee4:	6013      	str	r3, [r2, #0]
 8007ee6:	e013      	b.n	8007f10 <USB_DevInit+0x168>
 8007ee8:	693b      	ldr	r3, [r7, #16]
 8007eea:	015a      	lsls	r2, r3, #5
 8007eec:	68fb      	ldr	r3, [r7, #12]
 8007eee:	4413      	add	r3, r2
 8007ef0:	f503 6310 	add.w	r3, r3, #2304	@ 0x900
 8007ef4:	461a      	mov	r2, r3
 8007ef6:	f04f 4390 	mov.w	r3, #1207959552	@ 0x48000000
 8007efa:	6013      	str	r3, [r2, #0]
 8007efc:	e008      	b.n	8007f10 <USB_DevInit+0x168>
 8007efe:	693b      	ldr	r3, [r7, #16]
 8007f00:	015a      	lsls	r2, r3, #5
 8007f02:	68fb      	ldr	r3, [r7, #12]
 8007f04:	4413      	add	r3, r2
 8007f06:	f503 6310 	add.w	r3, r3, #2304	@ 0x900
 8007f0a:	461a      	mov	r2, r3
 8007f0c:	2300      	movs	r3, #0
 8007f0e:	6013      	str	r3, [r2, #0]
 8007f10:	693b      	ldr	r3, [r7, #16]
 8007f12:	015a      	lsls	r2, r3, #5
 8007f14:	68fb      	ldr	r3, [r7, #12]
 8007f16:	4413      	add	r3, r2
 8007f18:	f503 6310 	add.w	r3, r3, #2304	@ 0x900
 8007f1c:	461a      	mov	r2, r3
 8007f1e:	2300      	movs	r3, #0
 8007f20:	6113      	str	r3, [r2, #16]
 8007f22:	693b      	ldr	r3, [r7, #16]
 8007f24:	015a      	lsls	r2, r3, #5
 8007f26:	68fb      	ldr	r3, [r7, #12]
 8007f28:	4413      	add	r3, r2
 8007f2a:	f503 6310 	add.w	r3, r3, #2304	@ 0x900
 8007f2e:	461a      	mov	r2, r3
 8007f30:	f64f 337f 	movw	r3, #64383	@ 0xfb7f
 8007f34:	6093      	str	r3, [r2, #8]
 8007f36:	693b      	ldr	r3, [r7, #16]
 8007f38:	3301      	adds	r3, #1
 8007f3a:	613b      	str	r3, [r7, #16]
 8007f3c:	f897 3024 	ldrb.w	r3, [r7, #36]	@ 0x24
 8007f40:	461a      	mov	r2, r3
 8007f42:	693b      	ldr	r3, [r7, #16]
 8007f44:	4293      	cmp	r3, r2
 8007f46:	d3b5      	bcc.n	8007eb4 <USB_DevInit+0x10c>
 8007f48:	2300      	movs	r3, #0
 8007f4a:	613b      	str	r3, [r7, #16]
 8007f4c:	e043      	b.n	8007fd6 <USB_DevInit+0x22e>
 8007f4e:	693b      	ldr	r3, [r7, #16]
 8007f50:	015a      	lsls	r2, r3, #5
 8007f52:	68fb      	ldr	r3, [r7, #12]
 8007f54:	4413      	add	r3, r2
 8007f56:	f503 6330 	add.w	r3, r3, #2816	@ 0xb00
 8007f5a:	681b      	ldr	r3, [r3, #0]
 8007f5c:	f003 4300 	and.w	r3, r3, #2147483648	@ 0x80000000
 8007f60:	f1b3 4f00 	cmp.w	r3, #2147483648	@ 0x80000000
 8007f64:	d118      	bne.n	8007f98 <USB_DevInit+0x1f0>
 8007f66:	693b      	ldr	r3, [r7, #16]
 8007f68:	2b00      	cmp	r3, #0
 8007f6a:	d10a      	bne.n	8007f82 <USB_DevInit+0x1da>
 8007f6c:	693b      	ldr	r3, [r7, #16]
 8007f6e:	015a      	lsls	r2, r3, #5
 8007f70:	68fb      	ldr	r3, [r7, #12]
 8007f72:	4413      	add	r3, r2
 8007f74:	f503 6330 	add.w	r3, r3, #2816	@ 0xb00
 8007f78:	461a      	mov	r2, r3
 8007f7a:	f04f 6300 	mov.w	r3, #134217728	@ 0x8000000
 8007f7e:	6013      	str	r3, [r2, #0]
 8007f80:	e013      	b.n	8007faa <USB_DevInit+0x202>
 8007f82:	693b      	ldr	r3, [r7, #16]
 8007f84:	015a      	lsls	r2, r3, #5
 8007f86:	68fb      	ldr	r3, [r7, #12]
 8007f88:	4413      	add	r3, r2
 8007f8a:	f503 6330 	add.w	r3, r3, #2816	@ 0xb00
 8007f8e:	461a      	mov	r2, r3
 8007f90:	f04f 4390 	mov.w	r3, #1207959552	@ 0x48000000
 8007f94:	6013      	str	r3, [r2, #0]
 8007f96:	e008      	b.n	8007faa <USB_DevInit+0x202>
 8007f98:	693b      	ldr	r3, [r7, #16]
 8007f9a:	015a      	lsls	r2, r3, #5
 8007f9c:	68fb      	ldr	r3, [r7, #12]
 8007f9e:	4413      	add	r3, r2
 8007fa0:	f503 6330 	add.w	r3, r3, #2816	@ 0xb00
 8007fa4:	461a      	mov	r2, r3
 8007fa6:	2300      	movs	r3, #0
 8007fa8:	6013      	str	r3, [r2, #0]
 8007faa:	693b      	ldr	r3, [r7, #16]
 8007fac:	015a      	lsls	r2, r3, #5
 8007fae:	68fb      	ldr	r3, [r7, #12]
 8007fb0:	4413      	add	r3, r2
 8007fb2:	f503 6330 	add.w	r3, r3, #2816	@ 0xb00
 8007fb6:	461a      	mov	r2, r3
 8007fb8:	2300      	movs	r3, #0
 8007fba:	6113      	str	r3, [r2, #16]
 8007fbc:	693b      	ldr	r3, [r7, #16]
 8007fbe:	015a      	lsls	r2, r3, #5
 8007fc0:	68fb      	ldr	r3, [r7, #12]
 8007fc2:	4413      	add	r3, r2
 8007fc4:	f503 6330 	add.w	r3, r3, #2816	@ 0xb00
 8007fc8:	461a      	mov	r2, r3
 8007fca:	f64f 337f 	movw	r3, #64383	@ 0xfb7f
 8007fce:	6093      	str	r3, [r2, #8]
 8007fd0:	693b      	ldr	r3, [r7, #16]
 8007fd2:	3301      	adds	r3, #1
 8007fd4:	613b      	str	r3, [r7, #16]
 8007fd6:	f897 3024 	ldrb.w	r3, [r7, #36]	@ 0x24
 8007fda:	461a      	mov	r2, r3
 8007fdc:	693b      	ldr	r3, [r7, #16]
 8007fde:	4293      	cmp	r3, r2
 8007fe0:	d3b5      	bcc.n	8007f4e <USB_DevInit+0x1a6>
 8007fe2:	68fb      	ldr	r3, [r7, #12]
 8007fe4:	f503 6300 	add.w	r3, r3, #2048	@ 0x800
 8007fe8:	691b      	ldr	r3, [r3, #16]
 8007fea:	68fa      	ldr	r2, [r7, #12]
 8007fec:	f502 6200 	add.w	r2, r2, #2048	@ 0x800
 8007ff0:	f423 7380 	bic.w	r3, r3, #256	@ 0x100
 8007ff4:	6113      	str	r3, [r2, #16]
 8007ff6:	687b      	ldr	r3, [r7, #4]
 8007ff8:	2200      	movs	r2, #0
 8007ffa:	619a      	str	r2, [r3, #24]
 8007ffc:	687b      	ldr	r3, [r7, #4]
 8007ffe:	f06f 4280 	mvn.w	r2, #1073741824	@ 0x40000000
 8008002:	615a      	str	r2, [r3, #20]
 8008004:	f897 3026 	ldrb.w	r3, [r7, #38]	@ 0x26
 8008008:	2b00      	cmp	r3, #0
 800800a:	d105      	bne.n	8008018 <USB_DevInit+0x270>
 800800c:	687b      	ldr	r3, [r7, #4]
 800800e:	699b      	ldr	r3, [r3, #24]
 8008010:	f043 0210 	orr.w	r2, r3, #16
 8008014:	687b      	ldr	r3, [r7, #4]
 8008016:	619a      	str	r2, [r3, #24]
 8008018:	687b      	ldr	r3, [r7, #4]
 800801a:	699a      	ldr	r2, [r3, #24]
 800801c:	4b0f      	ldr	r3, [pc, #60]	@ (800805c <USB_DevInit+0x2b4>)
 800801e:	4313      	orrs	r3, r2
 8008020:	687a      	ldr	r2, [r7, #4]
 8008022:	6193      	str	r3, [r2, #24]
 8008024:	f897 302a 	ldrb.w	r3, [r7, #42]	@ 0x2a
 8008028:	2b00      	cmp	r3, #0
 800802a:	d005      	beq.n	8008038 <USB_DevInit+0x290>
 800802c:	687b      	ldr	r3, [r7, #4]
 800802e:	699b      	ldr	r3, [r3, #24]
 8008030:	f043 0208 	orr.w	r2, r3, #8
 8008034:	687b      	ldr	r3, [r7, #4]
 8008036:	619a      	str	r2, [r3, #24]
 8008038:	f897 302e 	ldrb.w	r3, [r7, #46]	@ 0x2e
 800803c:	2b01      	cmp	r3, #1
 800803e:	d105      	bne.n	800804c <USB_DevInit+0x2a4>
 8008040:	687b      	ldr	r3, [r7, #4]
 8008042:	699a      	ldr	r2, [r3, #24]
 8008044:	4b06      	ldr	r3, [pc, #24]	@ (8008060 <USB_DevInit+0x2b8>)
 8008046:	4313      	orrs	r3, r2
 8008048:	687a      	ldr	r2, [r7, #4]
 800804a:	6193      	str	r3, [r2, #24]
 800804c:	7dfb      	ldrb	r3, [r7, #23]
 800804e:	4618      	mov	r0, r3
 8008050:	3718      	adds	r7, #24
 8008052:	46bd      	mov	sp, r7
 8008054:	e8bd 4080 	ldmia.w	sp!, {r7, lr}
 8008058:	b004      	add	sp, #16
 800805a:	4770      	bx	lr
 800805c:	803c3800 	.word	0x803c3800
 8008060:	40000004 	.word	0x40000004

08008064 <USB_FlushTxFifo>:
 8008064:	b480      	push	{r7}
 8008066:	b085      	sub	sp, #20
 8008068:	af00      	add	r7, sp, #0
 800806a:	6078      	str	r0, [r7, #4]
 800806c:	6039      	str	r1, [r7, #0]
 800806e:	2300      	movs	r3, #0
 8008070:	60fb      	str	r3, [r7, #12]
 8008072:	68fb      	ldr	r3, [r7, #12]
 8008074:	3301      	adds	r3, #1
 8008076:	60fb      	str	r3, [r7, #12]
 8008078:	68fb      	ldr	r3, [r7, #12]
 800807a:	f1b3 6f70 	cmp.w	r3, #251658240	@ 0xf000000
 800807e:	d901      	bls.n	8008084 <USB_FlushTxFifo+0x20>
 8008080:	2303      	movs	r3, #3
 8008082:	e01b      	b.n	80080bc <USB_FlushTxFifo+0x58>
 8008084:	687b      	ldr	r3, [r7, #4]
 8008086:	691b      	ldr	r3, [r3, #16]
 8008088:	2b00      	cmp	r3, #0
 800808a:	daf2      	bge.n	8008072 <USB_FlushTxFifo+0xe>
 800808c:	2300      	movs	r3, #0
 800808e:	60fb      	str	r3, [r7, #12]
 8008090:	683b      	ldr	r3, [r7, #0]
 8008092:	019b      	lsls	r3, r3, #6
 8008094:	f043 0220 	orr.w	r2, r3, #32
 8008098:	687b      	ldr	r3, [r7, #4]
 800809a:	611a      	str	r2, [r3, #16]
 800809c:	68fb      	ldr	r3, [r7, #12]
 800809e:	3301      	adds	r3, #1
 80080a0:	60fb      	str	r3, [r7, #12]
 80080a2:	68fb      	ldr	r3, [r7, #12]
 80080a4:	f1b3 6f70 	cmp.w	r3, #251658240	@ 0xf000000
 80080a8:	d901      	bls.n	80080ae <USB_FlushTxFifo+0x4a>
 80080aa:	2303      	movs	r3, #3
 80080ac:	e006      	b.n	80080bc <USB_FlushTxFifo+0x58>
 80080ae:	687b      	ldr	r3, [r7, #4]
 80080b0:	691b      	ldr	r3, [r3, #16]
 80080b2:	f003 0320 	and.w	r3, r3, #32
 80080b6:	2b20      	cmp	r3, #32
 80080b8:	d0f0      	beq.n	800809c <USB_FlushTxFifo+0x38>
 80080ba:	2300      	movs	r3, #0
 80080bc:	4618      	mov	r0, r3
 80080be:	3714      	adds	r7, #20
 80080c0:	46bd      	mov	sp, r7
 80080c2:	f85d 7b04 	ldr.w	r7, [sp], #4
 80080c6:	4770      	bx	lr

080080c8 <USB_FlushRxFifo>:
 80080c8:	b480      	push	{r7}
 80080ca:	b085      	sub	sp, #20
 80080cc:	af00      	add	r7, sp, #0
 80080ce:	6078      	str	r0, [r7, #4]
 80080d0:	2300      	movs	r3, #0
 80080d2:	60fb      	str	r3, [r7, #12]
 80080d4:	68fb      	ldr	r3, [r7, #12]
 80080d6:	3301      	adds	r3, #1
 80080d8:	60fb      	str	r3, [r7, #12]
 80080da:	68fb      	ldr	r3, [r7, #12]
 80080dc:	f1b3 6f70 	cmp.w	r3, #251658240	@ 0xf000000
 80080e0:	d901      	bls.n	80080e6 <USB_FlushRxFifo+0x1e>
 80080e2:	2303      	movs	r3, #3
 80080e4:	e018      	b.n	8008118 <USB_FlushRxFifo+0x50>
 80080e6:	687b      	ldr	r3, [r7, #4]
 80080e8:	691b      	ldr	r3, [r3, #16]
 80080ea:	2b00      	cmp	r3, #0
 80080ec:	daf2      	bge.n	80080d4 <USB_FlushRxFifo+0xc>
 80080ee:	2300      	movs	r3, #0
 80080f0:	60fb      	str	r3, [r7, #12]
 80080f2:	687b      	ldr	r3, [r7, #4]
 80080f4:	2210      	movs	r2, #16
 80080f6:	611a      	str	r2, [r3, #16]
 80080f8:	68fb      	ldr	r3, [r7, #12]
 80080fa:	3301      	adds	r3, #1
 80080fc:	60fb      	str	r3, [r7, #12]
 80080fe:	68fb      	ldr	r3, [r7, #12]
 8008100:	f1b3 6f70 	cmp.w	r3, #251658240	@ 0xf000000
 8008104:	d901      	bls.n	800810a <USB_FlushRxFifo+0x42>
 8008106:	2303      	movs	r3, #3
 8008108:	e006      	b.n	8008118 <USB_FlushRxFifo+0x50>
 800810a:	687b      	ldr	r3, [r7, #4]
 800810c:	691b      	ldr	r3, [r3, #16]
 800810e:	f003 0310 	and.w	r3, r3, #16
 8008112:	2b10      	cmp	r3, #16
 8008114:	d0f0      	beq.n	80080f8 <USB_FlushRxFifo+0x30>
 8008116:	2300      	movs	r3, #0
 8008118:	4618      	mov	r0, r3
 800811a:	3714      	adds	r7, #20
 800811c:	46bd      	mov	sp, r7
 800811e:	f85d 7b04 	ldr.w	r7, [sp], #4
 8008122:	4770      	bx	lr

08008124 <USB_SetDevSpeed>:
 8008124:	b480      	push	{r7}
 8008126:	b085      	sub	sp, #20
 8008128:	af00      	add	r7, sp, #0
 800812a:	6078      	str	r0, [r7, #4]
 800812c:	460b      	mov	r3, r1
 800812e:	70fb      	strb	r3, [r7, #3]
 8008130:	687b      	ldr	r3, [r7, #4]
 8008132:	60fb      	str	r3, [r7, #12]
 8008134:	68fb      	ldr	r3, [r7, #12]
 8008136:	f503 6300 	add.w	r3, r3, #2048	@ 0x800
 800813a:	681a      	ldr	r2, [r3, #0]
 800813c:	78fb      	ldrb	r3, [r7, #3]
 800813e:	68f9      	ldr	r1, [r7, #12]
 8008140:	f501 6100 	add.w	r1, r1, #2048	@ 0x800
 8008144:	4313      	orrs	r3, r2
 8008146:	600b      	str	r3, [r1, #0]
 8008148:	2300      	movs	r3, #0
 800814a:	4618      	mov	r0, r3
 800814c:	3714      	adds	r7, #20
 800814e:	46bd      	mov	sp, r7
 8008150:	f85d 7b04 	ldr.w	r7, [sp], #4
 8008154:	4770      	bx	lr

08008156 <USB_DevDisconnect>:
 8008156:	b480      	push	{r7}
 8008158:	b085      	sub	sp, #20
 800815a:	af00      	add	r7, sp, #0
 800815c:	6078      	str	r0, [r7, #4]
 800815e:	687b      	ldr	r3, [r7, #4]
 8008160:	60fb      	str	r3, [r7, #12]
 8008162:	68fb      	ldr	r3, [r7, #12]
 8008164:	f503 6360 	add.w	r3, r3, #3584	@ 0xe00
 8008168:	681b      	ldr	r3, [r3, #0]
 800816a:	68fa      	ldr	r2, [r7, #12]
 800816c:	f502 6260 	add.w	r2, r2, #3584	@ 0xe00
 8008170:	f023 0303 	bic.w	r3, r3, #3
 8008174:	6013      	str	r3, [r2, #0]
 8008176:	68fb      	ldr	r3, [r7, #12]
 8008178:	f503 6300 	add.w	r3, r3, #2048	@ 0x800
 800817c:	685b      	ldr	r3, [r3, #4]
 800817e:	68fa      	ldr	r2, [r7, #12]
 8008180:	f502 6200 	add.w	r2, r2, #2048	@ 0x800
 8008184:	f043 0302 	orr.w	r3, r3, #2
 8008188:	6053      	str	r3, [r2, #4]
 800818a:	2300      	movs	r3, #0
 800818c:	4618      	mov	r0, r3
 800818e:	3714      	adds	r7, #20
 8008190:	46bd      	mov	sp, r7
 8008192:	f85d 7b04 	ldr.w	r7, [sp], #4
 8008196:	4770      	bx	lr

08008198 <USB_GetMode>:
 8008198:	b480      	push	{r7}
 800819a:	b083      	sub	sp, #12
 800819c:	af00      	add	r7, sp, #0
 800819e:	6078      	str	r0, [r7, #4]
 80081a0:	687b      	ldr	r3, [r7, #4]
 80081a2:	695b      	ldr	r3, [r3, #20]
 80081a4:	f003 0301 	and.w	r3, r3, #1
 80081a8:	4618      	mov	r0, r3
 80081aa:	370c      	adds	r7, #12
 80081ac:	46bd      	mov	sp, r7
 80081ae:	f85d 7b04 	ldr.w	r7, [sp], #4
 80081b2:	4770      	bx	lr

080081b4 <USB_CoreReset>:
 80081b4:	b480      	push	{r7}
 80081b6:	b085      	sub	sp, #20
 80081b8:	af00      	add	r7, sp, #0
 80081ba:	6078      	str	r0, [r7, #4]
 80081bc:	2300      	movs	r3, #0
 80081be:	60fb      	str	r3, [r7, #12]
 80081c0:	68fb      	ldr	r3, [r7, #12]
 80081c2:	3301      	adds	r3, #1
 80081c4:	60fb      	str	r3, [r7, #12]
 80081c6:	68fb      	ldr	r3, [r7, #12]
 80081c8:	f1b3 6f70 	cmp.w	r3, #251658240	@ 0xf000000
 80081cc:	d901      	bls.n	80081d2 <USB_CoreReset+0x1e>
 80081ce:	2303      	movs	r3, #3
 80081d0:	e01b      	b.n	800820a <USB_CoreReset+0x56>
 80081d2:	687b      	ldr	r3, [r7, #4]
 80081d4:	691b      	ldr	r3, [r3, #16]
 80081d6:	2b00      	cmp	r3, #0
 80081d8:	daf2      	bge.n	80081c0 <USB_CoreReset+0xc>
 80081da:	2300      	movs	r3, #0
 80081dc:	60fb      	str	r3, [r7, #12]
 80081de:	687b      	ldr	r3, [r7, #4]
 80081e0:	691b      	ldr	r3, [r3, #16]
 80081e2:	f043 0201 	orr.w	r2, r3, #1
 80081e6:	687b      	ldr	r3, [r7, #4]
 80081e8:	611a      	str	r2, [r3, #16]
 80081ea:	68fb      	ldr	r3, [r7, #12]
 80081ec:	3301      	adds	r3, #1
 80081ee:	60fb      	str	r3, [r7, #12]
 80081f0:	68fb      	ldr	r3, [r7, #12]
 80081f2:	f1b3 6f70 	cmp.w	r3, #251658240	@ 0xf000000
 80081f6:	d901      	bls.n	80081fc <USB_CoreReset+0x48>
 80081f8:	2303      	movs	r3, #3
 80081fa:	e006      	b.n	800820a <USB_CoreReset+0x56>
 80081fc:	687b      	ldr	r3, [r7, #4]
 80081fe:	691b      	ldr	r3, [r3, #16]
 8008200:	f003 0301 	and.w	r3, r3, #1
 8008204:	2b01      	cmp	r3, #1
 8008206:	d0f0      	beq.n	80081ea <USB_CoreReset+0x36>
 8008208:	2300      	movs	r3, #0
 800820a:	4618      	mov	r0, r3
 800820c:	3714      	adds	r7, #20
 800820e:	46bd      	mov	sp, r7
 8008210:	f85d 7b04 	ldr.w	r7, [sp], #4
 8008214:	4770      	bx	lr
	...

08008218 <malloc>:
 8008218:	4b02      	ldr	r3, [pc, #8]	@ (8008224 <malloc+0xc>)
 800821a:	4601      	mov	r1, r0
 800821c:	6818      	ldr	r0, [r3, #0]
 800821e:	f000 b82d 	b.w	800827c <_malloc_r>
 8008222:	bf00      	nop
 8008224:	2000016c 	.word	0x2000016c

08008228 <free>:
 8008228:	4b02      	ldr	r3, [pc, #8]	@ (8008234 <free+0xc>)
 800822a:	4601      	mov	r1, r0
 800822c:	6818      	ldr	r0, [r3, #0]
 800822e:	f001 bd5b 	b.w	8009ce8 <_free_r>
 8008232:	bf00      	nop
 8008234:	2000016c 	.word	0x2000016c

08008238 <sbrk_aligned>:
 8008238:	b570      	push	{r4, r5, r6, lr}
 800823a:	4e0f      	ldr	r6, [pc, #60]	@ (8008278 <sbrk_aligned+0x40>)
 800823c:	460c      	mov	r4, r1
 800823e:	6831      	ldr	r1, [r6, #0]
 8008240:	4605      	mov	r5, r0
 8008242:	b911      	cbnz	r1, 800824a <sbrk_aligned+0x12>
 8008244:	f000 fe98 	bl	8008f78 <_sbrk_r>
 8008248:	6030      	str	r0, [r6, #0]
 800824a:	4621      	mov	r1, r4
 800824c:	4628      	mov	r0, r5
 800824e:	f000 fe93 	bl	8008f78 <_sbrk_r>
 8008252:	1c43      	adds	r3, r0, #1
 8008254:	d103      	bne.n	800825e <sbrk_aligned+0x26>
 8008256:	f04f 34ff 	mov.w	r4, #4294967295
 800825a:	4620      	mov	r0, r4
 800825c:	bd70      	pop	{r4, r5, r6, pc}
 800825e:	1cc4      	adds	r4, r0, #3
 8008260:	f024 0403 	bic.w	r4, r4, #3
 8008264:	42a0      	cmp	r0, r4
 8008266:	d0f8      	beq.n	800825a <sbrk_aligned+0x22>
 8008268:	1a21      	subs	r1, r4, r0
 800826a:	4628      	mov	r0, r5
 800826c:	f000 fe84 	bl	8008f78 <_sbrk_r>
 8008270:	3001      	adds	r0, #1
 8008272:	d1f2      	bne.n	800825a <sbrk_aligned+0x22>
 8008274:	e7ef      	b.n	8008256 <sbrk_aligned+0x1e>
 8008276:	bf00      	nop
 8008278:	20001138 	.word	0x20001138

0800827c <_malloc_r>:
 800827c:	e92d 43f8 	stmdb	sp!, {r3, r4, r5, r6, r7, r8, r9, lr}
 8008280:	1ccd      	adds	r5, r1, #3
 8008282:	f025 0503 	bic.w	r5, r5, #3
 8008286:	3508      	adds	r5, #8
 8008288:	2d0c      	cmp	r5, #12
 800828a:	bf38      	it	cc
 800828c:	250c      	movcc	r5, #12
 800828e:	2d00      	cmp	r5, #0
 8008290:	4606      	mov	r6, r0
 8008292:	db01      	blt.n	8008298 <_malloc_r+0x1c>
 8008294:	42a9      	cmp	r1, r5
 8008296:	d904      	bls.n	80082a2 <_malloc_r+0x26>
 8008298:	230c      	movs	r3, #12
 800829a:	6033      	str	r3, [r6, #0]
 800829c:	2000      	movs	r0, #0
 800829e:	e8bd 83f8 	ldmia.w	sp!, {r3, r4, r5, r6, r7, r8, r9, pc}
 80082a2:	f8df 80d4 	ldr.w	r8, [pc, #212]	@ 8008378 <_malloc_r+0xfc>
 80082a6:	f000 f869 	bl	800837c <__malloc_lock>
 80082aa:	f8d8 3000 	ldr.w	r3, [r8]
 80082ae:	461c      	mov	r4, r3
 80082b0:	bb44      	cbnz	r4, 8008304 <_malloc_r+0x88>
 80082b2:	4629      	mov	r1, r5
 80082b4:	4630      	mov	r0, r6
 80082b6:	f7ff ffbf 	bl	8008238 <sbrk_aligned>
 80082ba:	1c43      	adds	r3, r0, #1
 80082bc:	4604      	mov	r4, r0
 80082be:	d158      	bne.n	8008372 <_malloc_r+0xf6>
 80082c0:	f8d8 4000 	ldr.w	r4, [r8]
 80082c4:	4627      	mov	r7, r4
 80082c6:	2f00      	cmp	r7, #0
 80082c8:	d143      	bne.n	8008352 <_malloc_r+0xd6>
 80082ca:	2c00      	cmp	r4, #0
 80082cc:	d04b      	beq.n	8008366 <_malloc_r+0xea>
 80082ce:	6823      	ldr	r3, [r4, #0]
 80082d0:	4639      	mov	r1, r7
 80082d2:	4630      	mov	r0, r6
 80082d4:	eb04 0903 	add.w	r9, r4, r3
 80082d8:	f000 fe4e 	bl	8008f78 <_sbrk_r>
 80082dc:	4581      	cmp	r9, r0
 80082de:	d142      	bne.n	8008366 <_malloc_r+0xea>
 80082e0:	6821      	ldr	r1, [r4, #0]
 80082e2:	1a6d      	subs	r5, r5, r1
 80082e4:	4629      	mov	r1, r5
 80082e6:	4630      	mov	r0, r6
 80082e8:	f7ff ffa6 	bl	8008238 <sbrk_aligned>
 80082ec:	3001      	adds	r0, #1
 80082ee:	d03a      	beq.n	8008366 <_malloc_r+0xea>
 80082f0:	6823      	ldr	r3, [r4, #0]
 80082f2:	442b      	add	r3, r5
 80082f4:	6023      	str	r3, [r4, #0]
 80082f6:	f8d8 3000 	ldr.w	r3, [r8]
 80082fa:	685a      	ldr	r2, [r3, #4]
 80082fc:	bb62      	cbnz	r2, 8008358 <_malloc_r+0xdc>
 80082fe:	f8c8 7000 	str.w	r7, [r8]
 8008302:	e00f      	b.n	8008324 <_malloc_r+0xa8>
 8008304:	6822      	ldr	r2, [r4, #0]
 8008306:	1b52      	subs	r2, r2, r5
 8008308:	d420      	bmi.n	800834c <_malloc_r+0xd0>
 800830a:	2a0b      	cmp	r2, #11
 800830c:	d917      	bls.n	800833e <_malloc_r+0xc2>
 800830e:	1961      	adds	r1, r4, r5
 8008310:	42a3      	cmp	r3, r4
 8008312:	6025      	str	r5, [r4, #0]
 8008314:	bf18      	it	ne
 8008316:	6059      	strne	r1, [r3, #4]
 8008318:	6863      	ldr	r3, [r4, #4]
 800831a:	bf08      	it	eq
 800831c:	f8c8 1000 	streq.w	r1, [r8]
 8008320:	5162      	str	r2, [r4, r5]
 8008322:	604b      	str	r3, [r1, #4]
 8008324:	4630      	mov	r0, r6
 8008326:	f000 f82f 	bl	8008388 <__malloc_unlock>
 800832a:	f104 000b 	add.w	r0, r4, #11
 800832e:	1d23      	adds	r3, r4, #4
 8008330:	f020 0007 	bic.w	r0, r0, #7
 8008334:	1ac2      	subs	r2, r0, r3
 8008336:	bf1c      	itt	ne
 8008338:	1a1b      	subne	r3, r3, r0
 800833a:	50a3      	strne	r3, [r4, r2]
 800833c:	e7af      	b.n	800829e <_malloc_r+0x22>
 800833e:	6862      	ldr	r2, [r4, #4]
 8008340:	42a3      	cmp	r3, r4
 8008342:	bf0c      	ite	eq
 8008344:	f8c8 2000 	streq.w	r2, [r8]
 8008348:	605a      	strne	r2, [r3, #4]
 800834a:	e7eb      	b.n	8008324 <_malloc_r+0xa8>
 800834c:	4623      	mov	r3, r4
 800834e:	6864      	ldr	r4, [r4, #4]
 8008350:	e7ae      	b.n	80082b0 <_malloc_r+0x34>
 8008352:	463c      	mov	r4, r7
 8008354:	687f      	ldr	r7, [r7, #4]
 8008356:	e7b6      	b.n	80082c6 <_malloc_r+0x4a>
 8008358:	461a      	mov	r2, r3
 800835a:	685b      	ldr	r3, [r3, #4]
 800835c:	42a3      	cmp	r3, r4
 800835e:	d1fb      	bne.n	8008358 <_malloc_r+0xdc>
 8008360:	2300      	movs	r3, #0
 8008362:	6053      	str	r3, [r2, #4]
 8008364:	e7de      	b.n	8008324 <_malloc_r+0xa8>
 8008366:	230c      	movs	r3, #12
 8008368:	6033      	str	r3, [r6, #0]
 800836a:	4630      	mov	r0, r6
 800836c:	f000 f80c 	bl	8008388 <__malloc_unlock>
 8008370:	e794      	b.n	800829c <_malloc_r+0x20>
 8008372:	6005      	str	r5, [r0, #0]
 8008374:	e7d6      	b.n	8008324 <_malloc_r+0xa8>
 8008376:	bf00      	nop
 8008378:	2000113c 	.word	0x2000113c

0800837c <__malloc_lock>:
 800837c:	4801      	ldr	r0, [pc, #4]	@ (8008384 <__malloc_lock+0x8>)
 800837e:	f000 be48 	b.w	8009012 <__retarget_lock_acquire_recursive>
 8008382:	bf00      	nop
 8008384:	20001280 	.word	0x20001280

08008388 <__malloc_unlock>:
 8008388:	4801      	ldr	r0, [pc, #4]	@ (8008390 <__malloc_unlock+0x8>)
 800838a:	f000 be43 	b.w	8009014 <__retarget_lock_release_recursive>
 800838e:	bf00      	nop
 8008390:	20001280 	.word	0x20001280

08008394 <__cvt>:
 8008394:	e92d 47ff 	stmdb	sp!, {r0, r1, r2, r3, r4, r5, r6, r7, r8, r9, sl, lr}
 8008398:	ec57 6b10 	vmov	r6, r7, d0
 800839c:	2f00      	cmp	r7, #0
 800839e:	460c      	mov	r4, r1
 80083a0:	4619      	mov	r1, r3
 80083a2:	463b      	mov	r3, r7
 80083a4:	bfbb      	ittet	lt
 80083a6:	f107 4300 	addlt.w	r3, r7, #2147483648	@ 0x80000000
 80083aa:	461f      	movlt	r7, r3
 80083ac:	2300      	movge	r3, #0
 80083ae:	232d      	movlt	r3, #45	@ 0x2d
 80083b0:	700b      	strb	r3, [r1, #0]
 80083b2:	9b0d      	ldr	r3, [sp, #52]	@ 0x34
 80083b4:	f8dd a030 	ldr.w	sl, [sp, #48]	@ 0x30
 80083b8:	4691      	mov	r9, r2
 80083ba:	f023 0820 	bic.w	r8, r3, #32
 80083be:	bfbc      	itt	lt
 80083c0:	4632      	movlt	r2, r6
 80083c2:	4616      	movlt	r6, r2
 80083c4:	f1b8 0f46 	cmp.w	r8, #70	@ 0x46
 80083c8:	d005      	beq.n	80083d6 <__cvt+0x42>
 80083ca:	f1b8 0f45 	cmp.w	r8, #69	@ 0x45
 80083ce:	d100      	bne.n	80083d2 <__cvt+0x3e>
 80083d0:	3401      	adds	r4, #1
 80083d2:	2102      	movs	r1, #2
 80083d4:	e000      	b.n	80083d8 <__cvt+0x44>
 80083d6:	2103      	movs	r1, #3
 80083d8:	ab03      	add	r3, sp, #12
 80083da:	9301      	str	r3, [sp, #4]
 80083dc:	ab02      	add	r3, sp, #8
 80083de:	9300      	str	r3, [sp, #0]
 80083e0:	ec47 6b10 	vmov	d0, r6, r7
 80083e4:	4653      	mov	r3, sl
 80083e6:	4622      	mov	r2, r4
 80083e8:	f000 feae 	bl	8009148 <_dtoa_r>
 80083ec:	f1b8 0f47 	cmp.w	r8, #71	@ 0x47
 80083f0:	4605      	mov	r5, r0
 80083f2:	d119      	bne.n	8008428 <__cvt+0x94>
 80083f4:	f019 0f01 	tst.w	r9, #1
 80083f8:	d00e      	beq.n	8008418 <__cvt+0x84>
 80083fa:	eb00 0904 	add.w	r9, r0, r4
 80083fe:	2200      	movs	r2, #0
 8008400:	2300      	movs	r3, #0
 8008402:	4630      	mov	r0, r6
 8008404:	4639      	mov	r1, r7
 8008406:	f7f8 fb7f 	bl	8000b08 <__aeabi_dcmpeq>
 800840a:	b108      	cbz	r0, 8008410 <__cvt+0x7c>
 800840c:	f8cd 900c 	str.w	r9, [sp, #12]
 8008410:	2230      	movs	r2, #48	@ 0x30
 8008412:	9b03      	ldr	r3, [sp, #12]
 8008414:	454b      	cmp	r3, r9
 8008416:	d31e      	bcc.n	8008456 <__cvt+0xc2>
 8008418:	9b03      	ldr	r3, [sp, #12]
 800841a:	9a0e      	ldr	r2, [sp, #56]	@ 0x38
 800841c:	1b5b      	subs	r3, r3, r5
 800841e:	4628      	mov	r0, r5
 8008420:	6013      	str	r3, [r2, #0]
 8008422:	b004      	add	sp, #16
 8008424:	e8bd 87f0 	ldmia.w	sp!, {r4, r5, r6, r7, r8, r9, sl, pc}
 8008428:	f1b8 0f46 	cmp.w	r8, #70	@ 0x46
 800842c:	eb00 0904 	add.w	r9, r0, r4
 8008430:	d1e5      	bne.n	80083fe <__cvt+0x6a>
 8008432:	7803      	ldrb	r3, [r0, #0]
 8008434:	2b30      	cmp	r3, #48	@ 0x30
 8008436:	d10a      	bne.n	800844e <__cvt+0xba>
 8008438:	2200      	movs	r2, #0
 800843a:	2300      	movs	r3, #0
 800843c:	4630      	mov	r0, r6
 800843e:	4639      	mov	r1, r7
 8008440:	f7f8 fb62 	bl	8000b08 <__aeabi_dcmpeq>
 8008444:	b918      	cbnz	r0, 800844e <__cvt+0xba>
 8008446:	f1c4 0401 	rsb	r4, r4, #1
 800844a:	f8ca 4000 	str.w	r4, [sl]
 800844e:	f8da 3000 	ldr.w	r3, [sl]
 8008452:	4499      	add	r9, r3
 8008454:	e7d3      	b.n	80083fe <__cvt+0x6a>
 8008456:	1c59      	adds	r1, r3, #1
 8008458:	9103      	str	r1, [sp, #12]
 800845a:	701a      	strb	r2, [r3, #0]
 800845c:	e7d9      	b.n	8008412 <__cvt+0x7e>

0800845e <__exponent>:
 800845e:	b5f7      	push	{r0, r1, r2, r4, r5, r6, r7, lr}
 8008460:	2900      	cmp	r1, #0
 8008462:	bfba      	itte	lt
 8008464:	4249      	neglt	r1, r1
 8008466:	232d      	movlt	r3, #45	@ 0x2d
 8008468:	232b      	movge	r3, #43	@ 0x2b
 800846a:	2909      	cmp	r1, #9
 800846c:	7002      	strb	r2, [r0, #0]
 800846e:	7043      	strb	r3, [r0, #1]
 8008470:	dd29      	ble.n	80084c6 <__exponent+0x68>
 8008472:	f10d 0307 	add.w	r3, sp, #7
 8008476:	461d      	mov	r5, r3
 8008478:	270a      	movs	r7, #10
 800847a:	461a      	mov	r2, r3
 800847c:	fbb1 f6f7 	udiv	r6, r1, r7
 8008480:	fb07 1416 	mls	r4, r7, r6, r1
 8008484:	3430      	adds	r4, #48	@ 0x30
 8008486:	f802 4c01 	strb.w	r4, [r2, #-1]
 800848a:	460c      	mov	r4, r1
 800848c:	2c63      	cmp	r4, #99	@ 0x63
 800848e:	f103 33ff 	add.w	r3, r3, #4294967295
 8008492:	4631      	mov	r1, r6
 8008494:	dcf1      	bgt.n	800847a <__exponent+0x1c>
 8008496:	3130      	adds	r1, #48	@ 0x30
 8008498:	1e94      	subs	r4, r2, #2
 800849a:	f803 1c01 	strb.w	r1, [r3, #-1]
 800849e:	1c41      	adds	r1, r0, #1
 80084a0:	4623      	mov	r3, r4
 80084a2:	42ab      	cmp	r3, r5
 80084a4:	d30a      	bcc.n	80084bc <__exponent+0x5e>
 80084a6:	f10d 0309 	add.w	r3, sp, #9
 80084aa:	1a9b      	subs	r3, r3, r2
 80084ac:	42ac      	cmp	r4, r5
 80084ae:	bf88      	it	hi
 80084b0:	2300      	movhi	r3, #0
 80084b2:	3302      	adds	r3, #2
 80084b4:	4403      	add	r3, r0
 80084b6:	1a18      	subs	r0, r3, r0
 80084b8:	b003      	add	sp, #12
 80084ba:	bdf0      	pop	{r4, r5, r6, r7, pc}
 80084bc:	f813 6b01 	ldrb.w	r6, [r3], #1
 80084c0:	f801 6f01 	strb.w	r6, [r1, #1]!
 80084c4:	e7ed      	b.n	80084a2 <__exponent+0x44>
 80084c6:	2330      	movs	r3, #48	@ 0x30
 80084c8:	3130      	adds	r1, #48	@ 0x30
 80084ca:	7083      	strb	r3, [r0, #2]
 80084cc:	70c1      	strb	r1, [r0, #3]
 80084ce:	1d03      	adds	r3, r0, #4
 80084d0:	e7f1      	b.n	80084b6 <__exponent+0x58>
	...

080084d4 <_printf_float>:
 80084d4:	e92d 4ff0 	stmdb	sp!, {r4, r5, r6, r7, r8, r9, sl, fp, lr}
 80084d8:	b08d      	sub	sp, #52	@ 0x34
 80084da:	460c      	mov	r4, r1
 80084dc:	f8dd 8058 	ldr.w	r8, [sp, #88]	@ 0x58
 80084e0:	4616      	mov	r6, r2
 80084e2:	461f      	mov	r7, r3
 80084e4:	4605      	mov	r5, r0
 80084e6:	f000 fd0f 	bl	8008f08 <_localeconv_r>
 80084ea:	6803      	ldr	r3, [r0, #0]
 80084ec:	9304      	str	r3, [sp, #16]
 80084ee:	4618      	mov	r0, r3
 80084f0:	f7f7 fede 	bl	80002b0 <strlen>
 80084f4:	2300      	movs	r3, #0
 80084f6:	930a      	str	r3, [sp, #40]	@ 0x28
 80084f8:	f8d8 3000 	ldr.w	r3, [r8]
 80084fc:	9005      	str	r0, [sp, #20]
 80084fe:	3307      	adds	r3, #7
 8008500:	f023 0307 	bic.w	r3, r3, #7
 8008504:	f103 0208 	add.w	r2, r3, #8
 8008508:	f894 a018 	ldrb.w	sl, [r4, #24]
 800850c:	f8d4 b000 	ldr.w	fp, [r4]
 8008510:	f8c8 2000 	str.w	r2, [r8]
 8008514:	e9d3 8900 	ldrd	r8, r9, [r3]
 8008518:	f029 4300 	bic.w	r3, r9, #2147483648	@ 0x80000000
 800851c:	9307      	str	r3, [sp, #28]
 800851e:	f8cd 8018 	str.w	r8, [sp, #24]
 8008522:	e9c4 8912 	strd	r8, r9, [r4, #72]	@ 0x48
 8008526:	e9dd 0106 	ldrd	r0, r1, [sp, #24]
 800852a:	4b9c      	ldr	r3, [pc, #624]	@ (800879c <_printf_float+0x2c8>)
 800852c:	f04f 32ff 	mov.w	r2, #4294967295
 8008530:	f7f8 fb1c 	bl	8000b6c <__aeabi_dcmpun>
 8008534:	bb70      	cbnz	r0, 8008594 <_printf_float+0xc0>
 8008536:	e9dd 0106 	ldrd	r0, r1, [sp, #24]
 800853a:	4b98      	ldr	r3, [pc, #608]	@ (800879c <_printf_float+0x2c8>)
 800853c:	f04f 32ff 	mov.w	r2, #4294967295
 8008540:	f7f8 faf6 	bl	8000b30 <__aeabi_dcmple>
 8008544:	bb30      	cbnz	r0, 8008594 <_printf_float+0xc0>
 8008546:	2200      	movs	r2, #0
 8008548:	2300      	movs	r3, #0
 800854a:	4640      	mov	r0, r8
 800854c:	4649      	mov	r1, r9
 800854e:	f7f8 fae5 	bl	8000b1c <__aeabi_dcmplt>
 8008552:	b110      	cbz	r0, 800855a <_printf_float+0x86>
 8008554:	232d      	movs	r3, #45	@ 0x2d
 8008556:	f884 3043 	strb.w	r3, [r4, #67]	@ 0x43
 800855a:	4a91      	ldr	r2, [pc, #580]	@ (80087a0 <_printf_float+0x2cc>)
 800855c:	4b91      	ldr	r3, [pc, #580]	@ (80087a4 <_printf_float+0x2d0>)
 800855e:	f1ba 0f47 	cmp.w	sl, #71	@ 0x47
 8008562:	bf8c      	ite	hi
 8008564:	4690      	movhi	r8, r2
 8008566:	4698      	movls	r8, r3
 8008568:	2303      	movs	r3, #3
 800856a:	6123      	str	r3, [r4, #16]
 800856c:	f02b 0304 	bic.w	r3, fp, #4
 8008570:	6023      	str	r3, [r4, #0]
 8008572:	f04f 0900 	mov.w	r9, #0
 8008576:	9700      	str	r7, [sp, #0]
 8008578:	4633      	mov	r3, r6
 800857a:	aa0b      	add	r2, sp, #44	@ 0x2c
 800857c:	4621      	mov	r1, r4
 800857e:	4628      	mov	r0, r5
 8008580:	f000 f9d2 	bl	8008928 <_printf_common>
 8008584:	3001      	adds	r0, #1
 8008586:	f040 808d 	bne.w	80086a4 <_printf_float+0x1d0>
 800858a:	f04f 30ff 	mov.w	r0, #4294967295
 800858e:	b00d      	add	sp, #52	@ 0x34
 8008590:	e8bd 8ff0 	ldmia.w	sp!, {r4, r5, r6, r7, r8, r9, sl, fp, pc}
 8008594:	4642      	mov	r2, r8
 8008596:	464b      	mov	r3, r9
 8008598:	4640      	mov	r0, r8
 800859a:	4649      	mov	r1, r9
 800859c:	f7f8 fae6 	bl	8000b6c <__aeabi_dcmpun>
 80085a0:	b140      	cbz	r0, 80085b4 <_printf_float+0xe0>
 80085a2:	464b      	mov	r3, r9
 80085a4:	2b00      	cmp	r3, #0
 80085a6:	bfbc      	itt	lt
 80085a8:	232d      	movlt	r3, #45	@ 0x2d
 80085aa:	f884 3043 	strblt.w	r3, [r4, #67]	@ 0x43
 80085ae:	4a7e      	ldr	r2, [pc, #504]	@ (80087a8 <_printf_float+0x2d4>)
 80085b0:	4b7e      	ldr	r3, [pc, #504]	@ (80087ac <_printf_float+0x2d8>)
 80085b2:	e7d4      	b.n	800855e <_printf_float+0x8a>
 80085b4:	6863      	ldr	r3, [r4, #4]
 80085b6:	f00a 02df 	and.w	r2, sl, #223	@ 0xdf
 80085ba:	9206      	str	r2, [sp, #24]
 80085bc:	1c5a      	adds	r2, r3, #1
 80085be:	d13b      	bne.n	8008638 <_printf_float+0x164>
 80085c0:	2306      	movs	r3, #6
 80085c2:	6063      	str	r3, [r4, #4]
 80085c4:	f44b 6280 	orr.w	r2, fp, #1024	@ 0x400
 80085c8:	2300      	movs	r3, #0
 80085ca:	6022      	str	r2, [r4, #0]
 80085cc:	9303      	str	r3, [sp, #12]
 80085ce:	ab0a      	add	r3, sp, #40	@ 0x28
 80085d0:	e9cd a301 	strd	sl, r3, [sp, #4]
 80085d4:	ab09      	add	r3, sp, #36	@ 0x24
 80085d6:	9300      	str	r3, [sp, #0]
 80085d8:	6861      	ldr	r1, [r4, #4]
 80085da:	ec49 8b10 	vmov	d0, r8, r9
 80085de:	f10d 0323 	add.w	r3, sp, #35	@ 0x23
 80085e2:	4628      	mov	r0, r5
 80085e4:	f7ff fed6 	bl	8008394 <__cvt>
 80085e8:	9b06      	ldr	r3, [sp, #24]
 80085ea:	9909      	ldr	r1, [sp, #36]	@ 0x24
 80085ec:	2b47      	cmp	r3, #71	@ 0x47
 80085ee:	4680      	mov	r8, r0
 80085f0:	d129      	bne.n	8008646 <_printf_float+0x172>
 80085f2:	1cc8      	adds	r0, r1, #3
 80085f4:	db02      	blt.n	80085fc <_printf_float+0x128>
 80085f6:	6863      	ldr	r3, [r4, #4]
 80085f8:	4299      	cmp	r1, r3
 80085fa:	dd41      	ble.n	8008680 <_printf_float+0x1ac>
 80085fc:	f1aa 0a02 	sub.w	sl, sl, #2
 8008600:	fa5f fa8a 	uxtb.w	sl, sl
 8008604:	3901      	subs	r1, #1
 8008606:	4652      	mov	r2, sl
 8008608:	f104 0050 	add.w	r0, r4, #80	@ 0x50
 800860c:	9109      	str	r1, [sp, #36]	@ 0x24
 800860e:	f7ff ff26 	bl	800845e <__exponent>
 8008612:	9a0a      	ldr	r2, [sp, #40]	@ 0x28
 8008614:	1813      	adds	r3, r2, r0
 8008616:	2a01      	cmp	r2, #1
 8008618:	4681      	mov	r9, r0
 800861a:	6123      	str	r3, [r4, #16]
 800861c:	dc02      	bgt.n	8008624 <_printf_float+0x150>
 800861e:	6822      	ldr	r2, [r4, #0]
 8008620:	07d2      	lsls	r2, r2, #31
 8008622:	d501      	bpl.n	8008628 <_printf_float+0x154>
 8008624:	3301      	adds	r3, #1
 8008626:	6123      	str	r3, [r4, #16]
 8008628:	f89d 3023 	ldrb.w	r3, [sp, #35]	@ 0x23
 800862c:	2b00      	cmp	r3, #0
 800862e:	d0a2      	beq.n	8008576 <_printf_float+0xa2>
 8008630:	232d      	movs	r3, #45	@ 0x2d
 8008632:	f884 3043 	strb.w	r3, [r4, #67]	@ 0x43
 8008636:	e79e      	b.n	8008576 <_printf_float+0xa2>
 8008638:	9a06      	ldr	r2, [sp, #24]
 800863a:	2a47      	cmp	r2, #71	@ 0x47
 800863c:	d1c2      	bne.n	80085c4 <_printf_float+0xf0>
 800863e:	2b00      	cmp	r3, #0
 8008640:	d1c0      	bne.n	80085c4 <_printf_float+0xf0>
 8008642:	2301      	movs	r3, #1
 8008644:	e7bd      	b.n	80085c2 <_printf_float+0xee>
 8008646:	f1ba 0f65 	cmp.w	sl, #101	@ 0x65
 800864a:	d9db      	bls.n	8008604 <_printf_float+0x130>
 800864c:	f1ba 0f66 	cmp.w	sl, #102	@ 0x66
 8008650:	d118      	bne.n	8008684 <_printf_float+0x1b0>
 8008652:	2900      	cmp	r1, #0
 8008654:	6863      	ldr	r3, [r4, #4]
 8008656:	dd0b      	ble.n	8008670 <_printf_float+0x19c>
 8008658:	6121      	str	r1, [r4, #16]
 800865a:	b913      	cbnz	r3, 8008662 <_printf_float+0x18e>
 800865c:	6822      	ldr	r2, [r4, #0]
 800865e:	07d0      	lsls	r0, r2, #31
 8008660:	d502      	bpl.n	8008668 <_printf_float+0x194>
 8008662:	3301      	adds	r3, #1
 8008664:	440b      	add	r3, r1
 8008666:	6123      	str	r3, [r4, #16]
 8008668:	65a1      	str	r1, [r4, #88]	@ 0x58
 800866a:	f04f 0900 	mov.w	r9, #0
 800866e:	e7db      	b.n	8008628 <_printf_float+0x154>
 8008670:	b913      	cbnz	r3, 8008678 <_printf_float+0x1a4>
 8008672:	6822      	ldr	r2, [r4, #0]
 8008674:	07d2      	lsls	r2, r2, #31
 8008676:	d501      	bpl.n	800867c <_printf_float+0x1a8>
 8008678:	3302      	adds	r3, #2
 800867a:	e7f4      	b.n	8008666 <_printf_float+0x192>
 800867c:	2301      	movs	r3, #1
 800867e:	e7f2      	b.n	8008666 <_printf_float+0x192>
 8008680:	f04f 0a67 	mov.w	sl, #103	@ 0x67
 8008684:	9b0a      	ldr	r3, [sp, #40]	@ 0x28
 8008686:	4299      	cmp	r1, r3
 8008688:	db05      	blt.n	8008696 <_printf_float+0x1c2>
 800868a:	6823      	ldr	r3, [r4, #0]
 800868c:	6121      	str	r1, [r4, #16]
 800868e:	07d8      	lsls	r0, r3, #31
 8008690:	d5ea      	bpl.n	8008668 <_printf_float+0x194>
 8008692:	1c4b      	adds	r3, r1, #1
 8008694:	e7e7      	b.n	8008666 <_printf_float+0x192>
 8008696:	2900      	cmp	r1, #0
 8008698:	bfd4      	ite	le
 800869a:	f1c1 0202 	rsble	r2, r1, #2
 800869e:	2201      	movgt	r2, #1
 80086a0:	4413      	add	r3, r2
 80086a2:	e7e0      	b.n	8008666 <_printf_float+0x192>
 80086a4:	6823      	ldr	r3, [r4, #0]
 80086a6:	055a      	lsls	r2, r3, #21
 80086a8:	d407      	bmi.n	80086ba <_printf_float+0x1e6>
 80086aa:	6923      	ldr	r3, [r4, #16]
 80086ac:	4642      	mov	r2, r8
 80086ae:	4631      	mov	r1, r6
 80086b0:	4628      	mov	r0, r5
 80086b2:	47b8      	blx	r7
 80086b4:	3001      	adds	r0, #1
 80086b6:	d12b      	bne.n	8008710 <_printf_float+0x23c>
 80086b8:	e767      	b.n	800858a <_printf_float+0xb6>
 80086ba:	f1ba 0f65 	cmp.w	sl, #101	@ 0x65
 80086be:	f240 80dd 	bls.w	800887c <_printf_float+0x3a8>
 80086c2:	e9d4 0112 	ldrd	r0, r1, [r4, #72]	@ 0x48
 80086c6:	2200      	movs	r2, #0
 80086c8:	2300      	movs	r3, #0
 80086ca:	f7f8 fa1d 	bl	8000b08 <__aeabi_dcmpeq>
 80086ce:	2800      	cmp	r0, #0
 80086d0:	d033      	beq.n	800873a <_printf_float+0x266>
 80086d2:	4a37      	ldr	r2, [pc, #220]	@ (80087b0 <_printf_float+0x2dc>)
 80086d4:	2301      	movs	r3, #1
 80086d6:	4631      	mov	r1, r6
 80086d8:	4628      	mov	r0, r5
 80086da:	47b8      	blx	r7
 80086dc:	3001      	adds	r0, #1
 80086de:	f43f af54 	beq.w	800858a <_printf_float+0xb6>
 80086e2:	e9dd 3809 	ldrd	r3, r8, [sp, #36]	@ 0x24
 80086e6:	4543      	cmp	r3, r8
 80086e8:	db02      	blt.n	80086f0 <_printf_float+0x21c>
 80086ea:	6823      	ldr	r3, [r4, #0]
 80086ec:	07d8      	lsls	r0, r3, #31
 80086ee:	d50f      	bpl.n	8008710 <_printf_float+0x23c>
 80086f0:	e9dd 2304 	ldrd	r2, r3, [sp, #16]
 80086f4:	4631      	mov	r1, r6
 80086f6:	4628      	mov	r0, r5
 80086f8:	47b8      	blx	r7
 80086fa:	3001      	adds	r0, #1
 80086fc:	f43f af45 	beq.w	800858a <_printf_float+0xb6>
 8008700:	f04f 0900 	mov.w	r9, #0
 8008704:	f108 38ff 	add.w	r8, r8, #4294967295
 8008708:	f104 0a1a 	add.w	sl, r4, #26
 800870c:	45c8      	cmp	r8, r9
 800870e:	dc09      	bgt.n	8008724 <_printf_float+0x250>
 8008710:	6823      	ldr	r3, [r4, #0]
 8008712:	079b      	lsls	r3, r3, #30
 8008714:	f100 8103 	bmi.w	800891e <_printf_float+0x44a>
 8008718:	68e0      	ldr	r0, [r4, #12]
 800871a:	9b0b      	ldr	r3, [sp, #44]	@ 0x2c
 800871c:	4298      	cmp	r0, r3
 800871e:	bfb8      	it	lt
 8008720:	4618      	movlt	r0, r3
 8008722:	e734      	b.n	800858e <_printf_float+0xba>
 8008724:	2301      	movs	r3, #1
 8008726:	4652      	mov	r2, sl
 8008728:	4631      	mov	r1, r6
 800872a:	4628      	mov	r0, r5
 800872c:	47b8      	blx	r7
 800872e:	3001      	adds	r0, #1
 8008730:	f43f af2b 	beq.w	800858a <_printf_float+0xb6>
 8008734:	f109 0901 	add.w	r9, r9, #1
 8008738:	e7e8      	b.n	800870c <_printf_float+0x238>
 800873a:	9b09      	ldr	r3, [sp, #36]	@ 0x24
 800873c:	2b00      	cmp	r3, #0
 800873e:	dc39      	bgt.n	80087b4 <_printf_float+0x2e0>
 8008740:	4a1b      	ldr	r2, [pc, #108]	@ (80087b0 <_printf_float+0x2dc>)
 8008742:	2301      	movs	r3, #1
 8008744:	4631      	mov	r1, r6
 8008746:	4628      	mov	r0, r5
 8008748:	47b8      	blx	r7
 800874a:	3001      	adds	r0, #1
 800874c:	f43f af1d 	beq.w	800858a <_printf_float+0xb6>
 8008750:	e9dd 3909 	ldrd	r3, r9, [sp, #36]	@ 0x24
 8008754:	ea59 0303 	orrs.w	r3, r9, r3
 8008758:	d102      	bne.n	8008760 <_printf_float+0x28c>
 800875a:	6823      	ldr	r3, [r4, #0]
 800875c:	07d9      	lsls	r1, r3, #31
 800875e:	d5d7      	bpl.n	8008710 <_printf_float+0x23c>
 8008760:	e9dd 2304 	ldrd	r2, r3, [sp, #16]
 8008764:	4631      	mov	r1, r6
 8008766:	4628      	mov	r0, r5
 8008768:	47b8      	blx	r7
 800876a:	3001      	adds	r0, #1
 800876c:	f43f af0d 	beq.w	800858a <_printf_float+0xb6>
 8008770:	f04f 0a00 	mov.w	sl, #0
 8008774:	f104 0b1a 	add.w	fp, r4, #26
 8008778:	9b09      	ldr	r3, [sp, #36]	@ 0x24
 800877a:	425b      	negs	r3, r3
 800877c:	4553      	cmp	r3, sl
 800877e:	dc01      	bgt.n	8008784 <_printf_float+0x2b0>
 8008780:	464b      	mov	r3, r9
 8008782:	e793      	b.n	80086ac <_printf_float+0x1d8>
 8008784:	2301      	movs	r3, #1
 8008786:	465a      	mov	r2, fp
 8008788:	4631      	mov	r1, r6
 800878a:	4628      	mov	r0, r5
 800878c:	47b8      	blx	r7
 800878e:	3001      	adds	r0, #1
 8008790:	f43f aefb 	beq.w	800858a <_printf_float+0xb6>
 8008794:	f10a 0a01 	add.w	sl, sl, #1
 8008798:	e7ee      	b.n	8008778 <_printf_float+0x2a4>
 800879a:	bf00      	nop
 800879c:	7fefffff 	.word	0x7fefffff
 80087a0:	0800d67c 	.word	0x0800d67c
 80087a4:	0800d678 	.word	0x0800d678
 80087a8:	0800d684 	.word	0x0800d684
 80087ac:	0800d680 	.word	0x0800d680
 80087b0:	0800d688 	.word	0x0800d688
 80087b4:	6da3      	ldr	r3, [r4, #88]	@ 0x58
 80087b6:	f8dd a028 	ldr.w	sl, [sp, #40]	@ 0x28
 80087ba:	4553      	cmp	r3, sl
 80087bc:	bfa8      	it	ge
 80087be:	4653      	movge	r3, sl
 80087c0:	2b00      	cmp	r3, #0
 80087c2:	4699      	mov	r9, r3
 80087c4:	dc36      	bgt.n	8008834 <_printf_float+0x360>
 80087c6:	f04f 0b00 	mov.w	fp, #0
 80087ca:	ea29 79e9 	bic.w	r9, r9, r9, asr #31
 80087ce:	f104 021a 	add.w	r2, r4, #26
 80087d2:	6da3      	ldr	r3, [r4, #88]	@ 0x58
 80087d4:	9306      	str	r3, [sp, #24]
 80087d6:	eba3 0309 	sub.w	r3, r3, r9
 80087da:	455b      	cmp	r3, fp
 80087dc:	dc31      	bgt.n	8008842 <_printf_float+0x36e>
 80087de:	9b09      	ldr	r3, [sp, #36]	@ 0x24
 80087e0:	459a      	cmp	sl, r3
 80087e2:	dc3a      	bgt.n	800885a <_printf_float+0x386>
 80087e4:	6823      	ldr	r3, [r4, #0]
 80087e6:	07da      	lsls	r2, r3, #31
 80087e8:	d437      	bmi.n	800885a <_printf_float+0x386>
 80087ea:	9b09      	ldr	r3, [sp, #36]	@ 0x24
 80087ec:	ebaa 0903 	sub.w	r9, sl, r3
 80087f0:	9b06      	ldr	r3, [sp, #24]
 80087f2:	ebaa 0303 	sub.w	r3, sl, r3
 80087f6:	4599      	cmp	r9, r3
 80087f8:	bfa8      	it	ge
 80087fa:	4699      	movge	r9, r3
 80087fc:	f1b9 0f00 	cmp.w	r9, #0
 8008800:	dc33      	bgt.n	800886a <_printf_float+0x396>
 8008802:	f04f 0800 	mov.w	r8, #0
 8008806:	ea29 79e9 	bic.w	r9, r9, r9, asr #31
 800880a:	f104 0b1a 	add.w	fp, r4, #26
 800880e:	9b09      	ldr	r3, [sp, #36]	@ 0x24
 8008810:	ebaa 0303 	sub.w	r3, sl, r3
 8008814:	eba3 0309 	sub.w	r3, r3, r9
 8008818:	4543      	cmp	r3, r8
 800881a:	f77f af79 	ble.w	8008710 <_printf_float+0x23c>
 800881e:	2301      	movs	r3, #1
 8008820:	465a      	mov	r2, fp
 8008822:	4631      	mov	r1, r6
 8008824:	4628      	mov	r0, r5
 8008826:	47b8      	blx	r7
 8008828:	3001      	adds	r0, #1
 800882a:	f43f aeae 	beq.w	800858a <_printf_float+0xb6>
 800882e:	f108 0801 	add.w	r8, r8, #1
 8008832:	e7ec      	b.n	800880e <_printf_float+0x33a>
 8008834:	4642      	mov	r2, r8
 8008836:	4631      	mov	r1, r6
 8008838:	4628      	mov	r0, r5
 800883a:	47b8      	blx	r7
 800883c:	3001      	adds	r0, #1
 800883e:	d1c2      	bne.n	80087c6 <_printf_float+0x2f2>
 8008840:	e6a3      	b.n	800858a <_printf_float+0xb6>
 8008842:	2301      	movs	r3, #1
 8008844:	4631      	mov	r1, r6
 8008846:	4628      	mov	r0, r5
 8008848:	9206      	str	r2, [sp, #24]
 800884a:	47b8      	blx	r7
 800884c:	3001      	adds	r0, #1
 800884e:	f43f ae9c 	beq.w	800858a <_printf_float+0xb6>
 8008852:	9a06      	ldr	r2, [sp, #24]
 8008854:	f10b 0b01 	add.w	fp, fp, #1
 8008858:	e7bb      	b.n	80087d2 <_printf_float+0x2fe>
 800885a:	e9dd 2304 	ldrd	r2, r3, [sp, #16]
 800885e:	4631      	mov	r1, r6
 8008860:	4628      	mov	r0, r5
 8008862:	47b8      	blx	r7
 8008864:	3001      	adds	r0, #1
 8008866:	d1c0      	bne.n	80087ea <_printf_float+0x316>
 8008868:	e68f      	b.n	800858a <_printf_float+0xb6>
 800886a:	9a06      	ldr	r2, [sp, #24]
 800886c:	464b      	mov	r3, r9
 800886e:	4442      	add	r2, r8
 8008870:	4631      	mov	r1, r6
 8008872:	4628      	mov	r0, r5
 8008874:	47b8      	blx	r7
 8008876:	3001      	adds	r0, #1
 8008878:	d1c3      	bne.n	8008802 <_printf_float+0x32e>
 800887a:	e686      	b.n	800858a <_printf_float+0xb6>
 800887c:	f8dd a028 	ldr.w	sl, [sp, #40]	@ 0x28
 8008880:	f1ba 0f01 	cmp.w	sl, #1
 8008884:	dc01      	bgt.n	800888a <_printf_float+0x3b6>
 8008886:	07db      	lsls	r3, r3, #31
 8008888:	d536      	bpl.n	80088f8 <_printf_float+0x424>
 800888a:	2301      	movs	r3, #1
 800888c:	4642      	mov	r2, r8
 800888e:	4631      	mov	r1, r6
 8008890:	4628      	mov	r0, r5
 8008892:	47b8      	blx	r7
 8008894:	3001      	adds	r0, #1
 8008896:	f43f ae78 	beq.w	800858a <_printf_float+0xb6>
 800889a:	e9dd 2304 	ldrd	r2, r3, [sp, #16]
 800889e:	4631      	mov	r1, r6
 80088a0:	4628      	mov	r0, r5
 80088a2:	47b8      	blx	r7
 80088a4:	3001      	adds	r0, #1
 80088a6:	f43f ae70 	beq.w	800858a <_printf_float+0xb6>
 80088aa:	e9d4 0112 	ldrd	r0, r1, [r4, #72]	@ 0x48
 80088ae:	2200      	movs	r2, #0
 80088b0:	2300      	movs	r3, #0
 80088b2:	f10a 3aff 	add.w	sl, sl, #4294967295
 80088b6:	f7f8 f927 	bl	8000b08 <__aeabi_dcmpeq>
 80088ba:	b9c0      	cbnz	r0, 80088ee <_printf_float+0x41a>
 80088bc:	4653      	mov	r3, sl
 80088be:	f108 0201 	add.w	r2, r8, #1
 80088c2:	4631      	mov	r1, r6
 80088c4:	4628      	mov	r0, r5
 80088c6:	47b8      	blx	r7
 80088c8:	3001      	adds	r0, #1
 80088ca:	d10c      	bne.n	80088e6 <_printf_float+0x412>
 80088cc:	e65d      	b.n	800858a <_printf_float+0xb6>
 80088ce:	2301      	movs	r3, #1
 80088d0:	465a      	mov	r2, fp
 80088d2:	4631      	mov	r1, r6
 80088d4:	4628      	mov	r0, r5
 80088d6:	47b8      	blx	r7
 80088d8:	3001      	adds	r0, #1
 80088da:	f43f ae56 	beq.w	800858a <_printf_float+0xb6>
 80088de:	f108 0801 	add.w	r8, r8, #1
 80088e2:	45d0      	cmp	r8, sl
 80088e4:	dbf3      	blt.n	80088ce <_printf_float+0x3fa>
 80088e6:	464b      	mov	r3, r9
 80088e8:	f104 0250 	add.w	r2, r4, #80	@ 0x50
 80088ec:	e6df      	b.n	80086ae <_printf_float+0x1da>
 80088ee:	f04f 0800 	mov.w	r8, #0
 80088f2:	f104 0b1a 	add.w	fp, r4, #26
 80088f6:	e7f4      	b.n	80088e2 <_printf_float+0x40e>
 80088f8:	2301      	movs	r3, #1
 80088fa:	4642      	mov	r2, r8
 80088fc:	e7e1      	b.n	80088c2 <_printf_float+0x3ee>
 80088fe:	2301      	movs	r3, #1
 8008900:	464a      	mov	r2, r9
 8008902:	4631      	mov	r1, r6
 8008904:	4628      	mov	r0, r5
 8008906:	47b8      	blx	r7
 8008908:	3001      	adds	r0, #1
 800890a:	f43f ae3e 	beq.w	800858a <_printf_float+0xb6>
 800890e:	f108 0801 	add.w	r8, r8, #1
 8008912:	68e3      	ldr	r3, [r4, #12]
 8008914:	990b      	ldr	r1, [sp, #44]	@ 0x2c
 8008916:	1a5b      	subs	r3, r3, r1
 8008918:	4543      	cmp	r3, r8
 800891a:	dcf0      	bgt.n	80088fe <_printf_float+0x42a>
 800891c:	e6fc      	b.n	8008718 <_printf_float+0x244>
 800891e:	f04f 0800 	mov.w	r8, #0
 8008922:	f104 0919 	add.w	r9, r4, #25
 8008926:	e7f4      	b.n	8008912 <_printf_float+0x43e>

08008928 <_printf_common>:
 8008928:	e92d 47f0 	stmdb	sp!, {r4, r5, r6, r7, r8, r9, sl, lr}
 800892c:	4616      	mov	r6, r2
 800892e:	4698      	mov	r8, r3
 8008930:	688a      	ldr	r2, [r1, #8]
 8008932:	690b      	ldr	r3, [r1, #16]
 8008934:	f8dd 9020 	ldr.w	r9, [sp, #32]
 8008938:	4293      	cmp	r3, r2
 800893a:	bfb8      	it	lt
 800893c:	4613      	movlt	r3, r2
 800893e:	6033      	str	r3, [r6, #0]
 8008940:	f891 2043 	ldrb.w	r2, [r1, #67]	@ 0x43
 8008944:	4607      	mov	r7, r0
 8008946:	460c      	mov	r4, r1
 8008948:	b10a      	cbz	r2, 800894e <_printf_common+0x26>
 800894a:	3301      	adds	r3, #1
 800894c:	6033      	str	r3, [r6, #0]
 800894e:	6823      	ldr	r3, [r4, #0]
 8008950:	0699      	lsls	r1, r3, #26
 8008952:	bf42      	ittt	mi
 8008954:	6833      	ldrmi	r3, [r6, #0]
 8008956:	3302      	addmi	r3, #2
 8008958:	6033      	strmi	r3, [r6, #0]
 800895a:	6825      	ldr	r5, [r4, #0]
 800895c:	f015 0506 	ands.w	r5, r5, #6
 8008960:	d106      	bne.n	8008970 <_printf_common+0x48>
 8008962:	f104 0a19 	add.w	sl, r4, #25
 8008966:	68e3      	ldr	r3, [r4, #12]
 8008968:	6832      	ldr	r2, [r6, #0]
 800896a:	1a9b      	subs	r3, r3, r2
 800896c:	42ab      	cmp	r3, r5
 800896e:	dc26      	bgt.n	80089be <_printf_common+0x96>
 8008970:	f894 3043 	ldrb.w	r3, [r4, #67]	@ 0x43
 8008974:	6822      	ldr	r2, [r4, #0]
 8008976:	3b00      	subs	r3, #0
 8008978:	bf18      	it	ne
 800897a:	2301      	movne	r3, #1
 800897c:	0692      	lsls	r2, r2, #26
 800897e:	d42b      	bmi.n	80089d8 <_printf_common+0xb0>
 8008980:	f104 0243 	add.w	r2, r4, #67	@ 0x43
 8008984:	4641      	mov	r1, r8
 8008986:	4638      	mov	r0, r7
 8008988:	47c8      	blx	r9
 800898a:	3001      	adds	r0, #1
 800898c:	d01e      	beq.n	80089cc <_printf_common+0xa4>
 800898e:	6823      	ldr	r3, [r4, #0]
 8008990:	6922      	ldr	r2, [r4, #16]
 8008992:	f003 0306 	and.w	r3, r3, #6
 8008996:	2b04      	cmp	r3, #4
 8008998:	bf02      	ittt	eq
 800899a:	68e5      	ldreq	r5, [r4, #12]
 800899c:	6833      	ldreq	r3, [r6, #0]
 800899e:	1aed      	subeq	r5, r5, r3
 80089a0:	68a3      	ldr	r3, [r4, #8]
 80089a2:	bf0c      	ite	eq
 80089a4:	ea25 75e5 	biceq.w	r5, r5, r5, asr #31
 80089a8:	2500      	movne	r5, #0
 80089aa:	4293      	cmp	r3, r2
 80089ac:	bfc4      	itt	gt
 80089ae:	1a9b      	subgt	r3, r3, r2
 80089b0:	18ed      	addgt	r5, r5, r3
 80089b2:	2600      	movs	r6, #0
 80089b4:	341a      	adds	r4, #26
 80089b6:	42b5      	cmp	r5, r6
 80089b8:	d11a      	bne.n	80089f0 <_printf_common+0xc8>
 80089ba:	2000      	movs	r0, #0
 80089bc:	e008      	b.n	80089d0 <_printf_common+0xa8>
 80089be:	2301      	movs	r3, #1
 80089c0:	4652      	mov	r2, sl
 80089c2:	4641      	mov	r1, r8
 80089c4:	4638      	mov	r0, r7
 80089c6:	47c8      	blx	r9
 80089c8:	3001      	adds	r0, #1
 80089ca:	d103      	bne.n	80089d4 <_printf_common+0xac>
 80089cc:	f04f 30ff 	mov.w	r0, #4294967295
 80089d0:	e8bd 87f0 	ldmia.w	sp!, {r4, r5, r6, r7, r8, r9, sl, pc}
 80089d4:	3501      	adds	r5, #1
 80089d6:	e7c6      	b.n	8008966 <_printf_common+0x3e>
 80089d8:	18e1      	adds	r1, r4, r3
 80089da:	1c5a      	adds	r2, r3, #1
 80089dc:	2030      	movs	r0, #48	@ 0x30
 80089de:	f881 0043 	strb.w	r0, [r1, #67]	@ 0x43
 80089e2:	4422      	add	r2, r4
 80089e4:	f894 1045 	ldrb.w	r1, [r4, #69]	@ 0x45
 80089e8:	f882 1043 	strb.w	r1, [r2, #67]	@ 0x43
 80089ec:	3302      	adds	r3, #2
 80089ee:	e7c7      	b.n	8008980 <_printf_common+0x58>
 80089f0:	2301      	movs	r3, #1
 80089f2:	4622      	mov	r2, r4
 80089f4:	4641      	mov	r1, r8
 80089f6:	4638      	mov	r0, r7
 80089f8:	47c8      	blx	r9
 80089fa:	3001      	adds	r0, #1
 80089fc:	d0e6      	beq.n	80089cc <_printf_common+0xa4>
 80089fe:	3601      	adds	r6, #1
 8008a00:	e7d9      	b.n	80089b6 <_printf_common+0x8e>
	...

08008a04 <_printf_i>:
 8008a04:	e92d 47ff 	stmdb	sp!, {r0, r1, r2, r3, r4, r5, r6, r7, r8, r9, sl, lr}
 8008a08:	7e0f      	ldrb	r7, [r1, #24]
 8008a0a:	9e0c      	ldr	r6, [sp, #48]	@ 0x30
 8008a0c:	2f78      	cmp	r7, #120	@ 0x78
 8008a0e:	4691      	mov	r9, r2
 8008a10:	4680      	mov	r8, r0
 8008a12:	460c      	mov	r4, r1
 8008a14:	469a      	mov	sl, r3
 8008a16:	f101 0243 	add.w	r2, r1, #67	@ 0x43
 8008a1a:	d807      	bhi.n	8008a2c <_printf_i+0x28>
 8008a1c:	2f62      	cmp	r7, #98	@ 0x62
 8008a1e:	d80a      	bhi.n	8008a36 <_printf_i+0x32>
 8008a20:	2f00      	cmp	r7, #0
 8008a22:	f000 80d1 	beq.w	8008bc8 <_printf_i+0x1c4>
 8008a26:	2f58      	cmp	r7, #88	@ 0x58
 8008a28:	f000 80b8 	beq.w	8008b9c <_printf_i+0x198>
 8008a2c:	f104 0642 	add.w	r6, r4, #66	@ 0x42
 8008a30:	f884 7042 	strb.w	r7, [r4, #66]	@ 0x42
 8008a34:	e03a      	b.n	8008aac <_printf_i+0xa8>
 8008a36:	f1a7 0363 	sub.w	r3, r7, #99	@ 0x63
 8008a3a:	2b15      	cmp	r3, #21
 8008a3c:	d8f6      	bhi.n	8008a2c <_printf_i+0x28>
 8008a3e:	a101      	add	r1, pc, #4	@ (adr r1, 8008a44 <_printf_i+0x40>)
 8008a40:	f851 f023 	ldr.w	pc, [r1, r3, lsl #2]
 8008a44:	08008a9d 	.word	0x08008a9d
 8008a48:	08008ab1 	.word	0x08008ab1
 8008a4c:	08008a2d 	.word	0x08008a2d
 8008a50:	08008a2d 	.word	0x08008a2d
 8008a54:	08008a2d 	.word	0x08008a2d
 8008a58:	08008a2d 	.word	0x08008a2d
 8008a5c:	08008ab1 	.word	0x08008ab1
 8008a60:	08008a2d 	.word	0x08008a2d
 8008a64:	08008a2d 	.word	0x08008a2d
 8008a68:	08008a2d 	.word	0x08008a2d
 8008a6c:	08008a2d 	.word	0x08008a2d
 8008a70:	08008baf 	.word	0x08008baf
 8008a74:	08008adb 	.word	0x08008adb
 8008a78:	08008b69 	.word	0x08008b69
 8008a7c:	08008a2d 	.word	0x08008a2d
 8008a80:	08008a2d 	.word	0x08008a2d
 8008a84:	08008bd1 	.word	0x08008bd1
 8008a88:	08008a2d 	.word	0x08008a2d
 8008a8c:	08008adb 	.word	0x08008adb
 8008a90:	08008a2d 	.word	0x08008a2d
 8008a94:	08008a2d 	.word	0x08008a2d
 8008a98:	08008b71 	.word	0x08008b71
 8008a9c:	6833      	ldr	r3, [r6, #0]
 8008a9e:	1d1a      	adds	r2, r3, #4
 8008aa0:	681b      	ldr	r3, [r3, #0]
 8008aa2:	6032      	str	r2, [r6, #0]
 8008aa4:	f104 0642 	add.w	r6, r4, #66	@ 0x42
 8008aa8:	f884 3042 	strb.w	r3, [r4, #66]	@ 0x42
 8008aac:	2301      	movs	r3, #1
 8008aae:	e09c      	b.n	8008bea <_printf_i+0x1e6>
 8008ab0:	6833      	ldr	r3, [r6, #0]
 8008ab2:	6820      	ldr	r0, [r4, #0]
 8008ab4:	1d19      	adds	r1, r3, #4
 8008ab6:	6031      	str	r1, [r6, #0]
 8008ab8:	0606      	lsls	r6, r0, #24
 8008aba:	d501      	bpl.n	8008ac0 <_printf_i+0xbc>
 8008abc:	681d      	ldr	r5, [r3, #0]
 8008abe:	e003      	b.n	8008ac8 <_printf_i+0xc4>
 8008ac0:	0645      	lsls	r5, r0, #25
 8008ac2:	d5fb      	bpl.n	8008abc <_printf_i+0xb8>
 8008ac4:	f9b3 5000 	ldrsh.w	r5, [r3]
 8008ac8:	2d00      	cmp	r5, #0
 8008aca:	da03      	bge.n	8008ad4 <_printf_i+0xd0>
 8008acc:	232d      	movs	r3, #45	@ 0x2d
 8008ace:	426d      	negs	r5, r5
 8008ad0:	f884 3043 	strb.w	r3, [r4, #67]	@ 0x43
 8008ad4:	4858      	ldr	r0, [pc, #352]	@ (8008c38 <_printf_i+0x234>)
 8008ad6:	230a      	movs	r3, #10
 8008ad8:	e011      	b.n	8008afe <_printf_i+0xfa>
 8008ada:	6821      	ldr	r1, [r4, #0]
 8008adc:	6833      	ldr	r3, [r6, #0]
 8008ade:	0608      	lsls	r0, r1, #24
 8008ae0:	f853 5b04 	ldr.w	r5, [r3], #4
 8008ae4:	d402      	bmi.n	8008aec <_printf_i+0xe8>
 8008ae6:	0649      	lsls	r1, r1, #25
 8008ae8:	bf48      	it	mi
 8008aea:	b2ad      	uxthmi	r5, r5
 8008aec:	2f6f      	cmp	r7, #111	@ 0x6f
 8008aee:	4852      	ldr	r0, [pc, #328]	@ (8008c38 <_printf_i+0x234>)
 8008af0:	6033      	str	r3, [r6, #0]
 8008af2:	bf14      	ite	ne
 8008af4:	230a      	movne	r3, #10
 8008af6:	2308      	moveq	r3, #8
 8008af8:	2100      	movs	r1, #0
 8008afa:	f884 1043 	strb.w	r1, [r4, #67]	@ 0x43
 8008afe:	6866      	ldr	r6, [r4, #4]
 8008b00:	60a6      	str	r6, [r4, #8]
 8008b02:	2e00      	cmp	r6, #0
 8008b04:	db05      	blt.n	8008b12 <_printf_i+0x10e>
 8008b06:	6821      	ldr	r1, [r4, #0]
 8008b08:	432e      	orrs	r6, r5
 8008b0a:	f021 0104 	bic.w	r1, r1, #4
 8008b0e:	6021      	str	r1, [r4, #0]
 8008b10:	d04b      	beq.n	8008baa <_printf_i+0x1a6>
 8008b12:	4616      	mov	r6, r2
 8008b14:	fbb5 f1f3 	udiv	r1, r5, r3
 8008b18:	fb03 5711 	mls	r7, r3, r1, r5
 8008b1c:	5dc7      	ldrb	r7, [r0, r7]
 8008b1e:	f806 7d01 	strb.w	r7, [r6, #-1]!
 8008b22:	462f      	mov	r7, r5
 8008b24:	42bb      	cmp	r3, r7
 8008b26:	460d      	mov	r5, r1
 8008b28:	d9f4      	bls.n	8008b14 <_printf_i+0x110>
 8008b2a:	2b08      	cmp	r3, #8
 8008b2c:	d10b      	bne.n	8008b46 <_printf_i+0x142>
 8008b2e:	6823      	ldr	r3, [r4, #0]
 8008b30:	07df      	lsls	r7, r3, #31
 8008b32:	d508      	bpl.n	8008b46 <_printf_i+0x142>
 8008b34:	6923      	ldr	r3, [r4, #16]
 8008b36:	6861      	ldr	r1, [r4, #4]
 8008b38:	4299      	cmp	r1, r3
 8008b3a:	bfde      	ittt	le
 8008b3c:	2330      	movle	r3, #48	@ 0x30
 8008b3e:	f806 3c01 	strble.w	r3, [r6, #-1]
 8008b42:	f106 36ff 	addle.w	r6, r6, #4294967295
 8008b46:	1b92      	subs	r2, r2, r6
 8008b48:	6122      	str	r2, [r4, #16]
 8008b4a:	f8cd a000 	str.w	sl, [sp]
 8008b4e:	464b      	mov	r3, r9
 8008b50:	aa03      	add	r2, sp, #12
 8008b52:	4621      	mov	r1, r4
 8008b54:	4640      	mov	r0, r8
 8008b56:	f7ff fee7 	bl	8008928 <_printf_common>
 8008b5a:	3001      	adds	r0, #1
 8008b5c:	d14a      	bne.n	8008bf4 <_printf_i+0x1f0>
 8008b5e:	f04f 30ff 	mov.w	r0, #4294967295
 8008b62:	b004      	add	sp, #16
 8008b64:	e8bd 87f0 	ldmia.w	sp!, {r4, r5, r6, r7, r8, r9, sl, pc}
 8008b68:	6823      	ldr	r3, [r4, #0]
 8008b6a:	f043 0320 	orr.w	r3, r3, #32
 8008b6e:	6023      	str	r3, [r4, #0]
 8008b70:	4832      	ldr	r0, [pc, #200]	@ (8008c3c <_printf_i+0x238>)
 8008b72:	2778      	movs	r7, #120	@ 0x78
 8008b74:	f884 7045 	strb.w	r7, [r4, #69]	@ 0x45
 8008b78:	6823      	ldr	r3, [r4, #0]
 8008b7a:	6831      	ldr	r1, [r6, #0]
 8008b7c:	061f      	lsls	r7, r3, #24
 8008b7e:	f851 5b04 	ldr.w	r5, [r1], #4
 8008b82:	d402      	bmi.n	8008b8a <_printf_i+0x186>
 8008b84:	065f      	lsls	r7, r3, #25
 8008b86:	bf48      	it	mi
 8008b88:	b2ad      	uxthmi	r5, r5
 8008b8a:	6031      	str	r1, [r6, #0]
 8008b8c:	07d9      	lsls	r1, r3, #31
 8008b8e:	bf44      	itt	mi
 8008b90:	f043 0320 	orrmi.w	r3, r3, #32
 8008b94:	6023      	strmi	r3, [r4, #0]
 8008b96:	b11d      	cbz	r5, 8008ba0 <_printf_i+0x19c>
 8008b98:	2310      	movs	r3, #16
 8008b9a:	e7ad      	b.n	8008af8 <_printf_i+0xf4>
 8008b9c:	4826      	ldr	r0, [pc, #152]	@ (8008c38 <_printf_i+0x234>)
 8008b9e:	e7e9      	b.n	8008b74 <_printf_i+0x170>
 8008ba0:	6823      	ldr	r3, [r4, #0]
 8008ba2:	f023 0320 	bic.w	r3, r3, #32
 8008ba6:	6023      	str	r3, [r4, #0]
 8008ba8:	e7f6      	b.n	8008b98 <_printf_i+0x194>
 8008baa:	4616      	mov	r6, r2
 8008bac:	e7bd      	b.n	8008b2a <_printf_i+0x126>
 8008bae:	6833      	ldr	r3, [r6, #0]
 8008bb0:	6825      	ldr	r5, [r4, #0]
 8008bb2:	6961      	ldr	r1, [r4, #20]
 8008bb4:	1d18      	adds	r0, r3, #4
 8008bb6:	6030      	str	r0, [r6, #0]
 8008bb8:	062e      	lsls	r6, r5, #24
 8008bba:	681b      	ldr	r3, [r3, #0]
 8008bbc:	d501      	bpl.n	8008bc2 <_printf_i+0x1be>
 8008bbe:	6019      	str	r1, [r3, #0]
 8008bc0:	e002      	b.n	8008bc8 <_printf_i+0x1c4>
 8008bc2:	0668      	lsls	r0, r5, #25
 8008bc4:	d5fb      	bpl.n	8008bbe <_printf_i+0x1ba>
 8008bc6:	8019      	strh	r1, [r3, #0]
 8008bc8:	2300      	movs	r3, #0
 8008bca:	6123      	str	r3, [r4, #16]
 8008bcc:	4616      	mov	r6, r2
 8008bce:	e7bc      	b.n	8008b4a <_printf_i+0x146>
 8008bd0:	6833      	ldr	r3, [r6, #0]
 8008bd2:	1d1a      	adds	r2, r3, #4
 8008bd4:	6032      	str	r2, [r6, #0]
 8008bd6:	681e      	ldr	r6, [r3, #0]
 8008bd8:	6862      	ldr	r2, [r4, #4]
 8008bda:	2100      	movs	r1, #0
 8008bdc:	4630      	mov	r0, r6
 8008bde:	f7f7 fb17 	bl	8000210 <memchr>
 8008be2:	b108      	cbz	r0, 8008be8 <_printf_i+0x1e4>
 8008be4:	1b80      	subs	r0, r0, r6
 8008be6:	6060      	str	r0, [r4, #4]
 8008be8:	6863      	ldr	r3, [r4, #4]
 8008bea:	6123      	str	r3, [r4, #16]
 8008bec:	2300      	movs	r3, #0
 8008bee:	f884 3043 	strb.w	r3, [r4, #67]	@ 0x43
 8008bf2:	e7aa      	b.n	8008b4a <_printf_i+0x146>
 8008bf4:	6923      	ldr	r3, [r4, #16]
 8008bf6:	4632      	mov	r2, r6
 8008bf8:	4649      	mov	r1, r9
 8008bfa:	4640      	mov	r0, r8
 8008bfc:	47d0      	blx	sl
 8008bfe:	3001      	adds	r0, #1
 8008c00:	d0ad      	beq.n	8008b5e <_printf_i+0x15a>
 8008c02:	6823      	ldr	r3, [r4, #0]
 8008c04:	079b      	lsls	r3, r3, #30
 8008c06:	d413      	bmi.n	8008c30 <_printf_i+0x22c>
 8008c08:	68e0      	ldr	r0, [r4, #12]
 8008c0a:	9b03      	ldr	r3, [sp, #12]
 8008c0c:	4298      	cmp	r0, r3
 8008c0e:	bfb8      	it	lt
 8008c10:	4618      	movlt	r0, r3
 8008c12:	e7a6      	b.n	8008b62 <_printf_i+0x15e>
 8008c14:	2301      	movs	r3, #1
 8008c16:	4632      	mov	r2, r6
 8008c18:	4649      	mov	r1, r9
 8008c1a:	4640      	mov	r0, r8
 8008c1c:	47d0      	blx	sl
 8008c1e:	3001      	adds	r0, #1
 8008c20:	d09d      	beq.n	8008b5e <_printf_i+0x15a>
 8008c22:	3501      	adds	r5, #1
 8008c24:	68e3      	ldr	r3, [r4, #12]
 8008c26:	9903      	ldr	r1, [sp, #12]
 8008c28:	1a5b      	subs	r3, r3, r1
 8008c2a:	42ab      	cmp	r3, r5
 8008c2c:	dcf2      	bgt.n	8008c14 <_printf_i+0x210>
 8008c2e:	e7eb      	b.n	8008c08 <_printf_i+0x204>
 8008c30:	2500      	movs	r5, #0
 8008c32:	f104 0619 	add.w	r6, r4, #25
 8008c36:	e7f5      	b.n	8008c24 <_printf_i+0x220>
 8008c38:	0800d68a 	.word	0x0800d68a
 8008c3c:	0800d69b 	.word	0x0800d69b

08008c40 <std>:
 8008c40:	2300      	movs	r3, #0
 8008c42:	b510      	push	{r4, lr}
 8008c44:	4604      	mov	r4, r0
 8008c46:	e9c0 3300 	strd	r3, r3, [r0]
 8008c4a:	e9c0 3304 	strd	r3, r3, [r0, #16]
 8008c4e:	6083      	str	r3, [r0, #8]
 8008c50:	8181      	strh	r1, [r0, #12]
 8008c52:	6643      	str	r3, [r0, #100]	@ 0x64
 8008c54:	81c2      	strh	r2, [r0, #14]
 8008c56:	6183      	str	r3, [r0, #24]
 8008c58:	4619      	mov	r1, r3
 8008c5a:	2208      	movs	r2, #8
 8008c5c:	305c      	adds	r0, #92	@ 0x5c
 8008c5e:	f000 f94b 	bl	8008ef8 <memset>
 8008c62:	4b0d      	ldr	r3, [pc, #52]	@ (8008c98 <std+0x58>)
 8008c64:	6263      	str	r3, [r4, #36]	@ 0x24
 8008c66:	4b0d      	ldr	r3, [pc, #52]	@ (8008c9c <std+0x5c>)
 8008c68:	62a3      	str	r3, [r4, #40]	@ 0x28
 8008c6a:	4b0d      	ldr	r3, [pc, #52]	@ (8008ca0 <std+0x60>)
 8008c6c:	62e3      	str	r3, [r4, #44]	@ 0x2c
 8008c6e:	4b0d      	ldr	r3, [pc, #52]	@ (8008ca4 <std+0x64>)
 8008c70:	6323      	str	r3, [r4, #48]	@ 0x30
 8008c72:	4b0d      	ldr	r3, [pc, #52]	@ (8008ca8 <std+0x68>)
 8008c74:	6224      	str	r4, [r4, #32]
 8008c76:	429c      	cmp	r4, r3
 8008c78:	d006      	beq.n	8008c88 <std+0x48>
 8008c7a:	f103 0268 	add.w	r2, r3, #104	@ 0x68
 8008c7e:	4294      	cmp	r4, r2
 8008c80:	d002      	beq.n	8008c88 <std+0x48>
 8008c82:	33d0      	adds	r3, #208	@ 0xd0
 8008c84:	429c      	cmp	r4, r3
 8008c86:	d105      	bne.n	8008c94 <std+0x54>
 8008c88:	f104 0058 	add.w	r0, r4, #88	@ 0x58
 8008c8c:	e8bd 4010 	ldmia.w	sp!, {r4, lr}
 8008c90:	f000 b9be 	b.w	8009010 <__retarget_lock_init_recursive>
 8008c94:	bd10      	pop	{r4, pc}
 8008c96:	bf00      	nop
 8008c98:	08008dc5 	.word	0x08008dc5
 8008c9c:	08008de7 	.word	0x08008de7
 8008ca0:	08008e1f 	.word	0x08008e1f
 8008ca4:	08008e43 	.word	0x08008e43
 8008ca8:	20001140 	.word	0x20001140

08008cac <stdio_exit_handler>:
 8008cac:	4a02      	ldr	r2, [pc, #8]	@ (8008cb8 <stdio_exit_handler+0xc>)
 8008cae:	4903      	ldr	r1, [pc, #12]	@ (8008cbc <stdio_exit_handler+0x10>)
 8008cb0:	4803      	ldr	r0, [pc, #12]	@ (8008cc0 <stdio_exit_handler+0x14>)
 8008cb2:	f000 b869 	b.w	8008d88 <_fwalk_sglue>
 8008cb6:	bf00      	nop
 8008cb8:	20000160 	.word	0x20000160
 8008cbc:	0800a829 	.word	0x0800a829
 8008cc0:	20000170 	.word	0x20000170

08008cc4 <cleanup_stdio>:
 8008cc4:	6841      	ldr	r1, [r0, #4]
 8008cc6:	4b0c      	ldr	r3, [pc, #48]	@ (8008cf8 <cleanup_stdio+0x34>)
 8008cc8:	4299      	cmp	r1, r3
 8008cca:	b510      	push	{r4, lr}
 8008ccc:	4604      	mov	r4, r0
 8008cce:	d001      	beq.n	8008cd4 <cleanup_stdio+0x10>
 8008cd0:	f001 fdaa 	bl	800a828 <_fflush_r>
 8008cd4:	68a1      	ldr	r1, [r4, #8]
 8008cd6:	4b09      	ldr	r3, [pc, #36]	@ (8008cfc <cleanup_stdio+0x38>)
 8008cd8:	4299      	cmp	r1, r3
 8008cda:	d002      	beq.n	8008ce2 <cleanup_stdio+0x1e>
 8008cdc:	4620      	mov	r0, r4
 8008cde:	f001 fda3 	bl	800a828 <_fflush_r>
 8008ce2:	68e1      	ldr	r1, [r4, #12]
 8008ce4:	4b06      	ldr	r3, [pc, #24]	@ (8008d00 <cleanup_stdio+0x3c>)
 8008ce6:	4299      	cmp	r1, r3
 8008ce8:	d004      	beq.n	8008cf4 <cleanup_stdio+0x30>
 8008cea:	4620      	mov	r0, r4
 8008cec:	e8bd 4010 	ldmia.w	sp!, {r4, lr}
 8008cf0:	f001 bd9a 	b.w	800a828 <_fflush_r>
 8008cf4:	bd10      	pop	{r4, pc}
 8008cf6:	bf00      	nop
 8008cf8:	20001140 	.word	0x20001140
 8008cfc:	200011a8 	.word	0x200011a8
 8008d00:	20001210 	.word	0x20001210

08008d04 <global_stdio_init.part.0>:
 8008d04:	b510      	push	{r4, lr}
 8008d06:	4b0b      	ldr	r3, [pc, #44]	@ (8008d34 <global_stdio_init.part.0+0x30>)
 8008d08:	4c0b      	ldr	r4, [pc, #44]	@ (8008d38 <global_stdio_init.part.0+0x34>)
 8008d0a:	4a0c      	ldr	r2, [pc, #48]	@ (8008d3c <global_stdio_init.part.0+0x38>)
 8008d0c:	601a      	str	r2, [r3, #0]
 8008d0e:	4620      	mov	r0, r4
 8008d10:	2200      	movs	r2, #0
 8008d12:	2104      	movs	r1, #4
 8008d14:	f7ff ff94 	bl	8008c40 <std>
 8008d18:	f104 0068 	add.w	r0, r4, #104	@ 0x68
 8008d1c:	2201      	movs	r2, #1
 8008d1e:	2109      	movs	r1, #9
 8008d20:	f7ff ff8e 	bl	8008c40 <std>
 8008d24:	f104 00d0 	add.w	r0, r4, #208	@ 0xd0
 8008d28:	2202      	movs	r2, #2
 8008d2a:	e8bd 4010 	ldmia.w	sp!, {r4, lr}
 8008d2e:	2112      	movs	r1, #18
 8008d30:	f7ff bf86 	b.w	8008c40 <std>
 8008d34:	20001278 	.word	0x20001278
 8008d38:	20001140 	.word	0x20001140
 8008d3c:	08008cad 	.word	0x08008cad

08008d40 <__sfp_lock_acquire>:
 8008d40:	4801      	ldr	r0, [pc, #4]	@ (8008d48 <__sfp_lock_acquire+0x8>)
 8008d42:	f000 b966 	b.w	8009012 <__retarget_lock_acquire_recursive>
 8008d46:	bf00      	nop
 8008d48:	20001281 	.word	0x20001281

08008d4c <__sfp_lock_release>:
 8008d4c:	4801      	ldr	r0, [pc, #4]	@ (8008d54 <__sfp_lock_release+0x8>)
 8008d4e:	f000 b961 	b.w	8009014 <__retarget_lock_release_recursive>
 8008d52:	bf00      	nop
 8008d54:	20001281 	.word	0x20001281

08008d58 <__sinit>:
 8008d58:	b510      	push	{r4, lr}
 8008d5a:	4604      	mov	r4, r0
 8008d5c:	f7ff fff0 	bl	8008d40 <__sfp_lock_acquire>
 8008d60:	6a23      	ldr	r3, [r4, #32]
 8008d62:	b11b      	cbz	r3, 8008d6c <__sinit+0x14>
 8008d64:	e8bd 4010 	ldmia.w	sp!, {r4, lr}
 8008d68:	f7ff bff0 	b.w	8008d4c <__sfp_lock_release>
 8008d6c:	4b04      	ldr	r3, [pc, #16]	@ (8008d80 <__sinit+0x28>)
 8008d6e:	6223      	str	r3, [r4, #32]
 8008d70:	4b04      	ldr	r3, [pc, #16]	@ (8008d84 <__sinit+0x2c>)
 8008d72:	681b      	ldr	r3, [r3, #0]
 8008d74:	2b00      	cmp	r3, #0
 8008d76:	d1f5      	bne.n	8008d64 <__sinit+0xc>
 8008d78:	f7ff ffc4 	bl	8008d04 <global_stdio_init.part.0>
 8008d7c:	e7f2      	b.n	8008d64 <__sinit+0xc>
 8008d7e:	bf00      	nop
 8008d80:	08008cc5 	.word	0x08008cc5
 8008d84:	20001278 	.word	0x20001278

08008d88 <_fwalk_sglue>:
 8008d88:	e92d 43f8 	stmdb	sp!, {r3, r4, r5, r6, r7, r8, r9, lr}
 8008d8c:	4607      	mov	r7, r0
 8008d8e:	4688      	mov	r8, r1
 8008d90:	4614      	mov	r4, r2
 8008d92:	2600      	movs	r6, #0
 8008d94:	e9d4 9501 	ldrd	r9, r5, [r4, #4]
 8008d98:	f1b9 0901 	subs.w	r9, r9, #1
 8008d9c:	d505      	bpl.n	8008daa <_fwalk_sglue+0x22>
 8008d9e:	6824      	ldr	r4, [r4, #0]
 8008da0:	2c00      	cmp	r4, #0
 8008da2:	d1f7      	bne.n	8008d94 <_fwalk_sglue+0xc>
 8008da4:	4630      	mov	r0, r6
 8008da6:	e8bd 83f8 	ldmia.w	sp!, {r3, r4, r5, r6, r7, r8, r9, pc}
 8008daa:	89ab      	ldrh	r3, [r5, #12]
 8008dac:	2b01      	cmp	r3, #1
 8008dae:	d907      	bls.n	8008dc0 <_fwalk_sglue+0x38>
 8008db0:	f9b5 300e 	ldrsh.w	r3, [r5, #14]
 8008db4:	3301      	adds	r3, #1
 8008db6:	d003      	beq.n	8008dc0 <_fwalk_sglue+0x38>
 8008db8:	4629      	mov	r1, r5
 8008dba:	4638      	mov	r0, r7
 8008dbc:	47c0      	blx	r8
 8008dbe:	4306      	orrs	r6, r0
 8008dc0:	3568      	adds	r5, #104	@ 0x68
 8008dc2:	e7e9      	b.n	8008d98 <_fwalk_sglue+0x10>

08008dc4 <__sread>:
 8008dc4:	b510      	push	{r4, lr}
 8008dc6:	460c      	mov	r4, r1
 8008dc8:	f9b1 100e 	ldrsh.w	r1, [r1, #14]
 8008dcc:	f000 f8c2 	bl	8008f54 <_read_r>
 8008dd0:	2800      	cmp	r0, #0
 8008dd2:	bfab      	itete	ge
 8008dd4:	6d63      	ldrge	r3, [r4, #84]	@ 0x54
 8008dd6:	89a3      	ldrhlt	r3, [r4, #12]
 8008dd8:	181b      	addge	r3, r3, r0
 8008dda:	f423 5380 	biclt.w	r3, r3, #4096	@ 0x1000
 8008dde:	bfac      	ite	ge
 8008de0:	6563      	strge	r3, [r4, #84]	@ 0x54
 8008de2:	81a3      	strhlt	r3, [r4, #12]
 8008de4:	bd10      	pop	{r4, pc}

08008de6 <__swrite>:
 8008de6:	e92d 41f0 	stmdb	sp!, {r4, r5, r6, r7, r8, lr}
 8008dea:	461f      	mov	r7, r3
 8008dec:	898b      	ldrh	r3, [r1, #12]
 8008dee:	05db      	lsls	r3, r3, #23
 8008df0:	4605      	mov	r5, r0
 8008df2:	460c      	mov	r4, r1
 8008df4:	4616      	mov	r6, r2
 8008df6:	d505      	bpl.n	8008e04 <__swrite+0x1e>
 8008df8:	f9b1 100e 	ldrsh.w	r1, [r1, #14]
 8008dfc:	2302      	movs	r3, #2
 8008dfe:	2200      	movs	r2, #0
 8008e00:	f000 f896 	bl	8008f30 <_lseek_r>
 8008e04:	89a3      	ldrh	r3, [r4, #12]
 8008e06:	f9b4 100e 	ldrsh.w	r1, [r4, #14]
 8008e0a:	f423 5380 	bic.w	r3, r3, #4096	@ 0x1000
 8008e0e:	81a3      	strh	r3, [r4, #12]
 8008e10:	4632      	mov	r2, r6
 8008e12:	463b      	mov	r3, r7
 8008e14:	4628      	mov	r0, r5
 8008e16:	e8bd 41f0 	ldmia.w	sp!, {r4, r5, r6, r7, r8, lr}
 8008e1a:	f000 b8bd 	b.w	8008f98 <_write_r>

08008e1e <__sseek>:
 8008e1e:	b510      	push	{r4, lr}
 8008e20:	460c      	mov	r4, r1
 8008e22:	f9b1 100e 	ldrsh.w	r1, [r1, #14]
 8008e26:	f000 f883 	bl	8008f30 <_lseek_r>
 8008e2a:	1c43      	adds	r3, r0, #1
 8008e2c:	89a3      	ldrh	r3, [r4, #12]
 8008e2e:	bf15      	itete	ne
 8008e30:	6560      	strne	r0, [r4, #84]	@ 0x54
 8008e32:	f423 5380 	biceq.w	r3, r3, #4096	@ 0x1000
 8008e36:	f443 5380 	orrne.w	r3, r3, #4096	@ 0x1000
 8008e3a:	81a3      	strheq	r3, [r4, #12]
 8008e3c:	bf18      	it	ne
 8008e3e:	81a3      	strhne	r3, [r4, #12]
 8008e40:	bd10      	pop	{r4, pc}

08008e42 <__sclose>:
 8008e42:	f9b1 100e 	ldrsh.w	r1, [r1, #14]
 8008e46:	f000 b863 	b.w	8008f10 <_close_r>

08008e4a <_vsniprintf_r>:
 8008e4a:	b530      	push	{r4, r5, lr}
 8008e4c:	4614      	mov	r4, r2
 8008e4e:	2c00      	cmp	r4, #0
 8008e50:	b09b      	sub	sp, #108	@ 0x6c
 8008e52:	4605      	mov	r5, r0
 8008e54:	461a      	mov	r2, r3
 8008e56:	da05      	bge.n	8008e64 <_vsniprintf_r+0x1a>
 8008e58:	238b      	movs	r3, #139	@ 0x8b
 8008e5a:	6003      	str	r3, [r0, #0]
 8008e5c:	f04f 30ff 	mov.w	r0, #4294967295
 8008e60:	b01b      	add	sp, #108	@ 0x6c
 8008e62:	bd30      	pop	{r4, r5, pc}
 8008e64:	f44f 7302 	mov.w	r3, #520	@ 0x208
 8008e68:	f8ad 300c 	strh.w	r3, [sp, #12]
 8008e6c:	f04f 0300 	mov.w	r3, #0
 8008e70:	9319      	str	r3, [sp, #100]	@ 0x64
 8008e72:	bf14      	ite	ne
 8008e74:	f104 33ff 	addne.w	r3, r4, #4294967295
 8008e78:	4623      	moveq	r3, r4
 8008e7a:	9302      	str	r3, [sp, #8]
 8008e7c:	9305      	str	r3, [sp, #20]
 8008e7e:	f64f 73ff 	movw	r3, #65535	@ 0xffff
 8008e82:	9100      	str	r1, [sp, #0]
 8008e84:	9104      	str	r1, [sp, #16]
 8008e86:	f8ad 300e 	strh.w	r3, [sp, #14]
 8008e8a:	4669      	mov	r1, sp
 8008e8c:	9b1e      	ldr	r3, [sp, #120]	@ 0x78
 8008e8e:	f001 fb4b 	bl	800a528 <_svfiprintf_r>
 8008e92:	1c43      	adds	r3, r0, #1
 8008e94:	bfbc      	itt	lt
 8008e96:	238b      	movlt	r3, #139	@ 0x8b
 8008e98:	602b      	strlt	r3, [r5, #0]
 8008e9a:	2c00      	cmp	r4, #0
 8008e9c:	d0e0      	beq.n	8008e60 <_vsniprintf_r+0x16>
 8008e9e:	9b00      	ldr	r3, [sp, #0]
 8008ea0:	2200      	movs	r2, #0
 8008ea2:	701a      	strb	r2, [r3, #0]
 8008ea4:	e7dc      	b.n	8008e60 <_vsniprintf_r+0x16>
	...

08008ea8 <vsniprintf>:
 8008ea8:	b507      	push	{r0, r1, r2, lr}
 8008eaa:	9300      	str	r3, [sp, #0]
 8008eac:	4613      	mov	r3, r2
 8008eae:	460a      	mov	r2, r1
 8008eb0:	4601      	mov	r1, r0
 8008eb2:	4803      	ldr	r0, [pc, #12]	@ (8008ec0 <vsniprintf+0x18>)
 8008eb4:	6800      	ldr	r0, [r0, #0]
 8008eb6:	f7ff ffc8 	bl	8008e4a <_vsniprintf_r>
 8008eba:	b003      	add	sp, #12
 8008ebc:	f85d fb04 	ldr.w	pc, [sp], #4
 8008ec0:	2000016c 	.word	0x2000016c

08008ec4 <memmove>:
 8008ec4:	4288      	cmp	r0, r1
 8008ec6:	b510      	push	{r4, lr}
 8008ec8:	eb01 0402 	add.w	r4, r1, r2
 8008ecc:	d902      	bls.n	8008ed4 <memmove+0x10>
 8008ece:	4284      	cmp	r4, r0
 8008ed0:	4623      	mov	r3, r4
 8008ed2:	d807      	bhi.n	8008ee4 <memmove+0x20>
 8008ed4:	1e43      	subs	r3, r0, #1
 8008ed6:	42a1      	cmp	r1, r4
 8008ed8:	d008      	beq.n	8008eec <memmove+0x28>
 8008eda:	f811 2b01 	ldrb.w	r2, [r1], #1
 8008ede:	f803 2f01 	strb.w	r2, [r3, #1]!
 8008ee2:	e7f8      	b.n	8008ed6 <memmove+0x12>
 8008ee4:	4402      	add	r2, r0
 8008ee6:	4601      	mov	r1, r0
 8008ee8:	428a      	cmp	r2, r1
 8008eea:	d100      	bne.n	8008eee <memmove+0x2a>
 8008eec:	bd10      	pop	{r4, pc}
 8008eee:	f813 4d01 	ldrb.w	r4, [r3, #-1]!
 8008ef2:	f802 4d01 	strb.w	r4, [r2, #-1]!
 8008ef6:	e7f7      	b.n	8008ee8 <memmove+0x24>

08008ef8 <memset>:
 8008ef8:	4402      	add	r2, r0
 8008efa:	4603      	mov	r3, r0
 8008efc:	4293      	cmp	r3, r2
 8008efe:	d100      	bne.n	8008f02 <memset+0xa>
 8008f00:	4770      	bx	lr
 8008f02:	f803 1b01 	strb.w	r1, [r3], #1
 8008f06:	e7f9      	b.n	8008efc <memset+0x4>

08008f08 <_localeconv_r>:
 8008f08:	4800      	ldr	r0, [pc, #0]	@ (8008f0c <_localeconv_r+0x4>)
 8008f0a:	4770      	bx	lr
 8008f0c:	200002ac 	.word	0x200002ac

08008f10 <_close_r>:
 8008f10:	b538      	push	{r3, r4, r5, lr}
 8008f12:	4d06      	ldr	r5, [pc, #24]	@ (8008f2c <_close_r+0x1c>)
 8008f14:	2300      	movs	r3, #0
 8008f16:	4604      	mov	r4, r0
 8008f18:	4608      	mov	r0, r1
 8008f1a:	602b      	str	r3, [r5, #0]
 8008f1c:	f7f9 fd56 	bl	80029cc <_close>
 8008f20:	1c43      	adds	r3, r0, #1
 8008f22:	d102      	bne.n	8008f2a <_close_r+0x1a>
 8008f24:	682b      	ldr	r3, [r5, #0]
 8008f26:	b103      	cbz	r3, 8008f2a <_close_r+0x1a>
 8008f28:	6023      	str	r3, [r4, #0]
 8008f2a:	bd38      	pop	{r3, r4, r5, pc}
 8008f2c:	2000127c 	.word	0x2000127c

08008f30 <_lseek_r>:
 8008f30:	b538      	push	{r3, r4, r5, lr}
 8008f32:	4d07      	ldr	r5, [pc, #28]	@ (8008f50 <_lseek_r+0x20>)
 8008f34:	4604      	mov	r4, r0
 8008f36:	4608      	mov	r0, r1
 8008f38:	4611      	mov	r1, r2
 8008f3a:	2200      	movs	r2, #0
 8008f3c:	602a      	str	r2, [r5, #0]
 8008f3e:	461a      	mov	r2, r3
 8008f40:	f7f9 fd6b 	bl	8002a1a <_lseek>
 8008f44:	1c43      	adds	r3, r0, #1
 8008f46:	d102      	bne.n	8008f4e <_lseek_r+0x1e>
 8008f48:	682b      	ldr	r3, [r5, #0]
 8008f4a:	b103      	cbz	r3, 8008f4e <_lseek_r+0x1e>
 8008f4c:	6023      	str	r3, [r4, #0]
 8008f4e:	bd38      	pop	{r3, r4, r5, pc}
 8008f50:	2000127c 	.word	0x2000127c

08008f54 <_read_r>:
 8008f54:	b538      	push	{r3, r4, r5, lr}
 8008f56:	4d07      	ldr	r5, [pc, #28]	@ (8008f74 <_read_r+0x20>)
 8008f58:	4604      	mov	r4, r0
 8008f5a:	4608      	mov	r0, r1
 8008f5c:	4611      	mov	r1, r2
 8008f5e:	2200      	movs	r2, #0
 8008f60:	602a      	str	r2, [r5, #0]
 8008f62:	461a      	mov	r2, r3
 8008f64:	f7f9 fcf9 	bl	800295a <_read>
 8008f68:	1c43      	adds	r3, r0, #1
 8008f6a:	d102      	bne.n	8008f72 <_read_r+0x1e>
 8008f6c:	682b      	ldr	r3, [r5, #0]
 8008f6e:	b103      	cbz	r3, 8008f72 <_read_r+0x1e>
 8008f70:	6023      	str	r3, [r4, #0]
 8008f72:	bd38      	pop	{r3, r4, r5, pc}
 8008f74:	2000127c 	.word	0x2000127c

08008f78 <_sbrk_r>:
 8008f78:	b538      	push	{r3, r4, r5, lr}
 8008f7a:	4d06      	ldr	r5, [pc, #24]	@ (8008f94 <_sbrk_r+0x1c>)
 8008f7c:	2300      	movs	r3, #0
 8008f7e:	4604      	mov	r4, r0
 8008f80:	4608      	mov	r0, r1
 8008f82:	602b      	str	r3, [r5, #0]
 8008f84:	f7f9 fd56 	bl	8002a34 <_sbrk>
 8008f88:	1c43      	adds	r3, r0, #1
 8008f8a:	d102      	bne.n	8008f92 <_sbrk_r+0x1a>
 8008f8c:	682b      	ldr	r3, [r5, #0]
 8008f8e:	b103      	cbz	r3, 8008f92 <_sbrk_r+0x1a>
 8008f90:	6023      	str	r3, [r4, #0]
 8008f92:	bd38      	pop	{r3, r4, r5, pc}
 8008f94:	2000127c 	.word	0x2000127c

08008f98 <_write_r>:
 8008f98:	b538      	push	{r3, r4, r5, lr}
 8008f9a:	4d07      	ldr	r5, [pc, #28]	@ (8008fb8 <_write_r+0x20>)
 8008f9c:	4604      	mov	r4, r0
 8008f9e:	4608      	mov	r0, r1
 8008fa0:	4611      	mov	r1, r2
 8008fa2:	2200      	movs	r2, #0
 8008fa4:	602a      	str	r2, [r5, #0]
 8008fa6:	461a      	mov	r2, r3
 8008fa8:	f7f9 fcf4 	bl	8002994 <_write>
 8008fac:	1c43      	adds	r3, r0, #1
 8008fae:	d102      	bne.n	8008fb6 <_write_r+0x1e>
 8008fb0:	682b      	ldr	r3, [r5, #0]
 8008fb2:	b103      	cbz	r3, 8008fb6 <_write_r+0x1e>
 8008fb4:	6023      	str	r3, [r4, #0]
 8008fb6:	bd38      	pop	{r3, r4, r5, pc}
 8008fb8:	2000127c 	.word	0x2000127c

08008fbc <__errno>:
 8008fbc:	4b01      	ldr	r3, [pc, #4]	@ (8008fc4 <__errno+0x8>)
 8008fbe:	6818      	ldr	r0, [r3, #0]
 8008fc0:	4770      	bx	lr
 8008fc2:	bf00      	nop
 8008fc4:	2000016c 	.word	0x2000016c

08008fc8 <__libc_init_array>:
 8008fc8:	b570      	push	{r4, r5, r6, lr}
 8008fca:	4d0d      	ldr	r5, [pc, #52]	@ (8009000 <__libc_init_array+0x38>)
 8008fcc:	4c0d      	ldr	r4, [pc, #52]	@ (8009004 <__libc_init_array+0x3c>)
 8008fce:	1b64      	subs	r4, r4, r5
 8008fd0:	10a4      	asrs	r4, r4, #2
 8008fd2:	2600      	movs	r6, #0
 8008fd4:	42a6      	cmp	r6, r4
 8008fd6:	d109      	bne.n	8008fec <__libc_init_array+0x24>
 8008fd8:	4d0b      	ldr	r5, [pc, #44]	@ (8009008 <__libc_init_array+0x40>)
 8008fda:	4c0c      	ldr	r4, [pc, #48]	@ (800900c <__libc_init_array+0x44>)
 8008fdc:	f001 ff8a 	bl	800aef4 <_init>
 8008fe0:	1b64      	subs	r4, r4, r5
 8008fe2:	10a4      	asrs	r4, r4, #2
 8008fe4:	2600      	movs	r6, #0
 8008fe6:	42a6      	cmp	r6, r4
 8008fe8:	d105      	bne.n	8008ff6 <__libc_init_array+0x2e>
 8008fea:	bd70      	pop	{r4, r5, r6, pc}
 8008fec:	f855 3b04 	ldr.w	r3, [r5], #4
 8008ff0:	4798      	blx	r3
 8008ff2:	3601      	adds	r6, #1
 8008ff4:	e7ee      	b.n	8008fd4 <__libc_init_array+0xc>
 8008ff6:	f855 3b04 	ldr.w	r3, [r5], #4
 8008ffa:	4798      	blx	r3
 8008ffc:	3601      	adds	r6, #1
 8008ffe:	e7f2      	b.n	8008fe6 <__libc_init_array+0x1e>
 8009000:	0800d9f4 	.word	0x0800d9f4
 8009004:	0800d9f4 	.word	0x0800d9f4
 8009008:	0800d9f4 	.word	0x0800d9f4
 800900c:	0800d9f8 	.word	0x0800d9f8

08009010 <__retarget_lock_init_recursive>:
 8009010:	4770      	bx	lr

08009012 <__retarget_lock_acquire_recursive>:
 8009012:	4770      	bx	lr

08009014 <__retarget_lock_release_recursive>:
 8009014:	4770      	bx	lr

08009016 <memcpy>:
 8009016:	440a      	add	r2, r1
 8009018:	4291      	cmp	r1, r2
 800901a:	f100 33ff 	add.w	r3, r0, #4294967295
 800901e:	d100      	bne.n	8009022 <memcpy+0xc>
 8009020:	4770      	bx	lr
 8009022:	b510      	push	{r4, lr}
 8009024:	f811 4b01 	ldrb.w	r4, [r1], #1
 8009028:	f803 4f01 	strb.w	r4, [r3, #1]!
 800902c:	4291      	cmp	r1, r2
 800902e:	d1f9      	bne.n	8009024 <memcpy+0xe>
 8009030:	bd10      	pop	{r4, pc}

08009032 <quorem>:
 8009032:	e92d 4ff7 	stmdb	sp!, {r0, r1, r2, r4, r5, r6, r7, r8, r9, sl, fp, lr}
 8009036:	6903      	ldr	r3, [r0, #16]
 8009038:	690c      	ldr	r4, [r1, #16]
 800903a:	42a3      	cmp	r3, r4
 800903c:	4607      	mov	r7, r0
 800903e:	db7e      	blt.n	800913e <quorem+0x10c>
 8009040:	3c01      	subs	r4, #1
 8009042:	f101 0814 	add.w	r8, r1, #20
 8009046:	00a3      	lsls	r3, r4, #2
 8009048:	f100 0514 	add.w	r5, r0, #20
 800904c:	9300      	str	r3, [sp, #0]
 800904e:	eb05 0384 	add.w	r3, r5, r4, lsl #2
 8009052:	9301      	str	r3, [sp, #4]
 8009054:	f858 3024 	ldr.w	r3, [r8, r4, lsl #2]
 8009058:	f855 2024 	ldr.w	r2, [r5, r4, lsl #2]
 800905c:	3301      	adds	r3, #1
 800905e:	429a      	cmp	r2, r3
 8009060:	eb08 0984 	add.w	r9, r8, r4, lsl #2
 8009064:	fbb2 f6f3 	udiv	r6, r2, r3
 8009068:	d32e      	bcc.n	80090c8 <quorem+0x96>
 800906a:	f04f 0a00 	mov.w	sl, #0
 800906e:	46c4      	mov	ip, r8
 8009070:	46ae      	mov	lr, r5
 8009072:	46d3      	mov	fp, sl
 8009074:	f85c 3b04 	ldr.w	r3, [ip], #4
 8009078:	b298      	uxth	r0, r3
 800907a:	fb06 a000 	mla	r0, r6, r0, sl
 800907e:	0c02      	lsrs	r2, r0, #16
 8009080:	0c1b      	lsrs	r3, r3, #16
 8009082:	fb06 2303 	mla	r3, r6, r3, r2
 8009086:	f8de 2000 	ldr.w	r2, [lr]
 800908a:	b280      	uxth	r0, r0
 800908c:	b292      	uxth	r2, r2
 800908e:	1a12      	subs	r2, r2, r0
 8009090:	445a      	add	r2, fp
 8009092:	f8de 0000 	ldr.w	r0, [lr]
 8009096:	ea4f 4a13 	mov.w	sl, r3, lsr #16
 800909a:	b29b      	uxth	r3, r3
 800909c:	ebc3 4322 	rsb	r3, r3, r2, asr #16
 80090a0:	eb03 4310 	add.w	r3, r3, r0, lsr #16
 80090a4:	b292      	uxth	r2, r2
 80090a6:	ea42 4203 	orr.w	r2, r2, r3, lsl #16
 80090aa:	45e1      	cmp	r9, ip
 80090ac:	f84e 2b04 	str.w	r2, [lr], #4
 80090b0:	ea4f 4b23 	mov.w	fp, r3, asr #16
 80090b4:	d2de      	bcs.n	8009074 <quorem+0x42>
 80090b6:	9b00      	ldr	r3, [sp, #0]
 80090b8:	58eb      	ldr	r3, [r5, r3]
 80090ba:	b92b      	cbnz	r3, 80090c8 <quorem+0x96>
 80090bc:	9b01      	ldr	r3, [sp, #4]
 80090be:	3b04      	subs	r3, #4
 80090c0:	429d      	cmp	r5, r3
 80090c2:	461a      	mov	r2, r3
 80090c4:	d32f      	bcc.n	8009126 <quorem+0xf4>
 80090c6:	613c      	str	r4, [r7, #16]
 80090c8:	4638      	mov	r0, r7
 80090ca:	f001 f8c9 	bl	800a260 <__mcmp>
 80090ce:	2800      	cmp	r0, #0
 80090d0:	db25      	blt.n	800911e <quorem+0xec>
 80090d2:	4629      	mov	r1, r5
 80090d4:	2000      	movs	r0, #0
 80090d6:	f858 2b04 	ldr.w	r2, [r8], #4
 80090da:	f8d1 c000 	ldr.w	ip, [r1]
 80090de:	fa1f fe82 	uxth.w	lr, r2
 80090e2:	fa1f f38c 	uxth.w	r3, ip
 80090e6:	eba3 030e 	sub.w	r3, r3, lr
 80090ea:	4403      	add	r3, r0
 80090ec:	0c12      	lsrs	r2, r2, #16
 80090ee:	ebc2 4223 	rsb	r2, r2, r3, asr #16
 80090f2:	eb02 421c 	add.w	r2, r2, ip, lsr #16
 80090f6:	b29b      	uxth	r3, r3
 80090f8:	ea43 4302 	orr.w	r3, r3, r2, lsl #16
 80090fc:	45c1      	cmp	r9, r8
 80090fe:	f841 3b04 	str.w	r3, [r1], #4
 8009102:	ea4f 4022 	mov.w	r0, r2, asr #16
 8009106:	d2e6      	bcs.n	80090d6 <quorem+0xa4>
 8009108:	f855 2024 	ldr.w	r2, [r5, r4, lsl #2]
 800910c:	eb05 0384 	add.w	r3, r5, r4, lsl #2
 8009110:	b922      	cbnz	r2, 800911c <quorem+0xea>
 8009112:	3b04      	subs	r3, #4
 8009114:	429d      	cmp	r5, r3
 8009116:	461a      	mov	r2, r3
 8009118:	d30b      	bcc.n	8009132 <quorem+0x100>
 800911a:	613c      	str	r4, [r7, #16]
 800911c:	3601      	adds	r6, #1
 800911e:	4630      	mov	r0, r6
 8009120:	b003      	add	sp, #12
 8009122:	e8bd 8ff0 	ldmia.w	sp!, {r4, r5, r6, r7, r8, r9, sl, fp, pc}
 8009126:	6812      	ldr	r2, [r2, #0]
 8009128:	3b04      	subs	r3, #4
 800912a:	2a00      	cmp	r2, #0
 800912c:	d1cb      	bne.n	80090c6 <quorem+0x94>
 800912e:	3c01      	subs	r4, #1
 8009130:	e7c6      	b.n	80090c0 <quorem+0x8e>
 8009132:	6812      	ldr	r2, [r2, #0]
 8009134:	3b04      	subs	r3, #4
 8009136:	2a00      	cmp	r2, #0
 8009138:	d1ef      	bne.n	800911a <quorem+0xe8>
 800913a:	3c01      	subs	r4, #1
 800913c:	e7ea      	b.n	8009114 <quorem+0xe2>
 800913e:	2000      	movs	r0, #0
 8009140:	e7ee      	b.n	8009120 <quorem+0xee>
 8009142:	0000      	movs	r0, r0
 8009144:	0000      	movs	r0, r0
	...

08009148 <_dtoa_r>:
 8009148:	e92d 4ff0 	stmdb	sp!, {r4, r5, r6, r7, r8, r9, sl, fp, lr}
 800914c:	69c7      	ldr	r7, [r0, #28]
 800914e:	b097      	sub	sp, #92	@ 0x5c
 8009150:	ed8d 0b04 	vstr	d0, [sp, #16]
 8009154:	ec55 4b10 	vmov	r4, r5, d0
 8009158:	9e20      	ldr	r6, [sp, #128]	@ 0x80
 800915a:	9107      	str	r1, [sp, #28]
 800915c:	4681      	mov	r9, r0
 800915e:	920c      	str	r2, [sp, #48]	@ 0x30
 8009160:	9311      	str	r3, [sp, #68]	@ 0x44
 8009162:	b97f      	cbnz	r7, 8009184 <_dtoa_r+0x3c>
 8009164:	2010      	movs	r0, #16
 8009166:	f7ff f857 	bl	8008218 <malloc>
 800916a:	4602      	mov	r2, r0
 800916c:	f8c9 001c 	str.w	r0, [r9, #28]
 8009170:	b920      	cbnz	r0, 800917c <_dtoa_r+0x34>
 8009172:	4ba9      	ldr	r3, [pc, #676]	@ (8009418 <_dtoa_r+0x2d0>)
 8009174:	21ef      	movs	r1, #239	@ 0xef
 8009176:	48a9      	ldr	r0, [pc, #676]	@ (800941c <_dtoa_r+0x2d4>)
 8009178:	f001 fb7e 	bl	800a878 <__assert_func>
 800917c:	e9c0 7701 	strd	r7, r7, [r0, #4]
 8009180:	6007      	str	r7, [r0, #0]
 8009182:	60c7      	str	r7, [r0, #12]
 8009184:	f8d9 301c 	ldr.w	r3, [r9, #28]
 8009188:	6819      	ldr	r1, [r3, #0]
 800918a:	b159      	cbz	r1, 80091a4 <_dtoa_r+0x5c>
 800918c:	685a      	ldr	r2, [r3, #4]
 800918e:	604a      	str	r2, [r1, #4]
 8009190:	2301      	movs	r3, #1
 8009192:	4093      	lsls	r3, r2
 8009194:	608b      	str	r3, [r1, #8]
 8009196:	4648      	mov	r0, r9
 8009198:	f000 fe30 	bl	8009dfc <_Bfree>
 800919c:	f8d9 301c 	ldr.w	r3, [r9, #28]
 80091a0:	2200      	movs	r2, #0
 80091a2:	601a      	str	r2, [r3, #0]
 80091a4:	1e2b      	subs	r3, r5, #0
 80091a6:	bfb9      	ittee	lt
 80091a8:	f023 4300 	biclt.w	r3, r3, #2147483648	@ 0x80000000
 80091ac:	9305      	strlt	r3, [sp, #20]
 80091ae:	2300      	movge	r3, #0
 80091b0:	6033      	strge	r3, [r6, #0]
 80091b2:	9f05      	ldr	r7, [sp, #20]
 80091b4:	4b9a      	ldr	r3, [pc, #616]	@ (8009420 <_dtoa_r+0x2d8>)
 80091b6:	bfbc      	itt	lt
 80091b8:	2201      	movlt	r2, #1
 80091ba:	6032      	strlt	r2, [r6, #0]
 80091bc:	43bb      	bics	r3, r7
 80091be:	d112      	bne.n	80091e6 <_dtoa_r+0x9e>
 80091c0:	9a11      	ldr	r2, [sp, #68]	@ 0x44
 80091c2:	f242 730f 	movw	r3, #9999	@ 0x270f
 80091c6:	6013      	str	r3, [r2, #0]
 80091c8:	f3c7 0313 	ubfx	r3, r7, #0, #20
 80091cc:	4323      	orrs	r3, r4
 80091ce:	f000 855a 	beq.w	8009c86 <_dtoa_r+0xb3e>
 80091d2:	9b21      	ldr	r3, [sp, #132]	@ 0x84
 80091d4:	f8df a25c 	ldr.w	sl, [pc, #604]	@ 8009434 <_dtoa_r+0x2ec>
 80091d8:	2b00      	cmp	r3, #0
 80091da:	f000 855c 	beq.w	8009c96 <_dtoa_r+0xb4e>
 80091de:	f10a 0303 	add.w	r3, sl, #3
 80091e2:	f000 bd56 	b.w	8009c92 <_dtoa_r+0xb4a>
 80091e6:	ed9d 7b04 	vldr	d7, [sp, #16]
 80091ea:	2200      	movs	r2, #0
 80091ec:	ec51 0b17 	vmov	r0, r1, d7
 80091f0:	2300      	movs	r3, #0
 80091f2:	ed8d 7b0a 	vstr	d7, [sp, #40]	@ 0x28
 80091f6:	f7f7 fc87 	bl	8000b08 <__aeabi_dcmpeq>
 80091fa:	4680      	mov	r8, r0
 80091fc:	b158      	cbz	r0, 8009216 <_dtoa_r+0xce>
 80091fe:	9a11      	ldr	r2, [sp, #68]	@ 0x44
 8009200:	2301      	movs	r3, #1
 8009202:	6013      	str	r3, [r2, #0]
 8009204:	9b21      	ldr	r3, [sp, #132]	@ 0x84
 8009206:	b113      	cbz	r3, 800920e <_dtoa_r+0xc6>
 8009208:	9a21      	ldr	r2, [sp, #132]	@ 0x84
 800920a:	4b86      	ldr	r3, [pc, #536]	@ (8009424 <_dtoa_r+0x2dc>)
 800920c:	6013      	str	r3, [r2, #0]
 800920e:	f8df a228 	ldr.w	sl, [pc, #552]	@ 8009438 <_dtoa_r+0x2f0>
 8009212:	f000 bd40 	b.w	8009c96 <_dtoa_r+0xb4e>
 8009216:	ed9d 0b0a 	vldr	d0, [sp, #40]	@ 0x28
 800921a:	aa14      	add	r2, sp, #80	@ 0x50
 800921c:	a915      	add	r1, sp, #84	@ 0x54
 800921e:	4648      	mov	r0, r9
 8009220:	f001 f8ce 	bl	800a3c0 <__d2b>
 8009224:	f3c7 560a 	ubfx	r6, r7, #20, #11
 8009228:	9002      	str	r0, [sp, #8]
 800922a:	2e00      	cmp	r6, #0
 800922c:	d078      	beq.n	8009320 <_dtoa_r+0x1d8>
 800922e:	9b0b      	ldr	r3, [sp, #44]	@ 0x2c
 8009230:	f8cd 8048 	str.w	r8, [sp, #72]	@ 0x48
 8009234:	f3c3 0313 	ubfx	r3, r3, #0, #20
 8009238:	e9dd 010a 	ldrd	r0, r1, [sp, #40]	@ 0x28
 800923c:	f043 537f 	orr.w	r3, r3, #1069547520	@ 0x3fc00000
 8009240:	f443 1340 	orr.w	r3, r3, #3145728	@ 0x300000
 8009244:	f2a6 36ff 	subw	r6, r6, #1023	@ 0x3ff
 8009248:	4619      	mov	r1, r3
 800924a:	2200      	movs	r2, #0
 800924c:	4b76      	ldr	r3, [pc, #472]	@ (8009428 <_dtoa_r+0x2e0>)
 800924e:	f7f7 f83b 	bl	80002c8 <__aeabi_dsub>
 8009252:	a36b      	add	r3, pc, #428	@ (adr r3, 8009400 <_dtoa_r+0x2b8>)
 8009254:	e9d3 2300 	ldrd	r2, r3, [r3]
 8009258:	f7f7 f9ee 	bl	8000638 <__aeabi_dmul>
 800925c:	a36a      	add	r3, pc, #424	@ (adr r3, 8009408 <_dtoa_r+0x2c0>)
 800925e:	e9d3 2300 	ldrd	r2, r3, [r3]
 8009262:	f7f7 f833 	bl	80002cc <__adddf3>
 8009266:	4604      	mov	r4, r0
 8009268:	4630      	mov	r0, r6
 800926a:	460d      	mov	r5, r1
 800926c:	f7f7 f97a 	bl	8000564 <__aeabi_i2d>
 8009270:	a367      	add	r3, pc, #412	@ (adr r3, 8009410 <_dtoa_r+0x2c8>)
 8009272:	e9d3 2300 	ldrd	r2, r3, [r3]
 8009276:	f7f7 f9df 	bl	8000638 <__aeabi_dmul>
 800927a:	4602      	mov	r2, r0
 800927c:	460b      	mov	r3, r1
 800927e:	4620      	mov	r0, r4
 8009280:	4629      	mov	r1, r5
 8009282:	f7f7 f823 	bl	80002cc <__adddf3>
 8009286:	4604      	mov	r4, r0
 8009288:	460d      	mov	r5, r1
 800928a:	f7f7 fc85 	bl	8000b98 <__aeabi_d2iz>
 800928e:	2200      	movs	r2, #0
 8009290:	4607      	mov	r7, r0
 8009292:	2300      	movs	r3, #0
 8009294:	4620      	mov	r0, r4
 8009296:	4629      	mov	r1, r5
 8009298:	f7f7 fc40 	bl	8000b1c <__aeabi_dcmplt>
 800929c:	b140      	cbz	r0, 80092b0 <_dtoa_r+0x168>
 800929e:	4638      	mov	r0, r7
 80092a0:	f7f7 f960 	bl	8000564 <__aeabi_i2d>
 80092a4:	4622      	mov	r2, r4
 80092a6:	462b      	mov	r3, r5
 80092a8:	f7f7 fc2e 	bl	8000b08 <__aeabi_dcmpeq>
 80092ac:	b900      	cbnz	r0, 80092b0 <_dtoa_r+0x168>
 80092ae:	3f01      	subs	r7, #1
 80092b0:	2f16      	cmp	r7, #22
 80092b2:	d852      	bhi.n	800935a <_dtoa_r+0x212>
 80092b4:	4b5d      	ldr	r3, [pc, #372]	@ (800942c <_dtoa_r+0x2e4>)
 80092b6:	eb03 03c7 	add.w	r3, r3, r7, lsl #3
 80092ba:	e9d3 2300 	ldrd	r2, r3, [r3]
 80092be:	e9dd 010a 	ldrd	r0, r1, [sp, #40]	@ 0x28
 80092c2:	f7f7 fc2b 	bl	8000b1c <__aeabi_dcmplt>
 80092c6:	2800      	cmp	r0, #0
 80092c8:	d049      	beq.n	800935e <_dtoa_r+0x216>
 80092ca:	3f01      	subs	r7, #1
 80092cc:	2300      	movs	r3, #0
 80092ce:	9310      	str	r3, [sp, #64]	@ 0x40
 80092d0:	9b14      	ldr	r3, [sp, #80]	@ 0x50
 80092d2:	1b9b      	subs	r3, r3, r6
 80092d4:	1e5a      	subs	r2, r3, #1
 80092d6:	bf45      	ittet	mi
 80092d8:	f1c3 0301 	rsbmi	r3, r3, #1
 80092dc:	9300      	strmi	r3, [sp, #0]
 80092de:	2300      	movpl	r3, #0
 80092e0:	2300      	movmi	r3, #0
 80092e2:	9206      	str	r2, [sp, #24]
 80092e4:	bf54      	ite	pl
 80092e6:	9300      	strpl	r3, [sp, #0]
 80092e8:	9306      	strmi	r3, [sp, #24]
 80092ea:	2f00      	cmp	r7, #0
 80092ec:	db39      	blt.n	8009362 <_dtoa_r+0x21a>
 80092ee:	9b06      	ldr	r3, [sp, #24]
 80092f0:	970d      	str	r7, [sp, #52]	@ 0x34
 80092f2:	443b      	add	r3, r7
 80092f4:	9306      	str	r3, [sp, #24]
 80092f6:	2300      	movs	r3, #0
 80092f8:	9308      	str	r3, [sp, #32]
 80092fa:	9b07      	ldr	r3, [sp, #28]
 80092fc:	2b09      	cmp	r3, #9
 80092fe:	d863      	bhi.n	80093c8 <_dtoa_r+0x280>
 8009300:	2b05      	cmp	r3, #5
 8009302:	bfc4      	itt	gt
 8009304:	3b04      	subgt	r3, #4
 8009306:	9307      	strgt	r3, [sp, #28]
 8009308:	9b07      	ldr	r3, [sp, #28]
 800930a:	f1a3 0302 	sub.w	r3, r3, #2
 800930e:	bfcc      	ite	gt
 8009310:	2400      	movgt	r4, #0
 8009312:	2401      	movle	r4, #1
 8009314:	2b03      	cmp	r3, #3
 8009316:	d863      	bhi.n	80093e0 <_dtoa_r+0x298>
 8009318:	e8df f003 	tbb	[pc, r3]
 800931c:	2b375452 	.word	0x2b375452
 8009320:	e9dd 6314 	ldrd	r6, r3, [sp, #80]	@ 0x50
 8009324:	441e      	add	r6, r3
 8009326:	f206 4332 	addw	r3, r6, #1074	@ 0x432
 800932a:	2b20      	cmp	r3, #32
 800932c:	bfc1      	itttt	gt
 800932e:	f1c3 0340 	rsbgt	r3, r3, #64	@ 0x40
 8009332:	409f      	lslgt	r7, r3
 8009334:	f206 4312 	addwgt	r3, r6, #1042	@ 0x412
 8009338:	fa24 f303 	lsrgt.w	r3, r4, r3
 800933c:	bfd6      	itet	le
 800933e:	f1c3 0320 	rsble	r3, r3, #32
 8009342:	ea47 0003 	orrgt.w	r0, r7, r3
 8009346:	fa04 f003 	lslle.w	r0, r4, r3
 800934a:	f7f7 f8fb 	bl	8000544 <__aeabi_ui2d>
 800934e:	2201      	movs	r2, #1
 8009350:	f1a1 73f8 	sub.w	r3, r1, #32505856	@ 0x1f00000
 8009354:	3e01      	subs	r6, #1
 8009356:	9212      	str	r2, [sp, #72]	@ 0x48
 8009358:	e776      	b.n	8009248 <_dtoa_r+0x100>
 800935a:	2301      	movs	r3, #1
 800935c:	e7b7      	b.n	80092ce <_dtoa_r+0x186>
 800935e:	9010      	str	r0, [sp, #64]	@ 0x40
 8009360:	e7b6      	b.n	80092d0 <_dtoa_r+0x188>
 8009362:	9b00      	ldr	r3, [sp, #0]
 8009364:	1bdb      	subs	r3, r3, r7
 8009366:	9300      	str	r3, [sp, #0]
 8009368:	427b      	negs	r3, r7
 800936a:	9308      	str	r3, [sp, #32]
 800936c:	2300      	movs	r3, #0
 800936e:	930d      	str	r3, [sp, #52]	@ 0x34
 8009370:	e7c3      	b.n	80092fa <_dtoa_r+0x1b2>
 8009372:	2301      	movs	r3, #1
 8009374:	9309      	str	r3, [sp, #36]	@ 0x24
 8009376:	9b0c      	ldr	r3, [sp, #48]	@ 0x30
 8009378:	eb07 0b03 	add.w	fp, r7, r3
 800937c:	f10b 0301 	add.w	r3, fp, #1
 8009380:	2b01      	cmp	r3, #1
 8009382:	9303      	str	r3, [sp, #12]
 8009384:	bfb8      	it	lt
 8009386:	2301      	movlt	r3, #1
 8009388:	e006      	b.n	8009398 <_dtoa_r+0x250>
 800938a:	2301      	movs	r3, #1
 800938c:	9309      	str	r3, [sp, #36]	@ 0x24
 800938e:	9b0c      	ldr	r3, [sp, #48]	@ 0x30
 8009390:	2b00      	cmp	r3, #0
 8009392:	dd28      	ble.n	80093e6 <_dtoa_r+0x29e>
 8009394:	469b      	mov	fp, r3
 8009396:	9303      	str	r3, [sp, #12]
 8009398:	f8d9 001c 	ldr.w	r0, [r9, #28]
 800939c:	2100      	movs	r1, #0
 800939e:	2204      	movs	r2, #4
 80093a0:	f102 0514 	add.w	r5, r2, #20
 80093a4:	429d      	cmp	r5, r3
 80093a6:	d926      	bls.n	80093f6 <_dtoa_r+0x2ae>
 80093a8:	6041      	str	r1, [r0, #4]
 80093aa:	4648      	mov	r0, r9
 80093ac:	f000 fce6 	bl	8009d7c <_Balloc>
 80093b0:	4682      	mov	sl, r0
 80093b2:	2800      	cmp	r0, #0
 80093b4:	d142      	bne.n	800943c <_dtoa_r+0x2f4>
 80093b6:	4b1e      	ldr	r3, [pc, #120]	@ (8009430 <_dtoa_r+0x2e8>)
 80093b8:	4602      	mov	r2, r0
 80093ba:	f240 11af 	movw	r1, #431	@ 0x1af
 80093be:	e6da      	b.n	8009176 <_dtoa_r+0x2e>
 80093c0:	2300      	movs	r3, #0
 80093c2:	e7e3      	b.n	800938c <_dtoa_r+0x244>
 80093c4:	2300      	movs	r3, #0
 80093c6:	e7d5      	b.n	8009374 <_dtoa_r+0x22c>
 80093c8:	2401      	movs	r4, #1
 80093ca:	2300      	movs	r3, #0
 80093cc:	9307      	str	r3, [sp, #28]
 80093ce:	9409      	str	r4, [sp, #36]	@ 0x24
 80093d0:	f04f 3bff 	mov.w	fp, #4294967295
 80093d4:	2200      	movs	r2, #0
 80093d6:	f8cd b00c 	str.w	fp, [sp, #12]
 80093da:	2312      	movs	r3, #18
 80093dc:	920c      	str	r2, [sp, #48]	@ 0x30
 80093de:	e7db      	b.n	8009398 <_dtoa_r+0x250>
 80093e0:	2301      	movs	r3, #1
 80093e2:	9309      	str	r3, [sp, #36]	@ 0x24
 80093e4:	e7f4      	b.n	80093d0 <_dtoa_r+0x288>
 80093e6:	f04f 0b01 	mov.w	fp, #1
 80093ea:	f8cd b00c 	str.w	fp, [sp, #12]
 80093ee:	465b      	mov	r3, fp
 80093f0:	f8cd b030 	str.w	fp, [sp, #48]	@ 0x30
 80093f4:	e7d0      	b.n	8009398 <_dtoa_r+0x250>
 80093f6:	3101      	adds	r1, #1
 80093f8:	0052      	lsls	r2, r2, #1
 80093fa:	e7d1      	b.n	80093a0 <_dtoa_r+0x258>
 80093fc:	f3af 8000 	nop.w
 8009400:	636f4361 	.word	0x636f4361
 8009404:	3fd287a7 	.word	0x3fd287a7
 8009408:	8b60c8b3 	.word	0x8b60c8b3
 800940c:	3fc68a28 	.word	0x3fc68a28
 8009410:	509f79fb 	.word	0x509f79fb
 8009414:	3fd34413 	.word	0x3fd34413
 8009418:	0800d6b9 	.word	0x0800d6b9
 800941c:	0800d6d0 	.word	0x0800d6d0
 8009420:	7ff00000 	.word	0x7ff00000
 8009424:	0800d689 	.word	0x0800d689
 8009428:	3ff80000 	.word	0x3ff80000
 800942c:	0800d820 	.word	0x0800d820
 8009430:	0800d728 	.word	0x0800d728
 8009434:	0800d6b5 	.word	0x0800d6b5
 8009438:	0800d688 	.word	0x0800d688
 800943c:	f8d9 301c 	ldr.w	r3, [r9, #28]
 8009440:	6018      	str	r0, [r3, #0]
 8009442:	9b03      	ldr	r3, [sp, #12]
 8009444:	2b0e      	cmp	r3, #14
 8009446:	f200 80a1 	bhi.w	800958c <_dtoa_r+0x444>
 800944a:	2c00      	cmp	r4, #0
 800944c:	f000 809e 	beq.w	800958c <_dtoa_r+0x444>
 8009450:	2f00      	cmp	r7, #0
 8009452:	dd33      	ble.n	80094bc <_dtoa_r+0x374>
 8009454:	4b9c      	ldr	r3, [pc, #624]	@ (80096c8 <_dtoa_r+0x580>)
 8009456:	f007 020f 	and.w	r2, r7, #15
 800945a:	eb03 03c2 	add.w	r3, r3, r2, lsl #3
 800945e:	ed93 7b00 	vldr	d7, [r3]
 8009462:	05f8      	lsls	r0, r7, #23
 8009464:	ed8d 7b0e 	vstr	d7, [sp, #56]	@ 0x38
 8009468:	ea4f 1427 	mov.w	r4, r7, asr #4
 800946c:	d516      	bpl.n	800949c <_dtoa_r+0x354>
 800946e:	4b97      	ldr	r3, [pc, #604]	@ (80096cc <_dtoa_r+0x584>)
 8009470:	e9dd 010a 	ldrd	r0, r1, [sp, #40]	@ 0x28
 8009474:	e9d3 2308 	ldrd	r2, r3, [r3, #32]
 8009478:	f7f7 fa08 	bl	800088c <__aeabi_ddiv>
 800947c:	e9cd 0104 	strd	r0, r1, [sp, #16]
 8009480:	f004 040f 	and.w	r4, r4, #15
 8009484:	2603      	movs	r6, #3
 8009486:	4d91      	ldr	r5, [pc, #580]	@ (80096cc <_dtoa_r+0x584>)
 8009488:	b954      	cbnz	r4, 80094a0 <_dtoa_r+0x358>
 800948a:	e9dd 230e 	ldrd	r2, r3, [sp, #56]	@ 0x38
 800948e:	e9dd 0104 	ldrd	r0, r1, [sp, #16]
 8009492:	f7f7 f9fb 	bl	800088c <__aeabi_ddiv>
 8009496:	e9cd 0104 	strd	r0, r1, [sp, #16]
 800949a:	e028      	b.n	80094ee <_dtoa_r+0x3a6>
 800949c:	2602      	movs	r6, #2
 800949e:	e7f2      	b.n	8009486 <_dtoa_r+0x33e>
 80094a0:	07e1      	lsls	r1, r4, #31
 80094a2:	d508      	bpl.n	80094b6 <_dtoa_r+0x36e>
 80094a4:	e9dd 010e 	ldrd	r0, r1, [sp, #56]	@ 0x38
 80094a8:	e9d5 2300 	ldrd	r2, r3, [r5]
 80094ac:	f7f7 f8c4 	bl	8000638 <__aeabi_dmul>
 80094b0:	e9cd 010e 	strd	r0, r1, [sp, #56]	@ 0x38
 80094b4:	3601      	adds	r6, #1
 80094b6:	1064      	asrs	r4, r4, #1
 80094b8:	3508      	adds	r5, #8
 80094ba:	e7e5      	b.n	8009488 <_dtoa_r+0x340>
 80094bc:	f000 80af 	beq.w	800961e <_dtoa_r+0x4d6>
 80094c0:	427c      	negs	r4, r7
 80094c2:	4b81      	ldr	r3, [pc, #516]	@ (80096c8 <_dtoa_r+0x580>)
 80094c4:	4d81      	ldr	r5, [pc, #516]	@ (80096cc <_dtoa_r+0x584>)
 80094c6:	f004 020f 	and.w	r2, r4, #15
 80094ca:	eb03 03c2 	add.w	r3, r3, r2, lsl #3
 80094ce:	e9d3 2300 	ldrd	r2, r3, [r3]
 80094d2:	e9dd 010a 	ldrd	r0, r1, [sp, #40]	@ 0x28
 80094d6:	f7f7 f8af 	bl	8000638 <__aeabi_dmul>
 80094da:	e9cd 0104 	strd	r0, r1, [sp, #16]
 80094de:	1124      	asrs	r4, r4, #4
 80094e0:	2300      	movs	r3, #0
 80094e2:	2602      	movs	r6, #2
 80094e4:	2c00      	cmp	r4, #0
 80094e6:	f040 808f 	bne.w	8009608 <_dtoa_r+0x4c0>
 80094ea:	2b00      	cmp	r3, #0
 80094ec:	d1d3      	bne.n	8009496 <_dtoa_r+0x34e>
 80094ee:	9b10      	ldr	r3, [sp, #64]	@ 0x40
 80094f0:	e9dd 4504 	ldrd	r4, r5, [sp, #16]
 80094f4:	2b00      	cmp	r3, #0
 80094f6:	f000 8094 	beq.w	8009622 <_dtoa_r+0x4da>
 80094fa:	4b75      	ldr	r3, [pc, #468]	@ (80096d0 <_dtoa_r+0x588>)
 80094fc:	2200      	movs	r2, #0
 80094fe:	4620      	mov	r0, r4
 8009500:	4629      	mov	r1, r5
 8009502:	f7f7 fb0b 	bl	8000b1c <__aeabi_dcmplt>
 8009506:	2800      	cmp	r0, #0
 8009508:	f000 808b 	beq.w	8009622 <_dtoa_r+0x4da>
 800950c:	9b03      	ldr	r3, [sp, #12]
 800950e:	2b00      	cmp	r3, #0
 8009510:	f000 8087 	beq.w	8009622 <_dtoa_r+0x4da>
 8009514:	f1bb 0f00 	cmp.w	fp, #0
 8009518:	dd34      	ble.n	8009584 <_dtoa_r+0x43c>
 800951a:	4620      	mov	r0, r4
 800951c:	4b6d      	ldr	r3, [pc, #436]	@ (80096d4 <_dtoa_r+0x58c>)
 800951e:	2200      	movs	r2, #0
 8009520:	4629      	mov	r1, r5
 8009522:	f7f7 f889 	bl	8000638 <__aeabi_dmul>
 8009526:	e9cd 0104 	strd	r0, r1, [sp, #16]
 800952a:	f107 38ff 	add.w	r8, r7, #4294967295
 800952e:	3601      	adds	r6, #1
 8009530:	465c      	mov	r4, fp
 8009532:	4630      	mov	r0, r6
 8009534:	f7f7 f816 	bl	8000564 <__aeabi_i2d>
 8009538:	e9dd 2304 	ldrd	r2, r3, [sp, #16]
 800953c:	f7f7 f87c 	bl	8000638 <__aeabi_dmul>
 8009540:	4b65      	ldr	r3, [pc, #404]	@ (80096d8 <_dtoa_r+0x590>)
 8009542:	2200      	movs	r2, #0
 8009544:	f7f6 fec2 	bl	80002cc <__adddf3>
 8009548:	4605      	mov	r5, r0
 800954a:	f1a1 7650 	sub.w	r6, r1, #54525952	@ 0x3400000
 800954e:	2c00      	cmp	r4, #0
 8009550:	d16a      	bne.n	8009628 <_dtoa_r+0x4e0>
 8009552:	e9dd 0104 	ldrd	r0, r1, [sp, #16]
 8009556:	4b61      	ldr	r3, [pc, #388]	@ (80096dc <_dtoa_r+0x594>)
 8009558:	2200      	movs	r2, #0
 800955a:	f7f6 feb5 	bl	80002c8 <__aeabi_dsub>
 800955e:	4602      	mov	r2, r0
 8009560:	460b      	mov	r3, r1
 8009562:	e9cd 2304 	strd	r2, r3, [sp, #16]
 8009566:	462a      	mov	r2, r5
 8009568:	4633      	mov	r3, r6
 800956a:	f7f7 faf5 	bl	8000b58 <__aeabi_dcmpgt>
 800956e:	2800      	cmp	r0, #0
 8009570:	f040 8298 	bne.w	8009aa4 <_dtoa_r+0x95c>
 8009574:	e9dd 0104 	ldrd	r0, r1, [sp, #16]
 8009578:	462a      	mov	r2, r5
 800957a:	f106 4300 	add.w	r3, r6, #2147483648	@ 0x80000000
 800957e:	f7f7 facd 	bl	8000b1c <__aeabi_dcmplt>
 8009582:	bb38      	cbnz	r0, 80095d4 <_dtoa_r+0x48c>
 8009584:	e9dd 340a 	ldrd	r3, r4, [sp, #40]	@ 0x28
 8009588:	e9cd 3404 	strd	r3, r4, [sp, #16]
 800958c:	9b15      	ldr	r3, [sp, #84]	@ 0x54
 800958e:	2b00      	cmp	r3, #0
 8009590:	f2c0 8157 	blt.w	8009842 <_dtoa_r+0x6fa>
 8009594:	2f0e      	cmp	r7, #14
 8009596:	f300 8154 	bgt.w	8009842 <_dtoa_r+0x6fa>
 800959a:	4b4b      	ldr	r3, [pc, #300]	@ (80096c8 <_dtoa_r+0x580>)
 800959c:	eb03 03c7 	add.w	r3, r3, r7, lsl #3
 80095a0:	ed93 7b00 	vldr	d7, [r3]
 80095a4:	9b0c      	ldr	r3, [sp, #48]	@ 0x30
 80095a6:	2b00      	cmp	r3, #0
 80095a8:	ed8d 7b00 	vstr	d7, [sp]
 80095ac:	f280 80e5 	bge.w	800977a <_dtoa_r+0x632>
 80095b0:	9b03      	ldr	r3, [sp, #12]
 80095b2:	2b00      	cmp	r3, #0
 80095b4:	f300 80e1 	bgt.w	800977a <_dtoa_r+0x632>
 80095b8:	d10c      	bne.n	80095d4 <_dtoa_r+0x48c>
 80095ba:	4b48      	ldr	r3, [pc, #288]	@ (80096dc <_dtoa_r+0x594>)
 80095bc:	2200      	movs	r2, #0
 80095be:	ec51 0b17 	vmov	r0, r1, d7
 80095c2:	f7f7 f839 	bl	8000638 <__aeabi_dmul>
 80095c6:	e9dd 2304 	ldrd	r2, r3, [sp, #16]
 80095ca:	f7f7 fabb 	bl	8000b44 <__aeabi_dcmpge>
 80095ce:	2800      	cmp	r0, #0
 80095d0:	f000 8266 	beq.w	8009aa0 <_dtoa_r+0x958>
 80095d4:	2400      	movs	r4, #0
 80095d6:	4625      	mov	r5, r4
 80095d8:	9b0c      	ldr	r3, [sp, #48]	@ 0x30
 80095da:	4656      	mov	r6, sl
 80095dc:	ea6f 0803 	mvn.w	r8, r3
 80095e0:	2700      	movs	r7, #0
 80095e2:	4621      	mov	r1, r4
 80095e4:	4648      	mov	r0, r9
 80095e6:	f000 fc09 	bl	8009dfc <_Bfree>
 80095ea:	2d00      	cmp	r5, #0
 80095ec:	f000 80bd 	beq.w	800976a <_dtoa_r+0x622>
 80095f0:	b12f      	cbz	r7, 80095fe <_dtoa_r+0x4b6>
 80095f2:	42af      	cmp	r7, r5
 80095f4:	d003      	beq.n	80095fe <_dtoa_r+0x4b6>
 80095f6:	4639      	mov	r1, r7
 80095f8:	4648      	mov	r0, r9
 80095fa:	f000 fbff 	bl	8009dfc <_Bfree>
 80095fe:	4629      	mov	r1, r5
 8009600:	4648      	mov	r0, r9
 8009602:	f000 fbfb 	bl	8009dfc <_Bfree>
 8009606:	e0b0      	b.n	800976a <_dtoa_r+0x622>
 8009608:	07e2      	lsls	r2, r4, #31
 800960a:	d505      	bpl.n	8009618 <_dtoa_r+0x4d0>
 800960c:	e9d5 2300 	ldrd	r2, r3, [r5]
 8009610:	f7f7 f812 	bl	8000638 <__aeabi_dmul>
 8009614:	3601      	adds	r6, #1
 8009616:	2301      	movs	r3, #1
 8009618:	1064      	asrs	r4, r4, #1
 800961a:	3508      	adds	r5, #8
 800961c:	e762      	b.n	80094e4 <_dtoa_r+0x39c>
 800961e:	2602      	movs	r6, #2
 8009620:	e765      	b.n	80094ee <_dtoa_r+0x3a6>
 8009622:	9c03      	ldr	r4, [sp, #12]
 8009624:	46b8      	mov	r8, r7
 8009626:	e784      	b.n	8009532 <_dtoa_r+0x3ea>
 8009628:	4b27      	ldr	r3, [pc, #156]	@ (80096c8 <_dtoa_r+0x580>)
 800962a:	9909      	ldr	r1, [sp, #36]	@ 0x24
 800962c:	eb03 03c4 	add.w	r3, r3, r4, lsl #3
 8009630:	e953 2302 	ldrd	r2, r3, [r3, #-8]
 8009634:	4454      	add	r4, sl
 8009636:	2900      	cmp	r1, #0
 8009638:	d054      	beq.n	80096e4 <_dtoa_r+0x59c>
 800963a:	4929      	ldr	r1, [pc, #164]	@ (80096e0 <_dtoa_r+0x598>)
 800963c:	2000      	movs	r0, #0
 800963e:	f7f7 f925 	bl	800088c <__aeabi_ddiv>
 8009642:	4633      	mov	r3, r6
 8009644:	462a      	mov	r2, r5
 8009646:	f7f6 fe3f 	bl	80002c8 <__aeabi_dsub>
 800964a:	e9cd 010e 	strd	r0, r1, [sp, #56]	@ 0x38
 800964e:	4656      	mov	r6, sl
 8009650:	e9dd 0104 	ldrd	r0, r1, [sp, #16]
 8009654:	f7f7 faa0 	bl	8000b98 <__aeabi_d2iz>
 8009658:	4605      	mov	r5, r0
 800965a:	f7f6 ff83 	bl	8000564 <__aeabi_i2d>
 800965e:	4602      	mov	r2, r0
 8009660:	460b      	mov	r3, r1
 8009662:	e9dd 0104 	ldrd	r0, r1, [sp, #16]
 8009666:	f7f6 fe2f 	bl	80002c8 <__aeabi_dsub>
 800966a:	3530      	adds	r5, #48	@ 0x30
 800966c:	4602      	mov	r2, r0
 800966e:	460b      	mov	r3, r1
 8009670:	e9cd 2304 	strd	r2, r3, [sp, #16]
 8009674:	f806 5b01 	strb.w	r5, [r6], #1
 8009678:	e9dd 230e 	ldrd	r2, r3, [sp, #56]	@ 0x38
 800967c:	f7f7 fa4e 	bl	8000b1c <__aeabi_dcmplt>
 8009680:	2800      	cmp	r0, #0
 8009682:	d172      	bne.n	800976a <_dtoa_r+0x622>
 8009684:	e9dd 2304 	ldrd	r2, r3, [sp, #16]
 8009688:	4911      	ldr	r1, [pc, #68]	@ (80096d0 <_dtoa_r+0x588>)
 800968a:	2000      	movs	r0, #0
 800968c:	f7f6 fe1c 	bl	80002c8 <__aeabi_dsub>
 8009690:	e9dd 230e 	ldrd	r2, r3, [sp, #56]	@ 0x38
 8009694:	f7f7 fa42 	bl	8000b1c <__aeabi_dcmplt>
 8009698:	2800      	cmp	r0, #0
 800969a:	f040 80b4 	bne.w	8009806 <_dtoa_r+0x6be>
 800969e:	42a6      	cmp	r6, r4
 80096a0:	f43f af70 	beq.w	8009584 <_dtoa_r+0x43c>
 80096a4:	e9dd 010e 	ldrd	r0, r1, [sp, #56]	@ 0x38
 80096a8:	4b0a      	ldr	r3, [pc, #40]	@ (80096d4 <_dtoa_r+0x58c>)
 80096aa:	2200      	movs	r2, #0
 80096ac:	f7f6 ffc4 	bl	8000638 <__aeabi_dmul>
 80096b0:	4b08      	ldr	r3, [pc, #32]	@ (80096d4 <_dtoa_r+0x58c>)
 80096b2:	e9cd 010e 	strd	r0, r1, [sp, #56]	@ 0x38
 80096b6:	2200      	movs	r2, #0
 80096b8:	e9dd 0104 	ldrd	r0, r1, [sp, #16]
 80096bc:	f7f6 ffbc 	bl	8000638 <__aeabi_dmul>
 80096c0:	e9cd 0104 	strd	r0, r1, [sp, #16]
 80096c4:	e7c4      	b.n	8009650 <_dtoa_r+0x508>
 80096c6:	bf00      	nop
 80096c8:	0800d820 	.word	0x0800d820
 80096cc:	0800d7f8 	.word	0x0800d7f8
 80096d0:	3ff00000 	.word	0x3ff00000
 80096d4:	40240000 	.word	0x40240000
 80096d8:	401c0000 	.word	0x401c0000
 80096dc:	40140000 	.word	0x40140000
 80096e0:	3fe00000 	.word	0x3fe00000
 80096e4:	4631      	mov	r1, r6
 80096e6:	4628      	mov	r0, r5
 80096e8:	f7f6 ffa6 	bl	8000638 <__aeabi_dmul>
 80096ec:	e9cd 010e 	strd	r0, r1, [sp, #56]	@ 0x38
 80096f0:	9413      	str	r4, [sp, #76]	@ 0x4c
 80096f2:	4656      	mov	r6, sl
 80096f4:	e9dd 0104 	ldrd	r0, r1, [sp, #16]
 80096f8:	f7f7 fa4e 	bl	8000b98 <__aeabi_d2iz>
 80096fc:	4605      	mov	r5, r0
 80096fe:	f7f6 ff31 	bl	8000564 <__aeabi_i2d>
 8009702:	4602      	mov	r2, r0
 8009704:	460b      	mov	r3, r1
 8009706:	e9dd 0104 	ldrd	r0, r1, [sp, #16]
 800970a:	f7f6 fddd 	bl	80002c8 <__aeabi_dsub>
 800970e:	3530      	adds	r5, #48	@ 0x30
 8009710:	f806 5b01 	strb.w	r5, [r6], #1
 8009714:	4602      	mov	r2, r0
 8009716:	460b      	mov	r3, r1
 8009718:	42a6      	cmp	r6, r4
 800971a:	e9cd 2304 	strd	r2, r3, [sp, #16]
 800971e:	f04f 0200 	mov.w	r2, #0
 8009722:	d124      	bne.n	800976e <_dtoa_r+0x626>
 8009724:	4baf      	ldr	r3, [pc, #700]	@ (80099e4 <_dtoa_r+0x89c>)
 8009726:	e9dd 010e 	ldrd	r0, r1, [sp, #56]	@ 0x38
 800972a:	f7f6 fdcf 	bl	80002cc <__adddf3>
 800972e:	4602      	mov	r2, r0
 8009730:	460b      	mov	r3, r1
 8009732:	e9dd 0104 	ldrd	r0, r1, [sp, #16]
 8009736:	f7f7 fa0f 	bl	8000b58 <__aeabi_dcmpgt>
 800973a:	2800      	cmp	r0, #0
 800973c:	d163      	bne.n	8009806 <_dtoa_r+0x6be>
 800973e:	e9dd 230e 	ldrd	r2, r3, [sp, #56]	@ 0x38
 8009742:	49a8      	ldr	r1, [pc, #672]	@ (80099e4 <_dtoa_r+0x89c>)
 8009744:	2000      	movs	r0, #0
 8009746:	f7f6 fdbf 	bl	80002c8 <__aeabi_dsub>
 800974a:	4602      	mov	r2, r0
 800974c:	460b      	mov	r3, r1
 800974e:	e9dd 0104 	ldrd	r0, r1, [sp, #16]
 8009752:	f7f7 f9e3 	bl	8000b1c <__aeabi_dcmplt>
 8009756:	2800      	cmp	r0, #0
 8009758:	f43f af14 	beq.w	8009584 <_dtoa_r+0x43c>
 800975c:	9e13      	ldr	r6, [sp, #76]	@ 0x4c
 800975e:	1e73      	subs	r3, r6, #1
 8009760:	9313      	str	r3, [sp, #76]	@ 0x4c
 8009762:	f816 3c01 	ldrb.w	r3, [r6, #-1]
 8009766:	2b30      	cmp	r3, #48	@ 0x30
 8009768:	d0f8      	beq.n	800975c <_dtoa_r+0x614>
 800976a:	4647      	mov	r7, r8
 800976c:	e03b      	b.n	80097e6 <_dtoa_r+0x69e>
 800976e:	4b9e      	ldr	r3, [pc, #632]	@ (80099e8 <_dtoa_r+0x8a0>)
 8009770:	f7f6 ff62 	bl	8000638 <__aeabi_dmul>
 8009774:	e9cd 0104 	strd	r0, r1, [sp, #16]
 8009778:	e7bc      	b.n	80096f4 <_dtoa_r+0x5ac>
 800977a:	e9dd 4504 	ldrd	r4, r5, [sp, #16]
 800977e:	4656      	mov	r6, sl
 8009780:	e9dd 2300 	ldrd	r2, r3, [sp]
 8009784:	4620      	mov	r0, r4
 8009786:	4629      	mov	r1, r5
 8009788:	f7f7 f880 	bl	800088c <__aeabi_ddiv>
 800978c:	f7f7 fa04 	bl	8000b98 <__aeabi_d2iz>
 8009790:	4680      	mov	r8, r0
 8009792:	f7f6 fee7 	bl	8000564 <__aeabi_i2d>
 8009796:	e9dd 2300 	ldrd	r2, r3, [sp]
 800979a:	f7f6 ff4d 	bl	8000638 <__aeabi_dmul>
 800979e:	4602      	mov	r2, r0
 80097a0:	460b      	mov	r3, r1
 80097a2:	4620      	mov	r0, r4
 80097a4:	4629      	mov	r1, r5
 80097a6:	f108 0430 	add.w	r4, r8, #48	@ 0x30
 80097aa:	f7f6 fd8d 	bl	80002c8 <__aeabi_dsub>
 80097ae:	f806 4b01 	strb.w	r4, [r6], #1
 80097b2:	9d03      	ldr	r5, [sp, #12]
 80097b4:	eba6 040a 	sub.w	r4, r6, sl
 80097b8:	42a5      	cmp	r5, r4
 80097ba:	4602      	mov	r2, r0
 80097bc:	460b      	mov	r3, r1
 80097be:	d133      	bne.n	8009828 <_dtoa_r+0x6e0>
 80097c0:	f7f6 fd84 	bl	80002cc <__adddf3>
 80097c4:	e9dd 2300 	ldrd	r2, r3, [sp]
 80097c8:	4604      	mov	r4, r0
 80097ca:	460d      	mov	r5, r1
 80097cc:	f7f7 f9c4 	bl	8000b58 <__aeabi_dcmpgt>
 80097d0:	b9c0      	cbnz	r0, 8009804 <_dtoa_r+0x6bc>
 80097d2:	e9dd 2300 	ldrd	r2, r3, [sp]
 80097d6:	4620      	mov	r0, r4
 80097d8:	4629      	mov	r1, r5
 80097da:	f7f7 f995 	bl	8000b08 <__aeabi_dcmpeq>
 80097de:	b110      	cbz	r0, 80097e6 <_dtoa_r+0x69e>
 80097e0:	f018 0f01 	tst.w	r8, #1
 80097e4:	d10e      	bne.n	8009804 <_dtoa_r+0x6bc>
 80097e6:	9902      	ldr	r1, [sp, #8]
 80097e8:	4648      	mov	r0, r9
 80097ea:	f000 fb07 	bl	8009dfc <_Bfree>
 80097ee:	2300      	movs	r3, #0
 80097f0:	7033      	strb	r3, [r6, #0]
 80097f2:	9b11      	ldr	r3, [sp, #68]	@ 0x44
 80097f4:	3701      	adds	r7, #1
 80097f6:	601f      	str	r7, [r3, #0]
 80097f8:	9b21      	ldr	r3, [sp, #132]	@ 0x84
 80097fa:	2b00      	cmp	r3, #0
 80097fc:	f000 824b 	beq.w	8009c96 <_dtoa_r+0xb4e>
 8009800:	601e      	str	r6, [r3, #0]
 8009802:	e248      	b.n	8009c96 <_dtoa_r+0xb4e>
 8009804:	46b8      	mov	r8, r7
 8009806:	4633      	mov	r3, r6
 8009808:	461e      	mov	r6, r3
 800980a:	f813 2d01 	ldrb.w	r2, [r3, #-1]!
 800980e:	2a39      	cmp	r2, #57	@ 0x39
 8009810:	d106      	bne.n	8009820 <_dtoa_r+0x6d8>
 8009812:	459a      	cmp	sl, r3
 8009814:	d1f8      	bne.n	8009808 <_dtoa_r+0x6c0>
 8009816:	2230      	movs	r2, #48	@ 0x30
 8009818:	f108 0801 	add.w	r8, r8, #1
 800981c:	f88a 2000 	strb.w	r2, [sl]
 8009820:	781a      	ldrb	r2, [r3, #0]
 8009822:	3201      	adds	r2, #1
 8009824:	701a      	strb	r2, [r3, #0]
 8009826:	e7a0      	b.n	800976a <_dtoa_r+0x622>
 8009828:	4b6f      	ldr	r3, [pc, #444]	@ (80099e8 <_dtoa_r+0x8a0>)
 800982a:	2200      	movs	r2, #0
 800982c:	f7f6 ff04 	bl	8000638 <__aeabi_dmul>
 8009830:	2200      	movs	r2, #0
 8009832:	2300      	movs	r3, #0
 8009834:	4604      	mov	r4, r0
 8009836:	460d      	mov	r5, r1
 8009838:	f7f7 f966 	bl	8000b08 <__aeabi_dcmpeq>
 800983c:	2800      	cmp	r0, #0
 800983e:	d09f      	beq.n	8009780 <_dtoa_r+0x638>
 8009840:	e7d1      	b.n	80097e6 <_dtoa_r+0x69e>
 8009842:	9a09      	ldr	r2, [sp, #36]	@ 0x24
 8009844:	2a00      	cmp	r2, #0
 8009846:	f000 80ea 	beq.w	8009a1e <_dtoa_r+0x8d6>
 800984a:	9a07      	ldr	r2, [sp, #28]
 800984c:	2a01      	cmp	r2, #1
 800984e:	f300 80cd 	bgt.w	80099ec <_dtoa_r+0x8a4>
 8009852:	9a12      	ldr	r2, [sp, #72]	@ 0x48
 8009854:	2a00      	cmp	r2, #0
 8009856:	f000 80c1 	beq.w	80099dc <_dtoa_r+0x894>
 800985a:	f203 4333 	addw	r3, r3, #1075	@ 0x433
 800985e:	9c08      	ldr	r4, [sp, #32]
 8009860:	9e00      	ldr	r6, [sp, #0]
 8009862:	9a00      	ldr	r2, [sp, #0]
 8009864:	441a      	add	r2, r3
 8009866:	9200      	str	r2, [sp, #0]
 8009868:	9a06      	ldr	r2, [sp, #24]
 800986a:	2101      	movs	r1, #1
 800986c:	441a      	add	r2, r3
 800986e:	4648      	mov	r0, r9
 8009870:	9206      	str	r2, [sp, #24]
 8009872:	f000 fb77 	bl	8009f64 <__i2b>
 8009876:	4605      	mov	r5, r0
 8009878:	b166      	cbz	r6, 8009894 <_dtoa_r+0x74c>
 800987a:	9b06      	ldr	r3, [sp, #24]
 800987c:	2b00      	cmp	r3, #0
 800987e:	dd09      	ble.n	8009894 <_dtoa_r+0x74c>
 8009880:	42b3      	cmp	r3, r6
 8009882:	9a00      	ldr	r2, [sp, #0]
 8009884:	bfa8      	it	ge
 8009886:	4633      	movge	r3, r6
 8009888:	1ad2      	subs	r2, r2, r3
 800988a:	9200      	str	r2, [sp, #0]
 800988c:	9a06      	ldr	r2, [sp, #24]
 800988e:	1af6      	subs	r6, r6, r3
 8009890:	1ad3      	subs	r3, r2, r3
 8009892:	9306      	str	r3, [sp, #24]
 8009894:	9b08      	ldr	r3, [sp, #32]
 8009896:	b30b      	cbz	r3, 80098dc <_dtoa_r+0x794>
 8009898:	9b09      	ldr	r3, [sp, #36]	@ 0x24
 800989a:	2b00      	cmp	r3, #0
 800989c:	f000 80c6 	beq.w	8009a2c <_dtoa_r+0x8e4>
 80098a0:	2c00      	cmp	r4, #0
 80098a2:	f000 80c0 	beq.w	8009a26 <_dtoa_r+0x8de>
 80098a6:	4629      	mov	r1, r5
 80098a8:	4622      	mov	r2, r4
 80098aa:	4648      	mov	r0, r9
 80098ac:	f000 fc12 	bl	800a0d4 <__pow5mult>
 80098b0:	9a02      	ldr	r2, [sp, #8]
 80098b2:	4601      	mov	r1, r0
 80098b4:	4605      	mov	r5, r0
 80098b6:	4648      	mov	r0, r9
 80098b8:	f000 fb6a 	bl	8009f90 <__multiply>
 80098bc:	9902      	ldr	r1, [sp, #8]
 80098be:	4680      	mov	r8, r0
 80098c0:	4648      	mov	r0, r9
 80098c2:	f000 fa9b 	bl	8009dfc <_Bfree>
 80098c6:	9b08      	ldr	r3, [sp, #32]
 80098c8:	1b1b      	subs	r3, r3, r4
 80098ca:	9308      	str	r3, [sp, #32]
 80098cc:	f000 80b1 	beq.w	8009a32 <_dtoa_r+0x8ea>
 80098d0:	9a08      	ldr	r2, [sp, #32]
 80098d2:	4641      	mov	r1, r8
 80098d4:	4648      	mov	r0, r9
 80098d6:	f000 fbfd 	bl	800a0d4 <__pow5mult>
 80098da:	9002      	str	r0, [sp, #8]
 80098dc:	2101      	movs	r1, #1
 80098de:	4648      	mov	r0, r9
 80098e0:	f000 fb40 	bl	8009f64 <__i2b>
 80098e4:	9b0d      	ldr	r3, [sp, #52]	@ 0x34
 80098e6:	4604      	mov	r4, r0
 80098e8:	2b00      	cmp	r3, #0
 80098ea:	f000 81d8 	beq.w	8009c9e <_dtoa_r+0xb56>
 80098ee:	461a      	mov	r2, r3
 80098f0:	4601      	mov	r1, r0
 80098f2:	4648      	mov	r0, r9
 80098f4:	f000 fbee 	bl	800a0d4 <__pow5mult>
 80098f8:	9b07      	ldr	r3, [sp, #28]
 80098fa:	2b01      	cmp	r3, #1
 80098fc:	4604      	mov	r4, r0
 80098fe:	f300 809f 	bgt.w	8009a40 <_dtoa_r+0x8f8>
 8009902:	9b04      	ldr	r3, [sp, #16]
 8009904:	2b00      	cmp	r3, #0
 8009906:	f040 8097 	bne.w	8009a38 <_dtoa_r+0x8f0>
 800990a:	9b05      	ldr	r3, [sp, #20]
 800990c:	f3c3 0313 	ubfx	r3, r3, #0, #20
 8009910:	2b00      	cmp	r3, #0
 8009912:	f040 8093 	bne.w	8009a3c <_dtoa_r+0x8f4>
 8009916:	9b05      	ldr	r3, [sp, #20]
 8009918:	f023 4300 	bic.w	r3, r3, #2147483648	@ 0x80000000
 800991c:	0d1b      	lsrs	r3, r3, #20
 800991e:	051b      	lsls	r3, r3, #20
 8009920:	b133      	cbz	r3, 8009930 <_dtoa_r+0x7e8>
 8009922:	9b00      	ldr	r3, [sp, #0]
 8009924:	3301      	adds	r3, #1
 8009926:	9300      	str	r3, [sp, #0]
 8009928:	9b06      	ldr	r3, [sp, #24]
 800992a:	3301      	adds	r3, #1
 800992c:	9306      	str	r3, [sp, #24]
 800992e:	2301      	movs	r3, #1
 8009930:	9308      	str	r3, [sp, #32]
 8009932:	9b0d      	ldr	r3, [sp, #52]	@ 0x34
 8009934:	2b00      	cmp	r3, #0
 8009936:	f000 81b8 	beq.w	8009caa <_dtoa_r+0xb62>
 800993a:	6923      	ldr	r3, [r4, #16]
 800993c:	eb04 0383 	add.w	r3, r4, r3, lsl #2
 8009940:	6918      	ldr	r0, [r3, #16]
 8009942:	f000 fac3 	bl	8009ecc <__hi0bits>
 8009946:	f1c0 0020 	rsb	r0, r0, #32
 800994a:	9b06      	ldr	r3, [sp, #24]
 800994c:	4418      	add	r0, r3
 800994e:	f010 001f 	ands.w	r0, r0, #31
 8009952:	f000 8082 	beq.w	8009a5a <_dtoa_r+0x912>
 8009956:	f1c0 0320 	rsb	r3, r0, #32
 800995a:	2b04      	cmp	r3, #4
 800995c:	dd73      	ble.n	8009a46 <_dtoa_r+0x8fe>
 800995e:	9b00      	ldr	r3, [sp, #0]
 8009960:	f1c0 001c 	rsb	r0, r0, #28
 8009964:	4403      	add	r3, r0
 8009966:	9300      	str	r3, [sp, #0]
 8009968:	9b06      	ldr	r3, [sp, #24]
 800996a:	4403      	add	r3, r0
 800996c:	4406      	add	r6, r0
 800996e:	9306      	str	r3, [sp, #24]
 8009970:	9b00      	ldr	r3, [sp, #0]
 8009972:	2b00      	cmp	r3, #0
 8009974:	dd05      	ble.n	8009982 <_dtoa_r+0x83a>
 8009976:	9902      	ldr	r1, [sp, #8]
 8009978:	461a      	mov	r2, r3
 800997a:	4648      	mov	r0, r9
 800997c:	f000 fc04 	bl	800a188 <__lshift>
 8009980:	9002      	str	r0, [sp, #8]
 8009982:	9b06      	ldr	r3, [sp, #24]
 8009984:	2b00      	cmp	r3, #0
 8009986:	dd05      	ble.n	8009994 <_dtoa_r+0x84c>
 8009988:	4621      	mov	r1, r4
 800998a:	461a      	mov	r2, r3
 800998c:	4648      	mov	r0, r9
 800998e:	f000 fbfb 	bl	800a188 <__lshift>
 8009992:	4604      	mov	r4, r0
 8009994:	9b10      	ldr	r3, [sp, #64]	@ 0x40
 8009996:	2b00      	cmp	r3, #0
 8009998:	d061      	beq.n	8009a5e <_dtoa_r+0x916>
 800999a:	9802      	ldr	r0, [sp, #8]
 800999c:	4621      	mov	r1, r4
 800999e:	f000 fc5f 	bl	800a260 <__mcmp>
 80099a2:	2800      	cmp	r0, #0
 80099a4:	da5b      	bge.n	8009a5e <_dtoa_r+0x916>
 80099a6:	2300      	movs	r3, #0
 80099a8:	9902      	ldr	r1, [sp, #8]
 80099aa:	220a      	movs	r2, #10
 80099ac:	4648      	mov	r0, r9
 80099ae:	f000 fa47 	bl	8009e40 <__multadd>
 80099b2:	9b09      	ldr	r3, [sp, #36]	@ 0x24
 80099b4:	9002      	str	r0, [sp, #8]
 80099b6:	f107 38ff 	add.w	r8, r7, #4294967295
 80099ba:	2b00      	cmp	r3, #0
 80099bc:	f000 8177 	beq.w	8009cae <_dtoa_r+0xb66>
 80099c0:	4629      	mov	r1, r5
 80099c2:	2300      	movs	r3, #0
 80099c4:	220a      	movs	r2, #10
 80099c6:	4648      	mov	r0, r9
 80099c8:	f000 fa3a 	bl	8009e40 <__multadd>
 80099cc:	f1bb 0f00 	cmp.w	fp, #0
 80099d0:	4605      	mov	r5, r0
 80099d2:	dc6f      	bgt.n	8009ab4 <_dtoa_r+0x96c>
 80099d4:	9b07      	ldr	r3, [sp, #28]
 80099d6:	2b02      	cmp	r3, #2
 80099d8:	dc49      	bgt.n	8009a6e <_dtoa_r+0x926>
 80099da:	e06b      	b.n	8009ab4 <_dtoa_r+0x96c>
 80099dc:	9b14      	ldr	r3, [sp, #80]	@ 0x50
 80099de:	f1c3 0336 	rsb	r3, r3, #54	@ 0x36
 80099e2:	e73c      	b.n	800985e <_dtoa_r+0x716>
 80099e4:	3fe00000 	.word	0x3fe00000
 80099e8:	40240000 	.word	0x40240000
 80099ec:	9b03      	ldr	r3, [sp, #12]
 80099ee:	1e5c      	subs	r4, r3, #1
 80099f0:	9b08      	ldr	r3, [sp, #32]
 80099f2:	42a3      	cmp	r3, r4
 80099f4:	db09      	blt.n	8009a0a <_dtoa_r+0x8c2>
 80099f6:	1b1c      	subs	r4, r3, r4
 80099f8:	9b03      	ldr	r3, [sp, #12]
 80099fa:	2b00      	cmp	r3, #0
 80099fc:	f6bf af30 	bge.w	8009860 <_dtoa_r+0x718>
 8009a00:	9b00      	ldr	r3, [sp, #0]
 8009a02:	9a03      	ldr	r2, [sp, #12]
 8009a04:	1a9e      	subs	r6, r3, r2
 8009a06:	2300      	movs	r3, #0
 8009a08:	e72b      	b.n	8009862 <_dtoa_r+0x71a>
 8009a0a:	9b08      	ldr	r3, [sp, #32]
 8009a0c:	9a0d      	ldr	r2, [sp, #52]	@ 0x34
 8009a0e:	9408      	str	r4, [sp, #32]
 8009a10:	1ae3      	subs	r3, r4, r3
 8009a12:	441a      	add	r2, r3
 8009a14:	9e00      	ldr	r6, [sp, #0]
 8009a16:	9b03      	ldr	r3, [sp, #12]
 8009a18:	920d      	str	r2, [sp, #52]	@ 0x34
 8009a1a:	2400      	movs	r4, #0
 8009a1c:	e721      	b.n	8009862 <_dtoa_r+0x71a>
 8009a1e:	9c08      	ldr	r4, [sp, #32]
 8009a20:	9e00      	ldr	r6, [sp, #0]
 8009a22:	9d09      	ldr	r5, [sp, #36]	@ 0x24
 8009a24:	e728      	b.n	8009878 <_dtoa_r+0x730>
 8009a26:	f8dd 8008 	ldr.w	r8, [sp, #8]
 8009a2a:	e751      	b.n	80098d0 <_dtoa_r+0x788>
 8009a2c:	9a08      	ldr	r2, [sp, #32]
 8009a2e:	9902      	ldr	r1, [sp, #8]
 8009a30:	e750      	b.n	80098d4 <_dtoa_r+0x78c>
 8009a32:	f8cd 8008 	str.w	r8, [sp, #8]
 8009a36:	e751      	b.n	80098dc <_dtoa_r+0x794>
 8009a38:	2300      	movs	r3, #0
 8009a3a:	e779      	b.n	8009930 <_dtoa_r+0x7e8>
 8009a3c:	9b04      	ldr	r3, [sp, #16]
 8009a3e:	e777      	b.n	8009930 <_dtoa_r+0x7e8>
 8009a40:	2300      	movs	r3, #0
 8009a42:	9308      	str	r3, [sp, #32]
 8009a44:	e779      	b.n	800993a <_dtoa_r+0x7f2>
 8009a46:	d093      	beq.n	8009970 <_dtoa_r+0x828>
 8009a48:	9a00      	ldr	r2, [sp, #0]
 8009a4a:	331c      	adds	r3, #28
 8009a4c:	441a      	add	r2, r3
 8009a4e:	9200      	str	r2, [sp, #0]
 8009a50:	9a06      	ldr	r2, [sp, #24]
 8009a52:	441a      	add	r2, r3
 8009a54:	441e      	add	r6, r3
 8009a56:	9206      	str	r2, [sp, #24]
 8009a58:	e78a      	b.n	8009970 <_dtoa_r+0x828>
 8009a5a:	4603      	mov	r3, r0
 8009a5c:	e7f4      	b.n	8009a48 <_dtoa_r+0x900>
 8009a5e:	9b03      	ldr	r3, [sp, #12]
 8009a60:	2b00      	cmp	r3, #0
 8009a62:	46b8      	mov	r8, r7
 8009a64:	dc20      	bgt.n	8009aa8 <_dtoa_r+0x960>
 8009a66:	469b      	mov	fp, r3
 8009a68:	9b07      	ldr	r3, [sp, #28]
 8009a6a:	2b02      	cmp	r3, #2
 8009a6c:	dd1e      	ble.n	8009aac <_dtoa_r+0x964>
 8009a6e:	f1bb 0f00 	cmp.w	fp, #0
 8009a72:	f47f adb1 	bne.w	80095d8 <_dtoa_r+0x490>
 8009a76:	4621      	mov	r1, r4
 8009a78:	465b      	mov	r3, fp
 8009a7a:	2205      	movs	r2, #5
 8009a7c:	4648      	mov	r0, r9
 8009a7e:	f000 f9df 	bl	8009e40 <__multadd>
 8009a82:	4601      	mov	r1, r0
 8009a84:	4604      	mov	r4, r0
 8009a86:	9802      	ldr	r0, [sp, #8]
 8009a88:	f000 fbea 	bl	800a260 <__mcmp>
 8009a8c:	2800      	cmp	r0, #0
 8009a8e:	f77f ada3 	ble.w	80095d8 <_dtoa_r+0x490>
 8009a92:	4656      	mov	r6, sl
 8009a94:	2331      	movs	r3, #49	@ 0x31
 8009a96:	f806 3b01 	strb.w	r3, [r6], #1
 8009a9a:	f108 0801 	add.w	r8, r8, #1
 8009a9e:	e59f      	b.n	80095e0 <_dtoa_r+0x498>
 8009aa0:	9c03      	ldr	r4, [sp, #12]
 8009aa2:	46b8      	mov	r8, r7
 8009aa4:	4625      	mov	r5, r4
 8009aa6:	e7f4      	b.n	8009a92 <_dtoa_r+0x94a>
 8009aa8:	f8dd b00c 	ldr.w	fp, [sp, #12]
 8009aac:	9b09      	ldr	r3, [sp, #36]	@ 0x24
 8009aae:	2b00      	cmp	r3, #0
 8009ab0:	f000 8101 	beq.w	8009cb6 <_dtoa_r+0xb6e>
 8009ab4:	2e00      	cmp	r6, #0
 8009ab6:	dd05      	ble.n	8009ac4 <_dtoa_r+0x97c>
 8009ab8:	4629      	mov	r1, r5
 8009aba:	4632      	mov	r2, r6
 8009abc:	4648      	mov	r0, r9
 8009abe:	f000 fb63 	bl	800a188 <__lshift>
 8009ac2:	4605      	mov	r5, r0
 8009ac4:	9b08      	ldr	r3, [sp, #32]
 8009ac6:	2b00      	cmp	r3, #0
 8009ac8:	d05c      	beq.n	8009b84 <_dtoa_r+0xa3c>
 8009aca:	6869      	ldr	r1, [r5, #4]
 8009acc:	4648      	mov	r0, r9
 8009ace:	f000 f955 	bl	8009d7c <_Balloc>
 8009ad2:	4606      	mov	r6, r0
 8009ad4:	b928      	cbnz	r0, 8009ae2 <_dtoa_r+0x99a>
 8009ad6:	4b82      	ldr	r3, [pc, #520]	@ (8009ce0 <_dtoa_r+0xb98>)
 8009ad8:	4602      	mov	r2, r0
 8009ada:	f240 21ef 	movw	r1, #751	@ 0x2ef
 8009ade:	f7ff bb4a 	b.w	8009176 <_dtoa_r+0x2e>
 8009ae2:	692a      	ldr	r2, [r5, #16]
 8009ae4:	3202      	adds	r2, #2
 8009ae6:	0092      	lsls	r2, r2, #2
 8009ae8:	f105 010c 	add.w	r1, r5, #12
 8009aec:	300c      	adds	r0, #12
 8009aee:	f7ff fa92 	bl	8009016 <memcpy>
 8009af2:	2201      	movs	r2, #1
 8009af4:	4631      	mov	r1, r6
 8009af6:	4648      	mov	r0, r9
 8009af8:	f000 fb46 	bl	800a188 <__lshift>
 8009afc:	f10a 0301 	add.w	r3, sl, #1
 8009b00:	9300      	str	r3, [sp, #0]
 8009b02:	eb0a 030b 	add.w	r3, sl, fp
 8009b06:	9308      	str	r3, [sp, #32]
 8009b08:	9b04      	ldr	r3, [sp, #16]
 8009b0a:	f003 0301 	and.w	r3, r3, #1
 8009b0e:	462f      	mov	r7, r5
 8009b10:	9306      	str	r3, [sp, #24]
 8009b12:	4605      	mov	r5, r0
 8009b14:	9b00      	ldr	r3, [sp, #0]
 8009b16:	9802      	ldr	r0, [sp, #8]
 8009b18:	4621      	mov	r1, r4
 8009b1a:	f103 3bff 	add.w	fp, r3, #4294967295
 8009b1e:	f7ff fa88 	bl	8009032 <quorem>
 8009b22:	4603      	mov	r3, r0
 8009b24:	3330      	adds	r3, #48	@ 0x30
 8009b26:	9003      	str	r0, [sp, #12]
 8009b28:	4639      	mov	r1, r7
 8009b2a:	9802      	ldr	r0, [sp, #8]
 8009b2c:	9309      	str	r3, [sp, #36]	@ 0x24
 8009b2e:	f000 fb97 	bl	800a260 <__mcmp>
 8009b32:	462a      	mov	r2, r5
 8009b34:	9004      	str	r0, [sp, #16]
 8009b36:	4621      	mov	r1, r4
 8009b38:	4648      	mov	r0, r9
 8009b3a:	f000 fbad 	bl	800a298 <__mdiff>
 8009b3e:	68c2      	ldr	r2, [r0, #12]
 8009b40:	9b09      	ldr	r3, [sp, #36]	@ 0x24
 8009b42:	4606      	mov	r6, r0
 8009b44:	bb02      	cbnz	r2, 8009b88 <_dtoa_r+0xa40>
 8009b46:	4601      	mov	r1, r0
 8009b48:	9802      	ldr	r0, [sp, #8]
 8009b4a:	f000 fb89 	bl	800a260 <__mcmp>
 8009b4e:	9b09      	ldr	r3, [sp, #36]	@ 0x24
 8009b50:	4602      	mov	r2, r0
 8009b52:	4631      	mov	r1, r6
 8009b54:	4648      	mov	r0, r9
 8009b56:	920c      	str	r2, [sp, #48]	@ 0x30
 8009b58:	9309      	str	r3, [sp, #36]	@ 0x24
 8009b5a:	f000 f94f 	bl	8009dfc <_Bfree>
 8009b5e:	9b07      	ldr	r3, [sp, #28]
 8009b60:	9a0c      	ldr	r2, [sp, #48]	@ 0x30
 8009b62:	9e00      	ldr	r6, [sp, #0]
 8009b64:	ea42 0103 	orr.w	r1, r2, r3
 8009b68:	9b06      	ldr	r3, [sp, #24]
 8009b6a:	4319      	orrs	r1, r3
 8009b6c:	9b09      	ldr	r3, [sp, #36]	@ 0x24
 8009b6e:	d10d      	bne.n	8009b8c <_dtoa_r+0xa44>
 8009b70:	2b39      	cmp	r3, #57	@ 0x39
 8009b72:	d027      	beq.n	8009bc4 <_dtoa_r+0xa7c>
 8009b74:	9a04      	ldr	r2, [sp, #16]
 8009b76:	2a00      	cmp	r2, #0
 8009b78:	dd01      	ble.n	8009b7e <_dtoa_r+0xa36>
 8009b7a:	9b03      	ldr	r3, [sp, #12]
 8009b7c:	3331      	adds	r3, #49	@ 0x31
 8009b7e:	f88b 3000 	strb.w	r3, [fp]
 8009b82:	e52e      	b.n	80095e2 <_dtoa_r+0x49a>
 8009b84:	4628      	mov	r0, r5
 8009b86:	e7b9      	b.n	8009afc <_dtoa_r+0x9b4>
 8009b88:	2201      	movs	r2, #1
 8009b8a:	e7e2      	b.n	8009b52 <_dtoa_r+0xa0a>
 8009b8c:	9904      	ldr	r1, [sp, #16]
 8009b8e:	2900      	cmp	r1, #0
 8009b90:	db04      	blt.n	8009b9c <_dtoa_r+0xa54>
 8009b92:	9807      	ldr	r0, [sp, #28]
 8009b94:	4301      	orrs	r1, r0
 8009b96:	9806      	ldr	r0, [sp, #24]
 8009b98:	4301      	orrs	r1, r0
 8009b9a:	d120      	bne.n	8009bde <_dtoa_r+0xa96>
 8009b9c:	2a00      	cmp	r2, #0
 8009b9e:	ddee      	ble.n	8009b7e <_dtoa_r+0xa36>
 8009ba0:	9902      	ldr	r1, [sp, #8]
 8009ba2:	9300      	str	r3, [sp, #0]
 8009ba4:	2201      	movs	r2, #1
 8009ba6:	4648      	mov	r0, r9
 8009ba8:	f000 faee 	bl	800a188 <__lshift>
 8009bac:	4621      	mov	r1, r4
 8009bae:	9002      	str	r0, [sp, #8]
 8009bb0:	f000 fb56 	bl	800a260 <__mcmp>
 8009bb4:	2800      	cmp	r0, #0
 8009bb6:	9b00      	ldr	r3, [sp, #0]
 8009bb8:	dc02      	bgt.n	8009bc0 <_dtoa_r+0xa78>
 8009bba:	d1e0      	bne.n	8009b7e <_dtoa_r+0xa36>
 8009bbc:	07da      	lsls	r2, r3, #31
 8009bbe:	d5de      	bpl.n	8009b7e <_dtoa_r+0xa36>
 8009bc0:	2b39      	cmp	r3, #57	@ 0x39
 8009bc2:	d1da      	bne.n	8009b7a <_dtoa_r+0xa32>
 8009bc4:	2339      	movs	r3, #57	@ 0x39
 8009bc6:	f88b 3000 	strb.w	r3, [fp]
 8009bca:	4633      	mov	r3, r6
 8009bcc:	461e      	mov	r6, r3
 8009bce:	3b01      	subs	r3, #1
 8009bd0:	f816 2c01 	ldrb.w	r2, [r6, #-1]
 8009bd4:	2a39      	cmp	r2, #57	@ 0x39
 8009bd6:	d04e      	beq.n	8009c76 <_dtoa_r+0xb2e>
 8009bd8:	3201      	adds	r2, #1
 8009bda:	701a      	strb	r2, [r3, #0]
 8009bdc:	e501      	b.n	80095e2 <_dtoa_r+0x49a>
 8009bde:	2a00      	cmp	r2, #0
 8009be0:	dd03      	ble.n	8009bea <_dtoa_r+0xaa2>
 8009be2:	2b39      	cmp	r3, #57	@ 0x39
 8009be4:	d0ee      	beq.n	8009bc4 <_dtoa_r+0xa7c>
 8009be6:	3301      	adds	r3, #1
 8009be8:	e7c9      	b.n	8009b7e <_dtoa_r+0xa36>
 8009bea:	9a00      	ldr	r2, [sp, #0]
 8009bec:	9908      	ldr	r1, [sp, #32]
 8009bee:	f802 3c01 	strb.w	r3, [r2, #-1]
 8009bf2:	428a      	cmp	r2, r1
 8009bf4:	d028      	beq.n	8009c48 <_dtoa_r+0xb00>
 8009bf6:	9902      	ldr	r1, [sp, #8]
 8009bf8:	2300      	movs	r3, #0
 8009bfa:	220a      	movs	r2, #10
 8009bfc:	4648      	mov	r0, r9
 8009bfe:	f000 f91f 	bl	8009e40 <__multadd>
 8009c02:	42af      	cmp	r7, r5
 8009c04:	9002      	str	r0, [sp, #8]
 8009c06:	f04f 0300 	mov.w	r3, #0
 8009c0a:	f04f 020a 	mov.w	r2, #10
 8009c0e:	4639      	mov	r1, r7
 8009c10:	4648      	mov	r0, r9
 8009c12:	d107      	bne.n	8009c24 <_dtoa_r+0xadc>
 8009c14:	f000 f914 	bl	8009e40 <__multadd>
 8009c18:	4607      	mov	r7, r0
 8009c1a:	4605      	mov	r5, r0
 8009c1c:	9b00      	ldr	r3, [sp, #0]
 8009c1e:	3301      	adds	r3, #1
 8009c20:	9300      	str	r3, [sp, #0]
 8009c22:	e777      	b.n	8009b14 <_dtoa_r+0x9cc>
 8009c24:	f000 f90c 	bl	8009e40 <__multadd>
 8009c28:	4629      	mov	r1, r5
 8009c2a:	4607      	mov	r7, r0
 8009c2c:	2300      	movs	r3, #0
 8009c2e:	220a      	movs	r2, #10
 8009c30:	4648      	mov	r0, r9
 8009c32:	f000 f905 	bl	8009e40 <__multadd>
 8009c36:	4605      	mov	r5, r0
 8009c38:	e7f0      	b.n	8009c1c <_dtoa_r+0xad4>
 8009c3a:	f1bb 0f00 	cmp.w	fp, #0
 8009c3e:	bfcc      	ite	gt
 8009c40:	465e      	movgt	r6, fp
 8009c42:	2601      	movle	r6, #1
 8009c44:	4456      	add	r6, sl
 8009c46:	2700      	movs	r7, #0
 8009c48:	9902      	ldr	r1, [sp, #8]
 8009c4a:	9300      	str	r3, [sp, #0]
 8009c4c:	2201      	movs	r2, #1
 8009c4e:	4648      	mov	r0, r9
 8009c50:	f000 fa9a 	bl	800a188 <__lshift>
 8009c54:	4621      	mov	r1, r4
 8009c56:	9002      	str	r0, [sp, #8]
 8009c58:	f000 fb02 	bl	800a260 <__mcmp>
 8009c5c:	2800      	cmp	r0, #0
 8009c5e:	dcb4      	bgt.n	8009bca <_dtoa_r+0xa82>
 8009c60:	d102      	bne.n	8009c68 <_dtoa_r+0xb20>
 8009c62:	9b00      	ldr	r3, [sp, #0]
 8009c64:	07db      	lsls	r3, r3, #31
 8009c66:	d4b0      	bmi.n	8009bca <_dtoa_r+0xa82>
 8009c68:	4633      	mov	r3, r6
 8009c6a:	461e      	mov	r6, r3
 8009c6c:	f813 2d01 	ldrb.w	r2, [r3, #-1]!
 8009c70:	2a30      	cmp	r2, #48	@ 0x30
 8009c72:	d0fa      	beq.n	8009c6a <_dtoa_r+0xb22>
 8009c74:	e4b5      	b.n	80095e2 <_dtoa_r+0x49a>
 8009c76:	459a      	cmp	sl, r3
 8009c78:	d1a8      	bne.n	8009bcc <_dtoa_r+0xa84>
 8009c7a:	2331      	movs	r3, #49	@ 0x31
 8009c7c:	f108 0801 	add.w	r8, r8, #1
 8009c80:	f88a 3000 	strb.w	r3, [sl]
 8009c84:	e4ad      	b.n	80095e2 <_dtoa_r+0x49a>
 8009c86:	9b21      	ldr	r3, [sp, #132]	@ 0x84
 8009c88:	f8df a058 	ldr.w	sl, [pc, #88]	@ 8009ce4 <_dtoa_r+0xb9c>
 8009c8c:	b11b      	cbz	r3, 8009c96 <_dtoa_r+0xb4e>
 8009c8e:	f10a 0308 	add.w	r3, sl, #8
 8009c92:	9a21      	ldr	r2, [sp, #132]	@ 0x84
 8009c94:	6013      	str	r3, [r2, #0]
 8009c96:	4650      	mov	r0, sl
 8009c98:	b017      	add	sp, #92	@ 0x5c
 8009c9a:	e8bd 8ff0 	ldmia.w	sp!, {r4, r5, r6, r7, r8, r9, sl, fp, pc}
 8009c9e:	9b07      	ldr	r3, [sp, #28]
 8009ca0:	2b01      	cmp	r3, #1
 8009ca2:	f77f ae2e 	ble.w	8009902 <_dtoa_r+0x7ba>
 8009ca6:	9b0d      	ldr	r3, [sp, #52]	@ 0x34
 8009ca8:	9308      	str	r3, [sp, #32]
 8009caa:	2001      	movs	r0, #1
 8009cac:	e64d      	b.n	800994a <_dtoa_r+0x802>
 8009cae:	f1bb 0f00 	cmp.w	fp, #0
 8009cb2:	f77f aed9 	ble.w	8009a68 <_dtoa_r+0x920>
 8009cb6:	4656      	mov	r6, sl
 8009cb8:	9802      	ldr	r0, [sp, #8]
 8009cba:	4621      	mov	r1, r4
 8009cbc:	f7ff f9b9 	bl	8009032 <quorem>
 8009cc0:	f100 0330 	add.w	r3, r0, #48	@ 0x30
 8009cc4:	f806 3b01 	strb.w	r3, [r6], #1
 8009cc8:	eba6 020a 	sub.w	r2, r6, sl
 8009ccc:	4593      	cmp	fp, r2
 8009cce:	ddb4      	ble.n	8009c3a <_dtoa_r+0xaf2>
 8009cd0:	9902      	ldr	r1, [sp, #8]
 8009cd2:	2300      	movs	r3, #0
 8009cd4:	220a      	movs	r2, #10
 8009cd6:	4648      	mov	r0, r9
 8009cd8:	f000 f8b2 	bl	8009e40 <__multadd>
 8009cdc:	9002      	str	r0, [sp, #8]
 8009cde:	e7eb      	b.n	8009cb8 <_dtoa_r+0xb70>
 8009ce0:	0800d728 	.word	0x0800d728
 8009ce4:	0800d6ac 	.word	0x0800d6ac

08009ce8 <_free_r>:
 8009ce8:	b538      	push	{r3, r4, r5, lr}
 8009cea:	4605      	mov	r5, r0
 8009cec:	2900      	cmp	r1, #0
 8009cee:	d041      	beq.n	8009d74 <_free_r+0x8c>
 8009cf0:	f851 3c04 	ldr.w	r3, [r1, #-4]
 8009cf4:	1f0c      	subs	r4, r1, #4
 8009cf6:	2b00      	cmp	r3, #0
 8009cf8:	bfb8      	it	lt
 8009cfa:	18e4      	addlt	r4, r4, r3
 8009cfc:	f7fe fb3e 	bl	800837c <__malloc_lock>
 8009d00:	4a1d      	ldr	r2, [pc, #116]	@ (8009d78 <_free_r+0x90>)
 8009d02:	6813      	ldr	r3, [r2, #0]
 8009d04:	b933      	cbnz	r3, 8009d14 <_free_r+0x2c>
 8009d06:	6063      	str	r3, [r4, #4]
 8009d08:	6014      	str	r4, [r2, #0]
 8009d0a:	4628      	mov	r0, r5
 8009d0c:	e8bd 4038 	ldmia.w	sp!, {r3, r4, r5, lr}
 8009d10:	f7fe bb3a 	b.w	8008388 <__malloc_unlock>
 8009d14:	42a3      	cmp	r3, r4
 8009d16:	d908      	bls.n	8009d2a <_free_r+0x42>
 8009d18:	6820      	ldr	r0, [r4, #0]
 8009d1a:	1821      	adds	r1, r4, r0
 8009d1c:	428b      	cmp	r3, r1
 8009d1e:	bf01      	itttt	eq
 8009d20:	6819      	ldreq	r1, [r3, #0]
 8009d22:	685b      	ldreq	r3, [r3, #4]
 8009d24:	1809      	addeq	r1, r1, r0
 8009d26:	6021      	streq	r1, [r4, #0]
 8009d28:	e7ed      	b.n	8009d06 <_free_r+0x1e>
 8009d2a:	461a      	mov	r2, r3
 8009d2c:	685b      	ldr	r3, [r3, #4]
 8009d2e:	b10b      	cbz	r3, 8009d34 <_free_r+0x4c>
 8009d30:	42a3      	cmp	r3, r4
 8009d32:	d9fa      	bls.n	8009d2a <_free_r+0x42>
 8009d34:	6811      	ldr	r1, [r2, #0]
 8009d36:	1850      	adds	r0, r2, r1
 8009d38:	42a0      	cmp	r0, r4
 8009d3a:	d10b      	bne.n	8009d54 <_free_r+0x6c>
 8009d3c:	6820      	ldr	r0, [r4, #0]
 8009d3e:	4401      	add	r1, r0
 8009d40:	1850      	adds	r0, r2, r1
 8009d42:	4283      	cmp	r3, r0
 8009d44:	6011      	str	r1, [r2, #0]
 8009d46:	d1e0      	bne.n	8009d0a <_free_r+0x22>
 8009d48:	6818      	ldr	r0, [r3, #0]
 8009d4a:	685b      	ldr	r3, [r3, #4]
 8009d4c:	6053      	str	r3, [r2, #4]
 8009d4e:	4408      	add	r0, r1
 8009d50:	6010      	str	r0, [r2, #0]
 8009d52:	e7da      	b.n	8009d0a <_free_r+0x22>
 8009d54:	d902      	bls.n	8009d5c <_free_r+0x74>
 8009d56:	230c      	movs	r3, #12
 8009d58:	602b      	str	r3, [r5, #0]
 8009d5a:	e7d6      	b.n	8009d0a <_free_r+0x22>
 8009d5c:	6820      	ldr	r0, [r4, #0]
 8009d5e:	1821      	adds	r1, r4, r0
 8009d60:	428b      	cmp	r3, r1
 8009d62:	bf04      	itt	eq
 8009d64:	6819      	ldreq	r1, [r3, #0]
 8009d66:	685b      	ldreq	r3, [r3, #4]
 8009d68:	6063      	str	r3, [r4, #4]
 8009d6a:	bf04      	itt	eq
 8009d6c:	1809      	addeq	r1, r1, r0
 8009d6e:	6021      	streq	r1, [r4, #0]
 8009d70:	6054      	str	r4, [r2, #4]
 8009d72:	e7ca      	b.n	8009d0a <_free_r+0x22>
 8009d74:	bd38      	pop	{r3, r4, r5, pc}
 8009d76:	bf00      	nop
 8009d78:	2000113c 	.word	0x2000113c

08009d7c <_Balloc>:
 8009d7c:	b570      	push	{r4, r5, r6, lr}
 8009d7e:	69c6      	ldr	r6, [r0, #28]
 8009d80:	4604      	mov	r4, r0
 8009d82:	460d      	mov	r5, r1
 8009d84:	b976      	cbnz	r6, 8009da4 <_Balloc+0x28>
 8009d86:	2010      	movs	r0, #16
 8009d88:	f7fe fa46 	bl	8008218 <malloc>
 8009d8c:	4602      	mov	r2, r0
 8009d8e:	61e0      	str	r0, [r4, #28]
 8009d90:	b920      	cbnz	r0, 8009d9c <_Balloc+0x20>
 8009d92:	4b18      	ldr	r3, [pc, #96]	@ (8009df4 <_Balloc+0x78>)
 8009d94:	4818      	ldr	r0, [pc, #96]	@ (8009df8 <_Balloc+0x7c>)
 8009d96:	216b      	movs	r1, #107	@ 0x6b
 8009d98:	f000 fd6e 	bl	800a878 <__assert_func>
 8009d9c:	e9c0 6601 	strd	r6, r6, [r0, #4]
 8009da0:	6006      	str	r6, [r0, #0]
 8009da2:	60c6      	str	r6, [r0, #12]
 8009da4:	69e6      	ldr	r6, [r4, #28]
 8009da6:	68f3      	ldr	r3, [r6, #12]
 8009da8:	b183      	cbz	r3, 8009dcc <_Balloc+0x50>
 8009daa:	69e3      	ldr	r3, [r4, #28]
 8009dac:	68db      	ldr	r3, [r3, #12]
 8009dae:	f853 0025 	ldr.w	r0, [r3, r5, lsl #2]
 8009db2:	b9b8      	cbnz	r0, 8009de4 <_Balloc+0x68>
 8009db4:	2101      	movs	r1, #1
 8009db6:	fa01 f605 	lsl.w	r6, r1, r5
 8009dba:	1d72      	adds	r2, r6, #5
 8009dbc:	0092      	lsls	r2, r2, #2
 8009dbe:	4620      	mov	r0, r4
 8009dc0:	f000 fd78 	bl	800a8b4 <_calloc_r>
 8009dc4:	b160      	cbz	r0, 8009de0 <_Balloc+0x64>
 8009dc6:	e9c0 5601 	strd	r5, r6, [r0, #4]
 8009dca:	e00e      	b.n	8009dea <_Balloc+0x6e>
 8009dcc:	2221      	movs	r2, #33	@ 0x21
 8009dce:	2104      	movs	r1, #4
 8009dd0:	4620      	mov	r0, r4
 8009dd2:	f000 fd6f 	bl	800a8b4 <_calloc_r>
 8009dd6:	69e3      	ldr	r3, [r4, #28]
 8009dd8:	60f0      	str	r0, [r6, #12]
 8009dda:	68db      	ldr	r3, [r3, #12]
 8009ddc:	2b00      	cmp	r3, #0
 8009dde:	d1e4      	bne.n	8009daa <_Balloc+0x2e>
 8009de0:	2000      	movs	r0, #0
 8009de2:	bd70      	pop	{r4, r5, r6, pc}
 8009de4:	6802      	ldr	r2, [r0, #0]
 8009de6:	f843 2025 	str.w	r2, [r3, r5, lsl #2]
 8009dea:	2300      	movs	r3, #0
 8009dec:	e9c0 3303 	strd	r3, r3, [r0, #12]
 8009df0:	e7f7      	b.n	8009de2 <_Balloc+0x66>
 8009df2:	bf00      	nop
 8009df4:	0800d6b9 	.word	0x0800d6b9
 8009df8:	0800d739 	.word	0x0800d739

08009dfc <_Bfree>:
 8009dfc:	b570      	push	{r4, r5, r6, lr}
 8009dfe:	69c6      	ldr	r6, [r0, #28]
 8009e00:	4605      	mov	r5, r0
 8009e02:	460c      	mov	r4, r1
 8009e04:	b976      	cbnz	r6, 8009e24 <_Bfree+0x28>
 8009e06:	2010      	movs	r0, #16
 8009e08:	f7fe fa06 	bl	8008218 <malloc>
 8009e0c:	4602      	mov	r2, r0
 8009e0e:	61e8      	str	r0, [r5, #28]
 8009e10:	b920      	cbnz	r0, 8009e1c <_Bfree+0x20>
 8009e12:	4b09      	ldr	r3, [pc, #36]	@ (8009e38 <_Bfree+0x3c>)
 8009e14:	4809      	ldr	r0, [pc, #36]	@ (8009e3c <_Bfree+0x40>)
 8009e16:	218f      	movs	r1, #143	@ 0x8f
 8009e18:	f000 fd2e 	bl	800a878 <__assert_func>
 8009e1c:	e9c0 6601 	strd	r6, r6, [r0, #4]
 8009e20:	6006      	str	r6, [r0, #0]
 8009e22:	60c6      	str	r6, [r0, #12]
 8009e24:	b13c      	cbz	r4, 8009e36 <_Bfree+0x3a>
 8009e26:	69eb      	ldr	r3, [r5, #28]
 8009e28:	6862      	ldr	r2, [r4, #4]
 8009e2a:	68db      	ldr	r3, [r3, #12]
 8009e2c:	f853 1022 	ldr.w	r1, [r3, r2, lsl #2]
 8009e30:	6021      	str	r1, [r4, #0]
 8009e32:	f843 4022 	str.w	r4, [r3, r2, lsl #2]
 8009e36:	bd70      	pop	{r4, r5, r6, pc}
 8009e38:	0800d6b9 	.word	0x0800d6b9
 8009e3c:	0800d739 	.word	0x0800d739

08009e40 <__multadd>:
 8009e40:	e92d 41f0 	stmdb	sp!, {r4, r5, r6, r7, r8, lr}
 8009e44:	690d      	ldr	r5, [r1, #16]
 8009e46:	4607      	mov	r7, r0
 8009e48:	460c      	mov	r4, r1
 8009e4a:	461e      	mov	r6, r3
 8009e4c:	f101 0c14 	add.w	ip, r1, #20
 8009e50:	2000      	movs	r0, #0
 8009e52:	f8dc 3000 	ldr.w	r3, [ip]
 8009e56:	b299      	uxth	r1, r3
 8009e58:	fb02 6101 	mla	r1, r2, r1, r6
 8009e5c:	0c1e      	lsrs	r6, r3, #16
 8009e5e:	0c0b      	lsrs	r3, r1, #16
 8009e60:	fb02 3306 	mla	r3, r2, r6, r3
 8009e64:	b289      	uxth	r1, r1
 8009e66:	3001      	adds	r0, #1
 8009e68:	eb01 4103 	add.w	r1, r1, r3, lsl #16
 8009e6c:	4285      	cmp	r5, r0
 8009e6e:	f84c 1b04 	str.w	r1, [ip], #4
 8009e72:	ea4f 4613 	mov.w	r6, r3, lsr #16
 8009e76:	dcec      	bgt.n	8009e52 <__multadd+0x12>
 8009e78:	b30e      	cbz	r6, 8009ebe <__multadd+0x7e>
 8009e7a:	68a3      	ldr	r3, [r4, #8]
 8009e7c:	42ab      	cmp	r3, r5
 8009e7e:	dc19      	bgt.n	8009eb4 <__multadd+0x74>
 8009e80:	6861      	ldr	r1, [r4, #4]
 8009e82:	4638      	mov	r0, r7
 8009e84:	3101      	adds	r1, #1
 8009e86:	f7ff ff79 	bl	8009d7c <_Balloc>
 8009e8a:	4680      	mov	r8, r0
 8009e8c:	b928      	cbnz	r0, 8009e9a <__multadd+0x5a>
 8009e8e:	4602      	mov	r2, r0
 8009e90:	4b0c      	ldr	r3, [pc, #48]	@ (8009ec4 <__multadd+0x84>)
 8009e92:	480d      	ldr	r0, [pc, #52]	@ (8009ec8 <__multadd+0x88>)
 8009e94:	21ba      	movs	r1, #186	@ 0xba
 8009e96:	f000 fcef 	bl	800a878 <__assert_func>
 8009e9a:	6922      	ldr	r2, [r4, #16]
 8009e9c:	3202      	adds	r2, #2
 8009e9e:	f104 010c 	add.w	r1, r4, #12
 8009ea2:	0092      	lsls	r2, r2, #2
 8009ea4:	300c      	adds	r0, #12
 8009ea6:	f7ff f8b6 	bl	8009016 <memcpy>
 8009eaa:	4621      	mov	r1, r4
 8009eac:	4638      	mov	r0, r7
 8009eae:	f7ff ffa5 	bl	8009dfc <_Bfree>
 8009eb2:	4644      	mov	r4, r8
 8009eb4:	eb04 0385 	add.w	r3, r4, r5, lsl #2
 8009eb8:	3501      	adds	r5, #1
 8009eba:	615e      	str	r6, [r3, #20]
 8009ebc:	6125      	str	r5, [r4, #16]
 8009ebe:	4620      	mov	r0, r4
 8009ec0:	e8bd 81f0 	ldmia.w	sp!, {r4, r5, r6, r7, r8, pc}
 8009ec4:	0800d728 	.word	0x0800d728
 8009ec8:	0800d739 	.word	0x0800d739

08009ecc <__hi0bits>:
 8009ecc:	f5b0 3f80 	cmp.w	r0, #65536	@ 0x10000
 8009ed0:	4603      	mov	r3, r0
 8009ed2:	bf36      	itet	cc
 8009ed4:	0403      	lslcc	r3, r0, #16
 8009ed6:	2000      	movcs	r0, #0
 8009ed8:	2010      	movcc	r0, #16
 8009eda:	f1b3 7f80 	cmp.w	r3, #16777216	@ 0x1000000
 8009ede:	bf3c      	itt	cc
 8009ee0:	021b      	lslcc	r3, r3, #8
 8009ee2:	3008      	addcc	r0, #8
 8009ee4:	f1b3 5f80 	cmp.w	r3, #268435456	@ 0x10000000
 8009ee8:	bf3c      	itt	cc
 8009eea:	011b      	lslcc	r3, r3, #4
 8009eec:	3004      	addcc	r0, #4
 8009eee:	f1b3 4f80 	cmp.w	r3, #1073741824	@ 0x40000000
 8009ef2:	bf3c      	itt	cc
 8009ef4:	009b      	lslcc	r3, r3, #2
 8009ef6:	3002      	addcc	r0, #2
 8009ef8:	2b00      	cmp	r3, #0
 8009efa:	db05      	blt.n	8009f08 <__hi0bits+0x3c>
 8009efc:	f013 4f80 	tst.w	r3, #1073741824	@ 0x40000000
 8009f00:	f100 0001 	add.w	r0, r0, #1
 8009f04:	bf08      	it	eq
 8009f06:	2020      	moveq	r0, #32
 8009f08:	4770      	bx	lr

08009f0a <__lo0bits>:
 8009f0a:	6803      	ldr	r3, [r0, #0]
 8009f0c:	4602      	mov	r2, r0
 8009f0e:	f013 0007 	ands.w	r0, r3, #7
 8009f12:	d00b      	beq.n	8009f2c <__lo0bits+0x22>
 8009f14:	07d9      	lsls	r1, r3, #31
 8009f16:	d421      	bmi.n	8009f5c <__lo0bits+0x52>
 8009f18:	0798      	lsls	r0, r3, #30
 8009f1a:	bf49      	itett	mi
 8009f1c:	085b      	lsrmi	r3, r3, #1
 8009f1e:	089b      	lsrpl	r3, r3, #2
 8009f20:	2001      	movmi	r0, #1
 8009f22:	6013      	strmi	r3, [r2, #0]
 8009f24:	bf5c      	itt	pl
 8009f26:	6013      	strpl	r3, [r2, #0]
 8009f28:	2002      	movpl	r0, #2
 8009f2a:	4770      	bx	lr
 8009f2c:	b299      	uxth	r1, r3
 8009f2e:	b909      	cbnz	r1, 8009f34 <__lo0bits+0x2a>
 8009f30:	0c1b      	lsrs	r3, r3, #16
 8009f32:	2010      	movs	r0, #16
 8009f34:	b2d9      	uxtb	r1, r3
 8009f36:	b909      	cbnz	r1, 8009f3c <__lo0bits+0x32>
 8009f38:	3008      	adds	r0, #8
 8009f3a:	0a1b      	lsrs	r3, r3, #8
 8009f3c:	0719      	lsls	r1, r3, #28
 8009f3e:	bf04      	itt	eq
 8009f40:	091b      	lsreq	r3, r3, #4
 8009f42:	3004      	addeq	r0, #4
 8009f44:	0799      	lsls	r1, r3, #30
 8009f46:	bf04      	itt	eq
 8009f48:	089b      	lsreq	r3, r3, #2
 8009f4a:	3002      	addeq	r0, #2
 8009f4c:	07d9      	lsls	r1, r3, #31
 8009f4e:	d403      	bmi.n	8009f58 <__lo0bits+0x4e>
 8009f50:	085b      	lsrs	r3, r3, #1
 8009f52:	f100 0001 	add.w	r0, r0, #1
 8009f56:	d003      	beq.n	8009f60 <__lo0bits+0x56>
 8009f58:	6013      	str	r3, [r2, #0]
 8009f5a:	4770      	bx	lr
 8009f5c:	2000      	movs	r0, #0
 8009f5e:	4770      	bx	lr
 8009f60:	2020      	movs	r0, #32
 8009f62:	4770      	bx	lr

08009f64 <__i2b>:
 8009f64:	b510      	push	{r4, lr}
 8009f66:	460c      	mov	r4, r1
 8009f68:	2101      	movs	r1, #1
 8009f6a:	f7ff ff07 	bl	8009d7c <_Balloc>
 8009f6e:	4602      	mov	r2, r0
 8009f70:	b928      	cbnz	r0, 8009f7e <__i2b+0x1a>
 8009f72:	4b05      	ldr	r3, [pc, #20]	@ (8009f88 <__i2b+0x24>)
 8009f74:	4805      	ldr	r0, [pc, #20]	@ (8009f8c <__i2b+0x28>)
 8009f76:	f240 1145 	movw	r1, #325	@ 0x145
 8009f7a:	f000 fc7d 	bl	800a878 <__assert_func>
 8009f7e:	2301      	movs	r3, #1
 8009f80:	6144      	str	r4, [r0, #20]
 8009f82:	6103      	str	r3, [r0, #16]
 8009f84:	bd10      	pop	{r4, pc}
 8009f86:	bf00      	nop
 8009f88:	0800d728 	.word	0x0800d728
 8009f8c:	0800d739 	.word	0x0800d739

08009f90 <__multiply>:
 8009f90:	e92d 4ff0 	stmdb	sp!, {r4, r5, r6, r7, r8, r9, sl, fp, lr}
 8009f94:	4617      	mov	r7, r2
 8009f96:	690a      	ldr	r2, [r1, #16]
 8009f98:	693b      	ldr	r3, [r7, #16]
 8009f9a:	429a      	cmp	r2, r3
 8009f9c:	bfa8      	it	ge
 8009f9e:	463b      	movge	r3, r7
 8009fa0:	4689      	mov	r9, r1
 8009fa2:	bfa4      	itt	ge
 8009fa4:	460f      	movge	r7, r1
 8009fa6:	4699      	movge	r9, r3
 8009fa8:	693d      	ldr	r5, [r7, #16]
 8009faa:	f8d9 a010 	ldr.w	sl, [r9, #16]
 8009fae:	68bb      	ldr	r3, [r7, #8]
 8009fb0:	6879      	ldr	r1, [r7, #4]
 8009fb2:	eb05 060a 	add.w	r6, r5, sl
 8009fb6:	42b3      	cmp	r3, r6
 8009fb8:	b085      	sub	sp, #20
 8009fba:	bfb8      	it	lt
 8009fbc:	3101      	addlt	r1, #1
 8009fbe:	f7ff fedd 	bl	8009d7c <_Balloc>
 8009fc2:	b930      	cbnz	r0, 8009fd2 <__multiply+0x42>
 8009fc4:	4602      	mov	r2, r0
 8009fc6:	4b41      	ldr	r3, [pc, #260]	@ (800a0cc <__multiply+0x13c>)
 8009fc8:	4841      	ldr	r0, [pc, #260]	@ (800a0d0 <__multiply+0x140>)
 8009fca:	f44f 71b1 	mov.w	r1, #354	@ 0x162
 8009fce:	f000 fc53 	bl	800a878 <__assert_func>
 8009fd2:	f100 0414 	add.w	r4, r0, #20
 8009fd6:	eb04 0e86 	add.w	lr, r4, r6, lsl #2
 8009fda:	4623      	mov	r3, r4
 8009fdc:	2200      	movs	r2, #0
 8009fde:	4573      	cmp	r3, lr
 8009fe0:	d320      	bcc.n	800a024 <__multiply+0x94>
 8009fe2:	f107 0814 	add.w	r8, r7, #20
 8009fe6:	f109 0114 	add.w	r1, r9, #20
 8009fea:	eb08 0585 	add.w	r5, r8, r5, lsl #2
 8009fee:	eb01 038a 	add.w	r3, r1, sl, lsl #2
 8009ff2:	9302      	str	r3, [sp, #8]
 8009ff4:	1beb      	subs	r3, r5, r7
 8009ff6:	3b15      	subs	r3, #21
 8009ff8:	f023 0303 	bic.w	r3, r3, #3
 8009ffc:	3304      	adds	r3, #4
 8009ffe:	3715      	adds	r7, #21
 800a000:	42bd      	cmp	r5, r7
 800a002:	bf38      	it	cc
 800a004:	2304      	movcc	r3, #4
 800a006:	9301      	str	r3, [sp, #4]
 800a008:	9b02      	ldr	r3, [sp, #8]
 800a00a:	9103      	str	r1, [sp, #12]
 800a00c:	428b      	cmp	r3, r1
 800a00e:	d80c      	bhi.n	800a02a <__multiply+0x9a>
 800a010:	2e00      	cmp	r6, #0
 800a012:	dd03      	ble.n	800a01c <__multiply+0x8c>
 800a014:	f85e 3d04 	ldr.w	r3, [lr, #-4]!
 800a018:	2b00      	cmp	r3, #0
 800a01a:	d055      	beq.n	800a0c8 <__multiply+0x138>
 800a01c:	6106      	str	r6, [r0, #16]
 800a01e:	b005      	add	sp, #20
 800a020:	e8bd 8ff0 	ldmia.w	sp!, {r4, r5, r6, r7, r8, r9, sl, fp, pc}
 800a024:	f843 2b04 	str.w	r2, [r3], #4
 800a028:	e7d9      	b.n	8009fde <__multiply+0x4e>
 800a02a:	f8b1 a000 	ldrh.w	sl, [r1]
 800a02e:	f1ba 0f00 	cmp.w	sl, #0
 800a032:	d01f      	beq.n	800a074 <__multiply+0xe4>
 800a034:	46c4      	mov	ip, r8
 800a036:	46a1      	mov	r9, r4
 800a038:	2700      	movs	r7, #0
 800a03a:	f85c 2b04 	ldr.w	r2, [ip], #4
 800a03e:	f8d9 3000 	ldr.w	r3, [r9]
 800a042:	fa1f fb82 	uxth.w	fp, r2
 800a046:	b29b      	uxth	r3, r3
 800a048:	fb0a 330b 	mla	r3, sl, fp, r3
 800a04c:	443b      	add	r3, r7
 800a04e:	f8d9 7000 	ldr.w	r7, [r9]
 800a052:	0c12      	lsrs	r2, r2, #16
 800a054:	0c3f      	lsrs	r7, r7, #16
 800a056:	fb0a 7202 	mla	r2, sl, r2, r7
 800a05a:	eb02 4213 	add.w	r2, r2, r3, lsr #16
 800a05e:	b29b      	uxth	r3, r3
 800a060:	ea43 4302 	orr.w	r3, r3, r2, lsl #16
 800a064:	4565      	cmp	r5, ip
 800a066:	f849 3b04 	str.w	r3, [r9], #4
 800a06a:	ea4f 4712 	mov.w	r7, r2, lsr #16
 800a06e:	d8e4      	bhi.n	800a03a <__multiply+0xaa>
 800a070:	9b01      	ldr	r3, [sp, #4]
 800a072:	50e7      	str	r7, [r4, r3]
 800a074:	9b03      	ldr	r3, [sp, #12]
 800a076:	f8b3 9002 	ldrh.w	r9, [r3, #2]
 800a07a:	3104      	adds	r1, #4
 800a07c:	f1b9 0f00 	cmp.w	r9, #0
 800a080:	d020      	beq.n	800a0c4 <__multiply+0x134>
 800a082:	6823      	ldr	r3, [r4, #0]
 800a084:	4647      	mov	r7, r8
 800a086:	46a4      	mov	ip, r4
 800a088:	f04f 0a00 	mov.w	sl, #0
 800a08c:	f8b7 b000 	ldrh.w	fp, [r7]
 800a090:	f8bc 2002 	ldrh.w	r2, [ip, #2]
 800a094:	fb09 220b 	mla	r2, r9, fp, r2
 800a098:	4452      	add	r2, sl
 800a09a:	b29b      	uxth	r3, r3
 800a09c:	ea43 4302 	orr.w	r3, r3, r2, lsl #16
 800a0a0:	f84c 3b04 	str.w	r3, [ip], #4
 800a0a4:	f857 3b04 	ldr.w	r3, [r7], #4
 800a0a8:	ea4f 4a13 	mov.w	sl, r3, lsr #16
 800a0ac:	f8bc 3000 	ldrh.w	r3, [ip]
 800a0b0:	fb09 330a 	mla	r3, r9, sl, r3
 800a0b4:	eb03 4312 	add.w	r3, r3, r2, lsr #16
 800a0b8:	42bd      	cmp	r5, r7
 800a0ba:	ea4f 4a13 	mov.w	sl, r3, lsr #16
 800a0be:	d8e5      	bhi.n	800a08c <__multiply+0xfc>
 800a0c0:	9a01      	ldr	r2, [sp, #4]
 800a0c2:	50a3      	str	r3, [r4, r2]
 800a0c4:	3404      	adds	r4, #4
 800a0c6:	e79f      	b.n	800a008 <__multiply+0x78>
 800a0c8:	3e01      	subs	r6, #1
 800a0ca:	e7a1      	b.n	800a010 <__multiply+0x80>
 800a0cc:	0800d728 	.word	0x0800d728
 800a0d0:	0800d739 	.word	0x0800d739

0800a0d4 <__pow5mult>:
 800a0d4:	e92d 43f8 	stmdb	sp!, {r3, r4, r5, r6, r7, r8, r9, lr}
 800a0d8:	4615      	mov	r5, r2
 800a0da:	f012 0203 	ands.w	r2, r2, #3
 800a0de:	4607      	mov	r7, r0
 800a0e0:	460e      	mov	r6, r1
 800a0e2:	d007      	beq.n	800a0f4 <__pow5mult+0x20>
 800a0e4:	4c25      	ldr	r4, [pc, #148]	@ (800a17c <__pow5mult+0xa8>)
 800a0e6:	3a01      	subs	r2, #1
 800a0e8:	2300      	movs	r3, #0
 800a0ea:	f854 2022 	ldr.w	r2, [r4, r2, lsl #2]
 800a0ee:	f7ff fea7 	bl	8009e40 <__multadd>
 800a0f2:	4606      	mov	r6, r0
 800a0f4:	10ad      	asrs	r5, r5, #2
 800a0f6:	d03d      	beq.n	800a174 <__pow5mult+0xa0>
 800a0f8:	69fc      	ldr	r4, [r7, #28]
 800a0fa:	b97c      	cbnz	r4, 800a11c <__pow5mult+0x48>
 800a0fc:	2010      	movs	r0, #16
 800a0fe:	f7fe f88b 	bl	8008218 <malloc>
 800a102:	4602      	mov	r2, r0
 800a104:	61f8      	str	r0, [r7, #28]
 800a106:	b928      	cbnz	r0, 800a114 <__pow5mult+0x40>
 800a108:	4b1d      	ldr	r3, [pc, #116]	@ (800a180 <__pow5mult+0xac>)
 800a10a:	481e      	ldr	r0, [pc, #120]	@ (800a184 <__pow5mult+0xb0>)
 800a10c:	f240 11b3 	movw	r1, #435	@ 0x1b3
 800a110:	f000 fbb2 	bl	800a878 <__assert_func>
 800a114:	e9c0 4401 	strd	r4, r4, [r0, #4]
 800a118:	6004      	str	r4, [r0, #0]
 800a11a:	60c4      	str	r4, [r0, #12]
 800a11c:	f8d7 801c 	ldr.w	r8, [r7, #28]
 800a120:	f8d8 4008 	ldr.w	r4, [r8, #8]
 800a124:	b94c      	cbnz	r4, 800a13a <__pow5mult+0x66>
 800a126:	f240 2171 	movw	r1, #625	@ 0x271
 800a12a:	4638      	mov	r0, r7
 800a12c:	f7ff ff1a 	bl	8009f64 <__i2b>
 800a130:	2300      	movs	r3, #0
 800a132:	f8c8 0008 	str.w	r0, [r8, #8]
 800a136:	4604      	mov	r4, r0
 800a138:	6003      	str	r3, [r0, #0]
 800a13a:	f04f 0900 	mov.w	r9, #0
 800a13e:	07eb      	lsls	r3, r5, #31
 800a140:	d50a      	bpl.n	800a158 <__pow5mult+0x84>
 800a142:	4631      	mov	r1, r6
 800a144:	4622      	mov	r2, r4
 800a146:	4638      	mov	r0, r7
 800a148:	f7ff ff22 	bl	8009f90 <__multiply>
 800a14c:	4631      	mov	r1, r6
 800a14e:	4680      	mov	r8, r0
 800a150:	4638      	mov	r0, r7
 800a152:	f7ff fe53 	bl	8009dfc <_Bfree>
 800a156:	4646      	mov	r6, r8
 800a158:	106d      	asrs	r5, r5, #1
 800a15a:	d00b      	beq.n	800a174 <__pow5mult+0xa0>
 800a15c:	6820      	ldr	r0, [r4, #0]
 800a15e:	b938      	cbnz	r0, 800a170 <__pow5mult+0x9c>
 800a160:	4622      	mov	r2, r4
 800a162:	4621      	mov	r1, r4
 800a164:	4638      	mov	r0, r7
 800a166:	f7ff ff13 	bl	8009f90 <__multiply>
 800a16a:	6020      	str	r0, [r4, #0]
 800a16c:	f8c0 9000 	str.w	r9, [r0]
 800a170:	4604      	mov	r4, r0
 800a172:	e7e4      	b.n	800a13e <__pow5mult+0x6a>
 800a174:	4630      	mov	r0, r6
 800a176:	e8bd 83f8 	ldmia.w	sp!, {r3, r4, r5, r6, r7, r8, r9, pc}
 800a17a:	bf00      	nop
 800a17c:	0800d7ec 	.word	0x0800d7ec
 800a180:	0800d6b9 	.word	0x0800d6b9
 800a184:	0800d739 	.word	0x0800d739

0800a188 <__lshift>:
 800a188:	e92d 47f0 	stmdb	sp!, {r4, r5, r6, r7, r8, r9, sl, lr}
 800a18c:	460c      	mov	r4, r1
 800a18e:	6849      	ldr	r1, [r1, #4]
 800a190:	6923      	ldr	r3, [r4, #16]
 800a192:	eb03 1862 	add.w	r8, r3, r2, asr #5
 800a196:	68a3      	ldr	r3, [r4, #8]
 800a198:	4607      	mov	r7, r0
 800a19a:	4691      	mov	r9, r2
 800a19c:	ea4f 1a62 	mov.w	sl, r2, asr #5
 800a1a0:	f108 0601 	add.w	r6, r8, #1
 800a1a4:	42b3      	cmp	r3, r6
 800a1a6:	db0b      	blt.n	800a1c0 <__lshift+0x38>
 800a1a8:	4638      	mov	r0, r7
 800a1aa:	f7ff fde7 	bl	8009d7c <_Balloc>
 800a1ae:	4605      	mov	r5, r0
 800a1b0:	b948      	cbnz	r0, 800a1c6 <__lshift+0x3e>
 800a1b2:	4602      	mov	r2, r0
 800a1b4:	4b28      	ldr	r3, [pc, #160]	@ (800a258 <__lshift+0xd0>)
 800a1b6:	4829      	ldr	r0, [pc, #164]	@ (800a25c <__lshift+0xd4>)
 800a1b8:	f44f 71ef 	mov.w	r1, #478	@ 0x1de
 800a1bc:	f000 fb5c 	bl	800a878 <__assert_func>
 800a1c0:	3101      	adds	r1, #1
 800a1c2:	005b      	lsls	r3, r3, #1
 800a1c4:	e7ee      	b.n	800a1a4 <__lshift+0x1c>
 800a1c6:	2300      	movs	r3, #0
 800a1c8:	f100 0114 	add.w	r1, r0, #20
 800a1cc:	f100 0210 	add.w	r2, r0, #16
 800a1d0:	4618      	mov	r0, r3
 800a1d2:	4553      	cmp	r3, sl
 800a1d4:	db33      	blt.n	800a23e <__lshift+0xb6>
 800a1d6:	6920      	ldr	r0, [r4, #16]
 800a1d8:	ea2a 7aea 	bic.w	sl, sl, sl, asr #31
 800a1dc:	f104 0314 	add.w	r3, r4, #20
 800a1e0:	f019 091f 	ands.w	r9, r9, #31
 800a1e4:	eb01 018a 	add.w	r1, r1, sl, lsl #2
 800a1e8:	eb03 0c80 	add.w	ip, r3, r0, lsl #2
 800a1ec:	d02b      	beq.n	800a246 <__lshift+0xbe>
 800a1ee:	f1c9 0e20 	rsb	lr, r9, #32
 800a1f2:	468a      	mov	sl, r1
 800a1f4:	2200      	movs	r2, #0
 800a1f6:	6818      	ldr	r0, [r3, #0]
 800a1f8:	fa00 f009 	lsl.w	r0, r0, r9
 800a1fc:	4310      	orrs	r0, r2
 800a1fe:	f84a 0b04 	str.w	r0, [sl], #4
 800a202:	f853 2b04 	ldr.w	r2, [r3], #4
 800a206:	459c      	cmp	ip, r3
 800a208:	fa22 f20e 	lsr.w	r2, r2, lr
 800a20c:	d8f3      	bhi.n	800a1f6 <__lshift+0x6e>
 800a20e:	ebac 0304 	sub.w	r3, ip, r4
 800a212:	3b15      	subs	r3, #21
 800a214:	f023 0303 	bic.w	r3, r3, #3
 800a218:	3304      	adds	r3, #4
 800a21a:	f104 0015 	add.w	r0, r4, #21
 800a21e:	4560      	cmp	r0, ip
 800a220:	bf88      	it	hi
 800a222:	2304      	movhi	r3, #4
 800a224:	50ca      	str	r2, [r1, r3]
 800a226:	b10a      	cbz	r2, 800a22c <__lshift+0xa4>
 800a228:	f108 0602 	add.w	r6, r8, #2
 800a22c:	3e01      	subs	r6, #1
 800a22e:	4638      	mov	r0, r7
 800a230:	612e      	str	r6, [r5, #16]
 800a232:	4621      	mov	r1, r4
 800a234:	f7ff fde2 	bl	8009dfc <_Bfree>
 800a238:	4628      	mov	r0, r5
 800a23a:	e8bd 87f0 	ldmia.w	sp!, {r4, r5, r6, r7, r8, r9, sl, pc}
 800a23e:	f842 0f04 	str.w	r0, [r2, #4]!
 800a242:	3301      	adds	r3, #1
 800a244:	e7c5      	b.n	800a1d2 <__lshift+0x4a>
 800a246:	3904      	subs	r1, #4
 800a248:	f853 2b04 	ldr.w	r2, [r3], #4
 800a24c:	f841 2f04 	str.w	r2, [r1, #4]!
 800a250:	459c      	cmp	ip, r3
 800a252:	d8f9      	bhi.n	800a248 <__lshift+0xc0>
 800a254:	e7ea      	b.n	800a22c <__lshift+0xa4>
 800a256:	bf00      	nop
 800a258:	0800d728 	.word	0x0800d728
 800a25c:	0800d739 	.word	0x0800d739

0800a260 <__mcmp>:
 800a260:	690a      	ldr	r2, [r1, #16]
 800a262:	4603      	mov	r3, r0
 800a264:	6900      	ldr	r0, [r0, #16]
 800a266:	1a80      	subs	r0, r0, r2
 800a268:	b530      	push	{r4, r5, lr}
 800a26a:	d10e      	bne.n	800a28a <__mcmp+0x2a>
 800a26c:	3314      	adds	r3, #20
 800a26e:	3114      	adds	r1, #20
 800a270:	eb03 0482 	add.w	r4, r3, r2, lsl #2
 800a274:	eb01 0182 	add.w	r1, r1, r2, lsl #2
 800a278:	f854 5d04 	ldr.w	r5, [r4, #-4]!
 800a27c:	f851 2d04 	ldr.w	r2, [r1, #-4]!
 800a280:	4295      	cmp	r5, r2
 800a282:	d003      	beq.n	800a28c <__mcmp+0x2c>
 800a284:	d205      	bcs.n	800a292 <__mcmp+0x32>
 800a286:	f04f 30ff 	mov.w	r0, #4294967295
 800a28a:	bd30      	pop	{r4, r5, pc}
 800a28c:	42a3      	cmp	r3, r4
 800a28e:	d3f3      	bcc.n	800a278 <__mcmp+0x18>
 800a290:	e7fb      	b.n	800a28a <__mcmp+0x2a>
 800a292:	2001      	movs	r0, #1
 800a294:	e7f9      	b.n	800a28a <__mcmp+0x2a>
	...

0800a298 <__mdiff>:
 800a298:	e92d 4ff7 	stmdb	sp!, {r0, r1, r2, r4, r5, r6, r7, r8, r9, sl, fp, lr}
 800a29c:	4689      	mov	r9, r1
 800a29e:	4606      	mov	r6, r0
 800a2a0:	4611      	mov	r1, r2
 800a2a2:	4648      	mov	r0, r9
 800a2a4:	4614      	mov	r4, r2
 800a2a6:	f7ff ffdb 	bl	800a260 <__mcmp>
 800a2aa:	1e05      	subs	r5, r0, #0
 800a2ac:	d112      	bne.n	800a2d4 <__mdiff+0x3c>
 800a2ae:	4629      	mov	r1, r5
 800a2b0:	4630      	mov	r0, r6
 800a2b2:	f7ff fd63 	bl	8009d7c <_Balloc>
 800a2b6:	4602      	mov	r2, r0
 800a2b8:	b928      	cbnz	r0, 800a2c6 <__mdiff+0x2e>
 800a2ba:	4b3f      	ldr	r3, [pc, #252]	@ (800a3b8 <__mdiff+0x120>)
 800a2bc:	f240 2137 	movw	r1, #567	@ 0x237
 800a2c0:	483e      	ldr	r0, [pc, #248]	@ (800a3bc <__mdiff+0x124>)
 800a2c2:	f000 fad9 	bl	800a878 <__assert_func>
 800a2c6:	2301      	movs	r3, #1
 800a2c8:	e9c0 3504 	strd	r3, r5, [r0, #16]
 800a2cc:	4610      	mov	r0, r2
 800a2ce:	b003      	add	sp, #12
 800a2d0:	e8bd 8ff0 	ldmia.w	sp!, {r4, r5, r6, r7, r8, r9, sl, fp, pc}
 800a2d4:	bfbc      	itt	lt
 800a2d6:	464b      	movlt	r3, r9
 800a2d8:	46a1      	movlt	r9, r4
 800a2da:	4630      	mov	r0, r6
 800a2dc:	f8d9 1004 	ldr.w	r1, [r9, #4]
 800a2e0:	bfba      	itte	lt
 800a2e2:	461c      	movlt	r4, r3
 800a2e4:	2501      	movlt	r5, #1
 800a2e6:	2500      	movge	r5, #0
 800a2e8:	f7ff fd48 	bl	8009d7c <_Balloc>
 800a2ec:	4602      	mov	r2, r0
 800a2ee:	b918      	cbnz	r0, 800a2f8 <__mdiff+0x60>
 800a2f0:	4b31      	ldr	r3, [pc, #196]	@ (800a3b8 <__mdiff+0x120>)
 800a2f2:	f240 2145 	movw	r1, #581	@ 0x245
 800a2f6:	e7e3      	b.n	800a2c0 <__mdiff+0x28>
 800a2f8:	f8d9 7010 	ldr.w	r7, [r9, #16]
 800a2fc:	6926      	ldr	r6, [r4, #16]
 800a2fe:	60c5      	str	r5, [r0, #12]
 800a300:	f109 0310 	add.w	r3, r9, #16
 800a304:	f109 0514 	add.w	r5, r9, #20
 800a308:	f104 0e14 	add.w	lr, r4, #20
 800a30c:	f100 0b14 	add.w	fp, r0, #20
 800a310:	eb05 0887 	add.w	r8, r5, r7, lsl #2
 800a314:	eb0e 0686 	add.w	r6, lr, r6, lsl #2
 800a318:	9301      	str	r3, [sp, #4]
 800a31a:	46d9      	mov	r9, fp
 800a31c:	f04f 0c00 	mov.w	ip, #0
 800a320:	9b01      	ldr	r3, [sp, #4]
 800a322:	f85e 0b04 	ldr.w	r0, [lr], #4
 800a326:	f853 af04 	ldr.w	sl, [r3, #4]!
 800a32a:	9301      	str	r3, [sp, #4]
 800a32c:	fa1f f38a 	uxth.w	r3, sl
 800a330:	4619      	mov	r1, r3
 800a332:	b283      	uxth	r3, r0
 800a334:	1acb      	subs	r3, r1, r3
 800a336:	0c00      	lsrs	r0, r0, #16
 800a338:	4463      	add	r3, ip
 800a33a:	ebc0 401a 	rsb	r0, r0, sl, lsr #16
 800a33e:	eb00 4023 	add.w	r0, r0, r3, asr #16
 800a342:	b29b      	uxth	r3, r3
 800a344:	ea43 4300 	orr.w	r3, r3, r0, lsl #16
 800a348:	4576      	cmp	r6, lr
 800a34a:	f849 3b04 	str.w	r3, [r9], #4
 800a34e:	ea4f 4c20 	mov.w	ip, r0, asr #16
 800a352:	d8e5      	bhi.n	800a320 <__mdiff+0x88>
 800a354:	1b33      	subs	r3, r6, r4
 800a356:	3b15      	subs	r3, #21
 800a358:	f023 0303 	bic.w	r3, r3, #3
 800a35c:	3415      	adds	r4, #21
 800a35e:	3304      	adds	r3, #4
 800a360:	42a6      	cmp	r6, r4
 800a362:	bf38      	it	cc
 800a364:	2304      	movcc	r3, #4
 800a366:	441d      	add	r5, r3
 800a368:	445b      	add	r3, fp
 800a36a:	461e      	mov	r6, r3
 800a36c:	462c      	mov	r4, r5
 800a36e:	4544      	cmp	r4, r8
 800a370:	d30e      	bcc.n	800a390 <__mdiff+0xf8>
 800a372:	f108 0103 	add.w	r1, r8, #3
 800a376:	1b49      	subs	r1, r1, r5
 800a378:	f021 0103 	bic.w	r1, r1, #3
 800a37c:	3d03      	subs	r5, #3
 800a37e:	45a8      	cmp	r8, r5
 800a380:	bf38      	it	cc
 800a382:	2100      	movcc	r1, #0
 800a384:	440b      	add	r3, r1
 800a386:	f853 1d04 	ldr.w	r1, [r3, #-4]!
 800a38a:	b191      	cbz	r1, 800a3b2 <__mdiff+0x11a>
 800a38c:	6117      	str	r7, [r2, #16]
 800a38e:	e79d      	b.n	800a2cc <__mdiff+0x34>
 800a390:	f854 1b04 	ldr.w	r1, [r4], #4
 800a394:	46e6      	mov	lr, ip
 800a396:	0c08      	lsrs	r0, r1, #16
 800a398:	fa1c fc81 	uxtah	ip, ip, r1
 800a39c:	4471      	add	r1, lr
 800a39e:	eb00 402c 	add.w	r0, r0, ip, asr #16
 800a3a2:	b289      	uxth	r1, r1
 800a3a4:	ea41 4100 	orr.w	r1, r1, r0, lsl #16
 800a3a8:	f846 1b04 	str.w	r1, [r6], #4
 800a3ac:	ea4f 4c20 	mov.w	ip, r0, asr #16
 800a3b0:	e7dd      	b.n	800a36e <__mdiff+0xd6>
 800a3b2:	3f01      	subs	r7, #1
 800a3b4:	e7e7      	b.n	800a386 <__mdiff+0xee>
 800a3b6:	bf00      	nop
 800a3b8:	0800d728 	.word	0x0800d728
 800a3bc:	0800d739 	.word	0x0800d739

0800a3c0 <__d2b>:
 800a3c0:	e92d 43f7 	stmdb	sp!, {r0, r1, r2, r4, r5, r6, r7, r8, r9, lr}
 800a3c4:	460f      	mov	r7, r1
 800a3c6:	2101      	movs	r1, #1
 800a3c8:	ec59 8b10 	vmov	r8, r9, d0
 800a3cc:	4616      	mov	r6, r2
 800a3ce:	f7ff fcd5 	bl	8009d7c <_Balloc>
 800a3d2:	4604      	mov	r4, r0
 800a3d4:	b930      	cbnz	r0, 800a3e4 <__d2b+0x24>
 800a3d6:	4602      	mov	r2, r0
 800a3d8:	4b23      	ldr	r3, [pc, #140]	@ (800a468 <__d2b+0xa8>)
 800a3da:	4824      	ldr	r0, [pc, #144]	@ (800a46c <__d2b+0xac>)
 800a3dc:	f240 310f 	movw	r1, #783	@ 0x30f
 800a3e0:	f000 fa4a 	bl	800a878 <__assert_func>
 800a3e4:	f3c9 550a 	ubfx	r5, r9, #20, #11
 800a3e8:	f3c9 0313 	ubfx	r3, r9, #0, #20
 800a3ec:	b10d      	cbz	r5, 800a3f2 <__d2b+0x32>
 800a3ee:	f443 1380 	orr.w	r3, r3, #1048576	@ 0x100000
 800a3f2:	9301      	str	r3, [sp, #4]
 800a3f4:	f1b8 0300 	subs.w	r3, r8, #0
 800a3f8:	d023      	beq.n	800a442 <__d2b+0x82>
 800a3fa:	4668      	mov	r0, sp
 800a3fc:	9300      	str	r3, [sp, #0]
 800a3fe:	f7ff fd84 	bl	8009f0a <__lo0bits>
 800a402:	e9dd 1200 	ldrd	r1, r2, [sp]
 800a406:	b1d0      	cbz	r0, 800a43e <__d2b+0x7e>
 800a408:	f1c0 0320 	rsb	r3, r0, #32
 800a40c:	fa02 f303 	lsl.w	r3, r2, r3
 800a410:	430b      	orrs	r3, r1
 800a412:	40c2      	lsrs	r2, r0
 800a414:	6163      	str	r3, [r4, #20]
 800a416:	9201      	str	r2, [sp, #4]
 800a418:	9b01      	ldr	r3, [sp, #4]
 800a41a:	61a3      	str	r3, [r4, #24]
 800a41c:	2b00      	cmp	r3, #0
 800a41e:	bf0c      	ite	eq
 800a420:	2201      	moveq	r2, #1
 800a422:	2202      	movne	r2, #2
 800a424:	6122      	str	r2, [r4, #16]
 800a426:	b1a5      	cbz	r5, 800a452 <__d2b+0x92>
 800a428:	f2a5 4533 	subw	r5, r5, #1075	@ 0x433
 800a42c:	4405      	add	r5, r0
 800a42e:	603d      	str	r5, [r7, #0]
 800a430:	f1c0 0035 	rsb	r0, r0, #53	@ 0x35
 800a434:	6030      	str	r0, [r6, #0]
 800a436:	4620      	mov	r0, r4
 800a438:	b003      	add	sp, #12
 800a43a:	e8bd 83f0 	ldmia.w	sp!, {r4, r5, r6, r7, r8, r9, pc}
 800a43e:	6161      	str	r1, [r4, #20]
 800a440:	e7ea      	b.n	800a418 <__d2b+0x58>
 800a442:	a801      	add	r0, sp, #4
 800a444:	f7ff fd61 	bl	8009f0a <__lo0bits>
 800a448:	9b01      	ldr	r3, [sp, #4]
 800a44a:	6163      	str	r3, [r4, #20]
 800a44c:	3020      	adds	r0, #32
 800a44e:	2201      	movs	r2, #1
 800a450:	e7e8      	b.n	800a424 <__d2b+0x64>
 800a452:	eb04 0382 	add.w	r3, r4, r2, lsl #2
 800a456:	f2a0 4032 	subw	r0, r0, #1074	@ 0x432
 800a45a:	6038      	str	r0, [r7, #0]
 800a45c:	6918      	ldr	r0, [r3, #16]
 800a45e:	f7ff fd35 	bl	8009ecc <__hi0bits>
 800a462:	ebc0 1042 	rsb	r0, r0, r2, lsl #5
 800a466:	e7e5      	b.n	800a434 <__d2b+0x74>
 800a468:	0800d728 	.word	0x0800d728
 800a46c:	0800d739 	.word	0x0800d739

0800a470 <__ssputs_r>:
 800a470:	e92d 47f0 	stmdb	sp!, {r4, r5, r6, r7, r8, r9, sl, lr}
 800a474:	688e      	ldr	r6, [r1, #8]
 800a476:	461f      	mov	r7, r3
 800a478:	42be      	cmp	r6, r7
 800a47a:	680b      	ldr	r3, [r1, #0]
 800a47c:	4682      	mov	sl, r0
 800a47e:	460c      	mov	r4, r1
 800a480:	4690      	mov	r8, r2
 800a482:	d82d      	bhi.n	800a4e0 <__ssputs_r+0x70>
 800a484:	f9b1 200c 	ldrsh.w	r2, [r1, #12]
 800a488:	f412 6f90 	tst.w	r2, #1152	@ 0x480
 800a48c:	d026      	beq.n	800a4dc <__ssputs_r+0x6c>
 800a48e:	6965      	ldr	r5, [r4, #20]
 800a490:	6909      	ldr	r1, [r1, #16]
 800a492:	eb05 0545 	add.w	r5, r5, r5, lsl #1
 800a496:	eba3 0901 	sub.w	r9, r3, r1
 800a49a:	eb05 75d5 	add.w	r5, r5, r5, lsr #31
 800a49e:	1c7b      	adds	r3, r7, #1
 800a4a0:	444b      	add	r3, r9
 800a4a2:	106d      	asrs	r5, r5, #1
 800a4a4:	429d      	cmp	r5, r3
 800a4a6:	bf38      	it	cc
 800a4a8:	461d      	movcc	r5, r3
 800a4aa:	0553      	lsls	r3, r2, #21
 800a4ac:	d527      	bpl.n	800a4fe <__ssputs_r+0x8e>
 800a4ae:	4629      	mov	r1, r5
 800a4b0:	f7fd fee4 	bl	800827c <_malloc_r>
 800a4b4:	4606      	mov	r6, r0
 800a4b6:	b360      	cbz	r0, 800a512 <__ssputs_r+0xa2>
 800a4b8:	6921      	ldr	r1, [r4, #16]
 800a4ba:	464a      	mov	r2, r9
 800a4bc:	f7fe fdab 	bl	8009016 <memcpy>
 800a4c0:	89a3      	ldrh	r3, [r4, #12]
 800a4c2:	f423 6390 	bic.w	r3, r3, #1152	@ 0x480
 800a4c6:	f043 0380 	orr.w	r3, r3, #128	@ 0x80
 800a4ca:	81a3      	strh	r3, [r4, #12]
 800a4cc:	6126      	str	r6, [r4, #16]
 800a4ce:	6165      	str	r5, [r4, #20]
 800a4d0:	444e      	add	r6, r9
 800a4d2:	eba5 0509 	sub.w	r5, r5, r9
 800a4d6:	6026      	str	r6, [r4, #0]
 800a4d8:	60a5      	str	r5, [r4, #8]
 800a4da:	463e      	mov	r6, r7
 800a4dc:	42be      	cmp	r6, r7
 800a4de:	d900      	bls.n	800a4e2 <__ssputs_r+0x72>
 800a4e0:	463e      	mov	r6, r7
 800a4e2:	6820      	ldr	r0, [r4, #0]
 800a4e4:	4632      	mov	r2, r6
 800a4e6:	4641      	mov	r1, r8
 800a4e8:	f7fe fcec 	bl	8008ec4 <memmove>
 800a4ec:	68a3      	ldr	r3, [r4, #8]
 800a4ee:	1b9b      	subs	r3, r3, r6
 800a4f0:	60a3      	str	r3, [r4, #8]
 800a4f2:	6823      	ldr	r3, [r4, #0]
 800a4f4:	4433      	add	r3, r6
 800a4f6:	6023      	str	r3, [r4, #0]
 800a4f8:	2000      	movs	r0, #0
 800a4fa:	e8bd 87f0 	ldmia.w	sp!, {r4, r5, r6, r7, r8, r9, sl, pc}
 800a4fe:	462a      	mov	r2, r5
 800a500:	f000 f9fe 	bl	800a900 <_realloc_r>
 800a504:	4606      	mov	r6, r0
 800a506:	2800      	cmp	r0, #0
 800a508:	d1e0      	bne.n	800a4cc <__ssputs_r+0x5c>
 800a50a:	6921      	ldr	r1, [r4, #16]
 800a50c:	4650      	mov	r0, sl
 800a50e:	f7ff fbeb 	bl	8009ce8 <_free_r>
 800a512:	230c      	movs	r3, #12
 800a514:	f8ca 3000 	str.w	r3, [sl]
 800a518:	89a3      	ldrh	r3, [r4, #12]
 800a51a:	f043 0340 	orr.w	r3, r3, #64	@ 0x40
 800a51e:	81a3      	strh	r3, [r4, #12]
 800a520:	f04f 30ff 	mov.w	r0, #4294967295
 800a524:	e7e9      	b.n	800a4fa <__ssputs_r+0x8a>
	...

0800a528 <_svfiprintf_r>:
 800a528:	e92d 4ff0 	stmdb	sp!, {r4, r5, r6, r7, r8, r9, sl, fp, lr}
 800a52c:	4698      	mov	r8, r3
 800a52e:	898b      	ldrh	r3, [r1, #12]
 800a530:	061b      	lsls	r3, r3, #24
 800a532:	b09d      	sub	sp, #116	@ 0x74
 800a534:	4607      	mov	r7, r0
 800a536:	460d      	mov	r5, r1
 800a538:	4614      	mov	r4, r2
 800a53a:	d510      	bpl.n	800a55e <_svfiprintf_r+0x36>
 800a53c:	690b      	ldr	r3, [r1, #16]
 800a53e:	b973      	cbnz	r3, 800a55e <_svfiprintf_r+0x36>
 800a540:	2140      	movs	r1, #64	@ 0x40
 800a542:	f7fd fe9b 	bl	800827c <_malloc_r>
 800a546:	6028      	str	r0, [r5, #0]
 800a548:	6128      	str	r0, [r5, #16]
 800a54a:	b930      	cbnz	r0, 800a55a <_svfiprintf_r+0x32>
 800a54c:	230c      	movs	r3, #12
 800a54e:	603b      	str	r3, [r7, #0]
 800a550:	f04f 30ff 	mov.w	r0, #4294967295
 800a554:	b01d      	add	sp, #116	@ 0x74
 800a556:	e8bd 8ff0 	ldmia.w	sp!, {r4, r5, r6, r7, r8, r9, sl, fp, pc}
 800a55a:	2340      	movs	r3, #64	@ 0x40
 800a55c:	616b      	str	r3, [r5, #20]
 800a55e:	2300      	movs	r3, #0
 800a560:	9309      	str	r3, [sp, #36]	@ 0x24
 800a562:	2320      	movs	r3, #32
 800a564:	f88d 3029 	strb.w	r3, [sp, #41]	@ 0x29
 800a568:	f8cd 800c 	str.w	r8, [sp, #12]
 800a56c:	2330      	movs	r3, #48	@ 0x30
 800a56e:	f8df 819c 	ldr.w	r8, [pc, #412]	@ 800a70c <_svfiprintf_r+0x1e4>
 800a572:	f88d 302a 	strb.w	r3, [sp, #42]	@ 0x2a
 800a576:	f04f 0901 	mov.w	r9, #1
 800a57a:	4623      	mov	r3, r4
 800a57c:	469a      	mov	sl, r3
 800a57e:	f813 2b01 	ldrb.w	r2, [r3], #1
 800a582:	b10a      	cbz	r2, 800a588 <_svfiprintf_r+0x60>
 800a584:	2a25      	cmp	r2, #37	@ 0x25
 800a586:	d1f9      	bne.n	800a57c <_svfiprintf_r+0x54>
 800a588:	ebba 0b04 	subs.w	fp, sl, r4
 800a58c:	d00b      	beq.n	800a5a6 <_svfiprintf_r+0x7e>
 800a58e:	465b      	mov	r3, fp
 800a590:	4622      	mov	r2, r4
 800a592:	4629      	mov	r1, r5
 800a594:	4638      	mov	r0, r7
 800a596:	f7ff ff6b 	bl	800a470 <__ssputs_r>
 800a59a:	3001      	adds	r0, #1
 800a59c:	f000 80a7 	beq.w	800a6ee <_svfiprintf_r+0x1c6>
 800a5a0:	9a09      	ldr	r2, [sp, #36]	@ 0x24
 800a5a2:	445a      	add	r2, fp
 800a5a4:	9209      	str	r2, [sp, #36]	@ 0x24
 800a5a6:	f89a 3000 	ldrb.w	r3, [sl]
 800a5aa:	2b00      	cmp	r3, #0
 800a5ac:	f000 809f 	beq.w	800a6ee <_svfiprintf_r+0x1c6>
 800a5b0:	2300      	movs	r3, #0
 800a5b2:	f04f 32ff 	mov.w	r2, #4294967295
 800a5b6:	e9cd 2305 	strd	r2, r3, [sp, #20]
 800a5ba:	f10a 0a01 	add.w	sl, sl, #1
 800a5be:	9304      	str	r3, [sp, #16]
 800a5c0:	9307      	str	r3, [sp, #28]
 800a5c2:	f88d 3053 	strb.w	r3, [sp, #83]	@ 0x53
 800a5c6:	931a      	str	r3, [sp, #104]	@ 0x68
 800a5c8:	4654      	mov	r4, sl
 800a5ca:	2205      	movs	r2, #5
 800a5cc:	f814 1b01 	ldrb.w	r1, [r4], #1
 800a5d0:	484e      	ldr	r0, [pc, #312]	@ (800a70c <_svfiprintf_r+0x1e4>)
 800a5d2:	f7f5 fe1d 	bl	8000210 <memchr>
 800a5d6:	9a04      	ldr	r2, [sp, #16]
 800a5d8:	b9d8      	cbnz	r0, 800a612 <_svfiprintf_r+0xea>
 800a5da:	06d0      	lsls	r0, r2, #27
 800a5dc:	bf44      	itt	mi
 800a5de:	2320      	movmi	r3, #32
 800a5e0:	f88d 3053 	strbmi.w	r3, [sp, #83]	@ 0x53
 800a5e4:	0711      	lsls	r1, r2, #28
 800a5e6:	bf44      	itt	mi
 800a5e8:	232b      	movmi	r3, #43	@ 0x2b
 800a5ea:	f88d 3053 	strbmi.w	r3, [sp, #83]	@ 0x53
 800a5ee:	f89a 3000 	ldrb.w	r3, [sl]
 800a5f2:	2b2a      	cmp	r3, #42	@ 0x2a
 800a5f4:	d015      	beq.n	800a622 <_svfiprintf_r+0xfa>
 800a5f6:	9a07      	ldr	r2, [sp, #28]
 800a5f8:	4654      	mov	r4, sl
 800a5fa:	2000      	movs	r0, #0
 800a5fc:	f04f 0c0a 	mov.w	ip, #10
 800a600:	4621      	mov	r1, r4
 800a602:	f811 3b01 	ldrb.w	r3, [r1], #1
 800a606:	3b30      	subs	r3, #48	@ 0x30
 800a608:	2b09      	cmp	r3, #9
 800a60a:	d94b      	bls.n	800a6a4 <_svfiprintf_r+0x17c>
 800a60c:	b1b0      	cbz	r0, 800a63c <_svfiprintf_r+0x114>
 800a60e:	9207      	str	r2, [sp, #28]
 800a610:	e014      	b.n	800a63c <_svfiprintf_r+0x114>
 800a612:	eba0 0308 	sub.w	r3, r0, r8
 800a616:	fa09 f303 	lsl.w	r3, r9, r3
 800a61a:	4313      	orrs	r3, r2
 800a61c:	9304      	str	r3, [sp, #16]
 800a61e:	46a2      	mov	sl, r4
 800a620:	e7d2      	b.n	800a5c8 <_svfiprintf_r+0xa0>
 800a622:	9b03      	ldr	r3, [sp, #12]
 800a624:	1d19      	adds	r1, r3, #4
 800a626:	681b      	ldr	r3, [r3, #0]
 800a628:	9103      	str	r1, [sp, #12]
 800a62a:	2b00      	cmp	r3, #0
 800a62c:	bfbb      	ittet	lt
 800a62e:	425b      	neglt	r3, r3
 800a630:	f042 0202 	orrlt.w	r2, r2, #2
 800a634:	9307      	strge	r3, [sp, #28]
 800a636:	9307      	strlt	r3, [sp, #28]
 800a638:	bfb8      	it	lt
 800a63a:	9204      	strlt	r2, [sp, #16]
 800a63c:	7823      	ldrb	r3, [r4, #0]
 800a63e:	2b2e      	cmp	r3, #46	@ 0x2e
 800a640:	d10a      	bne.n	800a658 <_svfiprintf_r+0x130>
 800a642:	7863      	ldrb	r3, [r4, #1]
 800a644:	2b2a      	cmp	r3, #42	@ 0x2a
 800a646:	d132      	bne.n	800a6ae <_svfiprintf_r+0x186>
 800a648:	9b03      	ldr	r3, [sp, #12]
 800a64a:	1d1a      	adds	r2, r3, #4
 800a64c:	681b      	ldr	r3, [r3, #0]
 800a64e:	9203      	str	r2, [sp, #12]
 800a650:	ea43 73e3 	orr.w	r3, r3, r3, asr #31
 800a654:	3402      	adds	r4, #2
 800a656:	9305      	str	r3, [sp, #20]
 800a658:	f8df a0c0 	ldr.w	sl, [pc, #192]	@ 800a71c <_svfiprintf_r+0x1f4>
 800a65c:	7821      	ldrb	r1, [r4, #0]
 800a65e:	2203      	movs	r2, #3
 800a660:	4650      	mov	r0, sl
 800a662:	f7f5 fdd5 	bl	8000210 <memchr>
 800a666:	b138      	cbz	r0, 800a678 <_svfiprintf_r+0x150>
 800a668:	9b04      	ldr	r3, [sp, #16]
 800a66a:	eba0 000a 	sub.w	r0, r0, sl
 800a66e:	2240      	movs	r2, #64	@ 0x40
 800a670:	4082      	lsls	r2, r0
 800a672:	4313      	orrs	r3, r2
 800a674:	3401      	adds	r4, #1
 800a676:	9304      	str	r3, [sp, #16]
 800a678:	f814 1b01 	ldrb.w	r1, [r4], #1
 800a67c:	4824      	ldr	r0, [pc, #144]	@ (800a710 <_svfiprintf_r+0x1e8>)
 800a67e:	f88d 1028 	strb.w	r1, [sp, #40]	@ 0x28
 800a682:	2206      	movs	r2, #6
 800a684:	f7f5 fdc4 	bl	8000210 <memchr>
 800a688:	2800      	cmp	r0, #0
 800a68a:	d036      	beq.n	800a6fa <_svfiprintf_r+0x1d2>
 800a68c:	4b21      	ldr	r3, [pc, #132]	@ (800a714 <_svfiprintf_r+0x1ec>)
 800a68e:	bb1b      	cbnz	r3, 800a6d8 <_svfiprintf_r+0x1b0>
 800a690:	9b03      	ldr	r3, [sp, #12]
 800a692:	3307      	adds	r3, #7
 800a694:	f023 0307 	bic.w	r3, r3, #7
 800a698:	3308      	adds	r3, #8
 800a69a:	9303      	str	r3, [sp, #12]
 800a69c:	9b09      	ldr	r3, [sp, #36]	@ 0x24
 800a69e:	4433      	add	r3, r6
 800a6a0:	9309      	str	r3, [sp, #36]	@ 0x24
 800a6a2:	e76a      	b.n	800a57a <_svfiprintf_r+0x52>
 800a6a4:	fb0c 3202 	mla	r2, ip, r2, r3
 800a6a8:	460c      	mov	r4, r1
 800a6aa:	2001      	movs	r0, #1
 800a6ac:	e7a8      	b.n	800a600 <_svfiprintf_r+0xd8>
 800a6ae:	2300      	movs	r3, #0
 800a6b0:	3401      	adds	r4, #1
 800a6b2:	9305      	str	r3, [sp, #20]
 800a6b4:	4619      	mov	r1, r3
 800a6b6:	f04f 0c0a 	mov.w	ip, #10
 800a6ba:	4620      	mov	r0, r4
 800a6bc:	f810 2b01 	ldrb.w	r2, [r0], #1
 800a6c0:	3a30      	subs	r2, #48	@ 0x30
 800a6c2:	2a09      	cmp	r2, #9
 800a6c4:	d903      	bls.n	800a6ce <_svfiprintf_r+0x1a6>
 800a6c6:	2b00      	cmp	r3, #0
 800a6c8:	d0c6      	beq.n	800a658 <_svfiprintf_r+0x130>
 800a6ca:	9105      	str	r1, [sp, #20]
 800a6cc:	e7c4      	b.n	800a658 <_svfiprintf_r+0x130>
 800a6ce:	fb0c 2101 	mla	r1, ip, r1, r2
 800a6d2:	4604      	mov	r4, r0
 800a6d4:	2301      	movs	r3, #1
 800a6d6:	e7f0      	b.n	800a6ba <_svfiprintf_r+0x192>
 800a6d8:	ab03      	add	r3, sp, #12
 800a6da:	9300      	str	r3, [sp, #0]
 800a6dc:	462a      	mov	r2, r5
 800a6de:	4b0e      	ldr	r3, [pc, #56]	@ (800a718 <_svfiprintf_r+0x1f0>)
 800a6e0:	a904      	add	r1, sp, #16
 800a6e2:	4638      	mov	r0, r7
 800a6e4:	f7fd fef6 	bl	80084d4 <_printf_float>
 800a6e8:	1c42      	adds	r2, r0, #1
 800a6ea:	4606      	mov	r6, r0
 800a6ec:	d1d6      	bne.n	800a69c <_svfiprintf_r+0x174>
 800a6ee:	89ab      	ldrh	r3, [r5, #12]
 800a6f0:	065b      	lsls	r3, r3, #25
 800a6f2:	f53f af2d 	bmi.w	800a550 <_svfiprintf_r+0x28>
 800a6f6:	9809      	ldr	r0, [sp, #36]	@ 0x24
 800a6f8:	e72c      	b.n	800a554 <_svfiprintf_r+0x2c>
 800a6fa:	ab03      	add	r3, sp, #12
 800a6fc:	9300      	str	r3, [sp, #0]
 800a6fe:	462a      	mov	r2, r5
 800a700:	4b05      	ldr	r3, [pc, #20]	@ (800a718 <_svfiprintf_r+0x1f0>)
 800a702:	a904      	add	r1, sp, #16
 800a704:	4638      	mov	r0, r7
 800a706:	f7fe f97d 	bl	8008a04 <_printf_i>
 800a70a:	e7ed      	b.n	800a6e8 <_svfiprintf_r+0x1c0>
 800a70c:	0800d792 	.word	0x0800d792
 800a710:	0800d79c 	.word	0x0800d79c
 800a714:	080084d5 	.word	0x080084d5
 800a718:	0800a471 	.word	0x0800a471
 800a71c:	0800d798 	.word	0x0800d798

0800a720 <__sflush_r>:
 800a720:	f9b1 200c 	ldrsh.w	r2, [r1, #12]
 800a724:	e92d 41f0 	stmdb	sp!, {r4, r5, r6, r7, r8, lr}
 800a728:	0716      	lsls	r6, r2, #28
 800a72a:	4605      	mov	r5, r0
 800a72c:	460c      	mov	r4, r1
 800a72e:	d454      	bmi.n	800a7da <__sflush_r+0xba>
 800a730:	684b      	ldr	r3, [r1, #4]
 800a732:	2b00      	cmp	r3, #0
 800a734:	dc02      	bgt.n	800a73c <__sflush_r+0x1c>
 800a736:	6c0b      	ldr	r3, [r1, #64]	@ 0x40
 800a738:	2b00      	cmp	r3, #0
 800a73a:	dd48      	ble.n	800a7ce <__sflush_r+0xae>
 800a73c:	6ae6      	ldr	r6, [r4, #44]	@ 0x2c
 800a73e:	2e00      	cmp	r6, #0
 800a740:	d045      	beq.n	800a7ce <__sflush_r+0xae>
 800a742:	2300      	movs	r3, #0
 800a744:	f412 5280 	ands.w	r2, r2, #4096	@ 0x1000
 800a748:	682f      	ldr	r7, [r5, #0]
 800a74a:	6a21      	ldr	r1, [r4, #32]
 800a74c:	602b      	str	r3, [r5, #0]
 800a74e:	d030      	beq.n	800a7b2 <__sflush_r+0x92>
 800a750:	6d62      	ldr	r2, [r4, #84]	@ 0x54
 800a752:	89a3      	ldrh	r3, [r4, #12]
 800a754:	0759      	lsls	r1, r3, #29
 800a756:	d505      	bpl.n	800a764 <__sflush_r+0x44>
 800a758:	6863      	ldr	r3, [r4, #4]
 800a75a:	1ad2      	subs	r2, r2, r3
 800a75c:	6b63      	ldr	r3, [r4, #52]	@ 0x34
 800a75e:	b10b      	cbz	r3, 800a764 <__sflush_r+0x44>
 800a760:	6c23      	ldr	r3, [r4, #64]	@ 0x40
 800a762:	1ad2      	subs	r2, r2, r3
 800a764:	2300      	movs	r3, #0
 800a766:	6ae6      	ldr	r6, [r4, #44]	@ 0x2c
 800a768:	6a21      	ldr	r1, [r4, #32]
 800a76a:	4628      	mov	r0, r5
 800a76c:	47b0      	blx	r6
 800a76e:	1c43      	adds	r3, r0, #1
 800a770:	89a3      	ldrh	r3, [r4, #12]
 800a772:	d106      	bne.n	800a782 <__sflush_r+0x62>
 800a774:	6829      	ldr	r1, [r5, #0]
 800a776:	291d      	cmp	r1, #29
 800a778:	d82b      	bhi.n	800a7d2 <__sflush_r+0xb2>
 800a77a:	4a2a      	ldr	r2, [pc, #168]	@ (800a824 <__sflush_r+0x104>)
 800a77c:	40ca      	lsrs	r2, r1
 800a77e:	07d6      	lsls	r6, r2, #31
 800a780:	d527      	bpl.n	800a7d2 <__sflush_r+0xb2>
 800a782:	2200      	movs	r2, #0
 800a784:	6062      	str	r2, [r4, #4]
 800a786:	04d9      	lsls	r1, r3, #19
 800a788:	6922      	ldr	r2, [r4, #16]
 800a78a:	6022      	str	r2, [r4, #0]
 800a78c:	d504      	bpl.n	800a798 <__sflush_r+0x78>
 800a78e:	1c42      	adds	r2, r0, #1
 800a790:	d101      	bne.n	800a796 <__sflush_r+0x76>
 800a792:	682b      	ldr	r3, [r5, #0]
 800a794:	b903      	cbnz	r3, 800a798 <__sflush_r+0x78>
 800a796:	6560      	str	r0, [r4, #84]	@ 0x54
 800a798:	6b61      	ldr	r1, [r4, #52]	@ 0x34
 800a79a:	602f      	str	r7, [r5, #0]
 800a79c:	b1b9      	cbz	r1, 800a7ce <__sflush_r+0xae>
 800a79e:	f104 0344 	add.w	r3, r4, #68	@ 0x44
 800a7a2:	4299      	cmp	r1, r3
 800a7a4:	d002      	beq.n	800a7ac <__sflush_r+0x8c>
 800a7a6:	4628      	mov	r0, r5
 800a7a8:	f7ff fa9e 	bl	8009ce8 <_free_r>
 800a7ac:	2300      	movs	r3, #0
 800a7ae:	6363      	str	r3, [r4, #52]	@ 0x34
 800a7b0:	e00d      	b.n	800a7ce <__sflush_r+0xae>
 800a7b2:	2301      	movs	r3, #1
 800a7b4:	4628      	mov	r0, r5
 800a7b6:	47b0      	blx	r6
 800a7b8:	4602      	mov	r2, r0
 800a7ba:	1c50      	adds	r0, r2, #1
 800a7bc:	d1c9      	bne.n	800a752 <__sflush_r+0x32>
 800a7be:	682b      	ldr	r3, [r5, #0]
 800a7c0:	2b00      	cmp	r3, #0
 800a7c2:	d0c6      	beq.n	800a752 <__sflush_r+0x32>
 800a7c4:	2b1d      	cmp	r3, #29
 800a7c6:	d001      	beq.n	800a7cc <__sflush_r+0xac>
 800a7c8:	2b16      	cmp	r3, #22
 800a7ca:	d11e      	bne.n	800a80a <__sflush_r+0xea>
 800a7cc:	602f      	str	r7, [r5, #0]
 800a7ce:	2000      	movs	r0, #0
 800a7d0:	e022      	b.n	800a818 <__sflush_r+0xf8>
 800a7d2:	f043 0340 	orr.w	r3, r3, #64	@ 0x40
 800a7d6:	b21b      	sxth	r3, r3
 800a7d8:	e01b      	b.n	800a812 <__sflush_r+0xf2>
 800a7da:	690f      	ldr	r7, [r1, #16]
 800a7dc:	2f00      	cmp	r7, #0
 800a7de:	d0f6      	beq.n	800a7ce <__sflush_r+0xae>
 800a7e0:	0793      	lsls	r3, r2, #30
 800a7e2:	680e      	ldr	r6, [r1, #0]
 800a7e4:	bf08      	it	eq
 800a7e6:	694b      	ldreq	r3, [r1, #20]
 800a7e8:	600f      	str	r7, [r1, #0]
 800a7ea:	bf18      	it	ne
 800a7ec:	2300      	movne	r3, #0
 800a7ee:	eba6 0807 	sub.w	r8, r6, r7
 800a7f2:	608b      	str	r3, [r1, #8]
 800a7f4:	f1b8 0f00 	cmp.w	r8, #0
 800a7f8:	dde9      	ble.n	800a7ce <__sflush_r+0xae>
 800a7fa:	6a21      	ldr	r1, [r4, #32]
 800a7fc:	6aa6      	ldr	r6, [r4, #40]	@ 0x28
 800a7fe:	4643      	mov	r3, r8
 800a800:	463a      	mov	r2, r7
 800a802:	4628      	mov	r0, r5
 800a804:	47b0      	blx	r6
 800a806:	2800      	cmp	r0, #0
 800a808:	dc08      	bgt.n	800a81c <__sflush_r+0xfc>
 800a80a:	f9b4 300c 	ldrsh.w	r3, [r4, #12]
 800a80e:	f043 0340 	orr.w	r3, r3, #64	@ 0x40
 800a812:	81a3      	strh	r3, [r4, #12]
 800a814:	f04f 30ff 	mov.w	r0, #4294967295
 800a818:	e8bd 81f0 	ldmia.w	sp!, {r4, r5, r6, r7, r8, pc}
 800a81c:	4407      	add	r7, r0
 800a81e:	eba8 0800 	sub.w	r8, r8, r0
 800a822:	e7e7      	b.n	800a7f4 <__sflush_r+0xd4>
 800a824:	20400001 	.word	0x20400001

0800a828 <_fflush_r>:
 800a828:	b538      	push	{r3, r4, r5, lr}
 800a82a:	690b      	ldr	r3, [r1, #16]
 800a82c:	4605      	mov	r5, r0
 800a82e:	460c      	mov	r4, r1
 800a830:	b913      	cbnz	r3, 800a838 <_fflush_r+0x10>
 800a832:	2500      	movs	r5, #0
 800a834:	4628      	mov	r0, r5
 800a836:	bd38      	pop	{r3, r4, r5, pc}
 800a838:	b118      	cbz	r0, 800a842 <_fflush_r+0x1a>
 800a83a:	6a03      	ldr	r3, [r0, #32]
 800a83c:	b90b      	cbnz	r3, 800a842 <_fflush_r+0x1a>
 800a83e:	f7fe fa8b 	bl	8008d58 <__sinit>
 800a842:	f9b4 300c 	ldrsh.w	r3, [r4, #12]
 800a846:	2b00      	cmp	r3, #0
 800a848:	d0f3      	beq.n	800a832 <_fflush_r+0xa>
 800a84a:	6e62      	ldr	r2, [r4, #100]	@ 0x64
 800a84c:	07d0      	lsls	r0, r2, #31
 800a84e:	d404      	bmi.n	800a85a <_fflush_r+0x32>
 800a850:	0599      	lsls	r1, r3, #22
 800a852:	d402      	bmi.n	800a85a <_fflush_r+0x32>
 800a854:	6da0      	ldr	r0, [r4, #88]	@ 0x58
 800a856:	f7fe fbdc 	bl	8009012 <__retarget_lock_acquire_recursive>
 800a85a:	4628      	mov	r0, r5
 800a85c:	4621      	mov	r1, r4
 800a85e:	f7ff ff5f 	bl	800a720 <__sflush_r>
 800a862:	6e63      	ldr	r3, [r4, #100]	@ 0x64
 800a864:	07da      	lsls	r2, r3, #31
 800a866:	4605      	mov	r5, r0
 800a868:	d4e4      	bmi.n	800a834 <_fflush_r+0xc>
 800a86a:	89a3      	ldrh	r3, [r4, #12]
 800a86c:	059b      	lsls	r3, r3, #22
 800a86e:	d4e1      	bmi.n	800a834 <_fflush_r+0xc>
 800a870:	6da0      	ldr	r0, [r4, #88]	@ 0x58
 800a872:	f7fe fbcf 	bl	8009014 <__retarget_lock_release_recursive>
 800a876:	e7dd      	b.n	800a834 <_fflush_r+0xc>

0800a878 <__assert_func>:
 800a878:	b51f      	push	{r0, r1, r2, r3, r4, lr}
 800a87a:	4614      	mov	r4, r2
 800a87c:	461a      	mov	r2, r3
 800a87e:	4b09      	ldr	r3, [pc, #36]	@ (800a8a4 <__assert_func+0x2c>)
 800a880:	681b      	ldr	r3, [r3, #0]
 800a882:	4605      	mov	r5, r0
 800a884:	68d8      	ldr	r0, [r3, #12]
 800a886:	b14c      	cbz	r4, 800a89c <__assert_func+0x24>
 800a888:	4b07      	ldr	r3, [pc, #28]	@ (800a8a8 <__assert_func+0x30>)
 800a88a:	9100      	str	r1, [sp, #0]
 800a88c:	e9cd 3401 	strd	r3, r4, [sp, #4]
 800a890:	4906      	ldr	r1, [pc, #24]	@ (800a8ac <__assert_func+0x34>)
 800a892:	462b      	mov	r3, r5
 800a894:	f000 f870 	bl	800a978 <fiprintf>
 800a898:	f000 f880 	bl	800a99c <abort>
 800a89c:	4b04      	ldr	r3, [pc, #16]	@ (800a8b0 <__assert_func+0x38>)
 800a89e:	461c      	mov	r4, r3
 800a8a0:	e7f3      	b.n	800a88a <__assert_func+0x12>
 800a8a2:	bf00      	nop
 800a8a4:	2000016c 	.word	0x2000016c
 800a8a8:	0800d7ad 	.word	0x0800d7ad
 800a8ac:	0800d7ba 	.word	0x0800d7ba
 800a8b0:	0800d7e8 	.word	0x0800d7e8

0800a8b4 <_calloc_r>:
 800a8b4:	b570      	push	{r4, r5, r6, lr}
 800a8b6:	fba1 5402 	umull	r5, r4, r1, r2
 800a8ba:	b934      	cbnz	r4, 800a8ca <_calloc_r+0x16>
 800a8bc:	4629      	mov	r1, r5
 800a8be:	f7fd fcdd 	bl	800827c <_malloc_r>
 800a8c2:	4606      	mov	r6, r0
 800a8c4:	b928      	cbnz	r0, 800a8d2 <_calloc_r+0x1e>
 800a8c6:	4630      	mov	r0, r6
 800a8c8:	bd70      	pop	{r4, r5, r6, pc}
 800a8ca:	220c      	movs	r2, #12
 800a8cc:	6002      	str	r2, [r0, #0]
 800a8ce:	2600      	movs	r6, #0
 800a8d0:	e7f9      	b.n	800a8c6 <_calloc_r+0x12>
 800a8d2:	462a      	mov	r2, r5
 800a8d4:	4621      	mov	r1, r4
 800a8d6:	f7fe fb0f 	bl	8008ef8 <memset>
 800a8da:	e7f4      	b.n	800a8c6 <_calloc_r+0x12>

0800a8dc <__ascii_mbtowc>:
 800a8dc:	b082      	sub	sp, #8
 800a8de:	b901      	cbnz	r1, 800a8e2 <__ascii_mbtowc+0x6>
 800a8e0:	a901      	add	r1, sp, #4
 800a8e2:	b142      	cbz	r2, 800a8f6 <__ascii_mbtowc+0x1a>
 800a8e4:	b14b      	cbz	r3, 800a8fa <__ascii_mbtowc+0x1e>
 800a8e6:	7813      	ldrb	r3, [r2, #0]
 800a8e8:	600b      	str	r3, [r1, #0]
 800a8ea:	7812      	ldrb	r2, [r2, #0]
 800a8ec:	1e10      	subs	r0, r2, #0
 800a8ee:	bf18      	it	ne
 800a8f0:	2001      	movne	r0, #1
 800a8f2:	b002      	add	sp, #8
 800a8f4:	4770      	bx	lr
 800a8f6:	4610      	mov	r0, r2
 800a8f8:	e7fb      	b.n	800a8f2 <__ascii_mbtowc+0x16>
 800a8fa:	f06f 0001 	mvn.w	r0, #1
 800a8fe:	e7f8      	b.n	800a8f2 <__ascii_mbtowc+0x16>

0800a900 <_realloc_r>:
 800a900:	e92d 41f0 	stmdb	sp!, {r4, r5, r6, r7, r8, lr}
 800a904:	4607      	mov	r7, r0
 800a906:	4614      	mov	r4, r2
 800a908:	460d      	mov	r5, r1
 800a90a:	b921      	cbnz	r1, 800a916 <_realloc_r+0x16>
 800a90c:	e8bd 41f0 	ldmia.w	sp!, {r4, r5, r6, r7, r8, lr}
 800a910:	4611      	mov	r1, r2
 800a912:	f7fd bcb3 	b.w	800827c <_malloc_r>
 800a916:	b92a      	cbnz	r2, 800a924 <_realloc_r+0x24>
 800a918:	f7ff f9e6 	bl	8009ce8 <_free_r>
 800a91c:	4625      	mov	r5, r4
 800a91e:	4628      	mov	r0, r5
 800a920:	e8bd 81f0 	ldmia.w	sp!, {r4, r5, r6, r7, r8, pc}
 800a924:	f000 f841 	bl	800a9aa <_malloc_usable_size_r>
 800a928:	4284      	cmp	r4, r0
 800a92a:	4606      	mov	r6, r0
 800a92c:	d802      	bhi.n	800a934 <_realloc_r+0x34>
 800a92e:	ebb4 0f50 	cmp.w	r4, r0, lsr #1
 800a932:	d8f4      	bhi.n	800a91e <_realloc_r+0x1e>
 800a934:	4621      	mov	r1, r4
 800a936:	4638      	mov	r0, r7
 800a938:	f7fd fca0 	bl	800827c <_malloc_r>
 800a93c:	4680      	mov	r8, r0
 800a93e:	b908      	cbnz	r0, 800a944 <_realloc_r+0x44>
 800a940:	4645      	mov	r5, r8
 800a942:	e7ec      	b.n	800a91e <_realloc_r+0x1e>
 800a944:	42b4      	cmp	r4, r6
 800a946:	4622      	mov	r2, r4
 800a948:	4629      	mov	r1, r5
 800a94a:	bf28      	it	cs
 800a94c:	4632      	movcs	r2, r6
 800a94e:	f7fe fb62 	bl	8009016 <memcpy>
 800a952:	4629      	mov	r1, r5
 800a954:	4638      	mov	r0, r7
 800a956:	f7ff f9c7 	bl	8009ce8 <_free_r>
 800a95a:	e7f1      	b.n	800a940 <_realloc_r+0x40>

0800a95c <__ascii_wctomb>:
 800a95c:	4603      	mov	r3, r0
 800a95e:	4608      	mov	r0, r1
 800a960:	b141      	cbz	r1, 800a974 <__ascii_wctomb+0x18>
 800a962:	2aff      	cmp	r2, #255	@ 0xff
 800a964:	d904      	bls.n	800a970 <__ascii_wctomb+0x14>
 800a966:	228a      	movs	r2, #138	@ 0x8a
 800a968:	601a      	str	r2, [r3, #0]
 800a96a:	f04f 30ff 	mov.w	r0, #4294967295
 800a96e:	4770      	bx	lr
 800a970:	700a      	strb	r2, [r1, #0]
 800a972:	2001      	movs	r0, #1
 800a974:	4770      	bx	lr
	...

0800a978 <fiprintf>:
 800a978:	b40e      	push	{r1, r2, r3}
 800a97a:	b503      	push	{r0, r1, lr}
 800a97c:	4601      	mov	r1, r0
 800a97e:	ab03      	add	r3, sp, #12
 800a980:	4805      	ldr	r0, [pc, #20]	@ (800a998 <fiprintf+0x20>)
 800a982:	f853 2b04 	ldr.w	r2, [r3], #4
 800a986:	6800      	ldr	r0, [r0, #0]
 800a988:	9301      	str	r3, [sp, #4]
 800a98a:	f000 f83f 	bl	800aa0c <_vfiprintf_r>
 800a98e:	b002      	add	sp, #8
 800a990:	f85d eb04 	ldr.w	lr, [sp], #4
 800a994:	b003      	add	sp, #12
 800a996:	4770      	bx	lr
 800a998:	2000016c 	.word	0x2000016c

0800a99c <abort>:
 800a99c:	b508      	push	{r3, lr}
 800a99e:	2006      	movs	r0, #6
 800a9a0:	f000 fa08 	bl	800adb4 <raise>
 800a9a4:	2001      	movs	r0, #1
 800a9a6:	f7f7 ffcd 	bl	8002944 <_exit>

0800a9aa <_malloc_usable_size_r>:
 800a9aa:	f851 3c04 	ldr.w	r3, [r1, #-4]
 800a9ae:	1f18      	subs	r0, r3, #4
 800a9b0:	2b00      	cmp	r3, #0
 800a9b2:	bfbc      	itt	lt
 800a9b4:	580b      	ldrlt	r3, [r1, r0]
 800a9b6:	18c0      	addlt	r0, r0, r3
 800a9b8:	4770      	bx	lr

0800a9ba <__sfputc_r>:
 800a9ba:	6893      	ldr	r3, [r2, #8]
 800a9bc:	3b01      	subs	r3, #1
 800a9be:	2b00      	cmp	r3, #0
 800a9c0:	b410      	push	{r4}
 800a9c2:	6093      	str	r3, [r2, #8]
 800a9c4:	da08      	bge.n	800a9d8 <__sfputc_r+0x1e>
 800a9c6:	6994      	ldr	r4, [r2, #24]
 800a9c8:	42a3      	cmp	r3, r4
 800a9ca:	db01      	blt.n	800a9d0 <__sfputc_r+0x16>
 800a9cc:	290a      	cmp	r1, #10
 800a9ce:	d103      	bne.n	800a9d8 <__sfputc_r+0x1e>
 800a9d0:	f85d 4b04 	ldr.w	r4, [sp], #4
 800a9d4:	f000 b932 	b.w	800ac3c <__swbuf_r>
 800a9d8:	6813      	ldr	r3, [r2, #0]
 800a9da:	1c58      	adds	r0, r3, #1
 800a9dc:	6010      	str	r0, [r2, #0]
 800a9de:	7019      	strb	r1, [r3, #0]
 800a9e0:	4608      	mov	r0, r1
 800a9e2:	f85d 4b04 	ldr.w	r4, [sp], #4
 800a9e6:	4770      	bx	lr

0800a9e8 <__sfputs_r>:
 800a9e8:	b5f8      	push	{r3, r4, r5, r6, r7, lr}
 800a9ea:	4606      	mov	r6, r0
 800a9ec:	460f      	mov	r7, r1
 800a9ee:	4614      	mov	r4, r2
 800a9f0:	18d5      	adds	r5, r2, r3
 800a9f2:	42ac      	cmp	r4, r5
 800a9f4:	d101      	bne.n	800a9fa <__sfputs_r+0x12>
 800a9f6:	2000      	movs	r0, #0
 800a9f8:	e007      	b.n	800aa0a <__sfputs_r+0x22>
 800a9fa:	f814 1b01 	ldrb.w	r1, [r4], #1
 800a9fe:	463a      	mov	r2, r7
 800aa00:	4630      	mov	r0, r6
 800aa02:	f7ff ffda 	bl	800a9ba <__sfputc_r>
 800aa06:	1c43      	adds	r3, r0, #1
 800aa08:	d1f3      	bne.n	800a9f2 <__sfputs_r+0xa>
 800aa0a:	bdf8      	pop	{r3, r4, r5, r6, r7, pc}

0800aa0c <_vfiprintf_r>:
 800aa0c:	e92d 4ff0 	stmdb	sp!, {r4, r5, r6, r7, r8, r9, sl, fp, lr}
 800aa10:	460d      	mov	r5, r1
 800aa12:	b09d      	sub	sp, #116	@ 0x74
 800aa14:	4614      	mov	r4, r2
 800aa16:	4698      	mov	r8, r3
 800aa18:	4606      	mov	r6, r0
 800aa1a:	b118      	cbz	r0, 800aa24 <_vfiprintf_r+0x18>
 800aa1c:	6a03      	ldr	r3, [r0, #32]
 800aa1e:	b90b      	cbnz	r3, 800aa24 <_vfiprintf_r+0x18>
 800aa20:	f7fe f99a 	bl	8008d58 <__sinit>
 800aa24:	6e6b      	ldr	r3, [r5, #100]	@ 0x64
 800aa26:	07d9      	lsls	r1, r3, #31
 800aa28:	d405      	bmi.n	800aa36 <_vfiprintf_r+0x2a>
 800aa2a:	89ab      	ldrh	r3, [r5, #12]
 800aa2c:	059a      	lsls	r2, r3, #22
 800aa2e:	d402      	bmi.n	800aa36 <_vfiprintf_r+0x2a>
 800aa30:	6da8      	ldr	r0, [r5, #88]	@ 0x58
 800aa32:	f7fe faee 	bl	8009012 <__retarget_lock_acquire_recursive>
 800aa36:	89ab      	ldrh	r3, [r5, #12]
 800aa38:	071b      	lsls	r3, r3, #28
 800aa3a:	d501      	bpl.n	800aa40 <_vfiprintf_r+0x34>
 800aa3c:	692b      	ldr	r3, [r5, #16]
 800aa3e:	b99b      	cbnz	r3, 800aa68 <_vfiprintf_r+0x5c>
 800aa40:	4629      	mov	r1, r5
 800aa42:	4630      	mov	r0, r6
 800aa44:	f000 f938 	bl	800acb8 <__swsetup_r>
 800aa48:	b170      	cbz	r0, 800aa68 <_vfiprintf_r+0x5c>
 800aa4a:	6e6b      	ldr	r3, [r5, #100]	@ 0x64
 800aa4c:	07dc      	lsls	r4, r3, #31
 800aa4e:	d504      	bpl.n	800aa5a <_vfiprintf_r+0x4e>
 800aa50:	f04f 30ff 	mov.w	r0, #4294967295
 800aa54:	b01d      	add	sp, #116	@ 0x74
 800aa56:	e8bd 8ff0 	ldmia.w	sp!, {r4, r5, r6, r7, r8, r9, sl, fp, pc}
 800aa5a:	89ab      	ldrh	r3, [r5, #12]
 800aa5c:	0598      	lsls	r0, r3, #22
 800aa5e:	d4f7      	bmi.n	800aa50 <_vfiprintf_r+0x44>
 800aa60:	6da8      	ldr	r0, [r5, #88]	@ 0x58
 800aa62:	f7fe fad7 	bl	8009014 <__retarget_lock_release_recursive>
 800aa66:	e7f3      	b.n	800aa50 <_vfiprintf_r+0x44>
 800aa68:	2300      	movs	r3, #0
 800aa6a:	9309      	str	r3, [sp, #36]	@ 0x24
 800aa6c:	2320      	movs	r3, #32
 800aa6e:	f88d 3029 	strb.w	r3, [sp, #41]	@ 0x29
 800aa72:	f8cd 800c 	str.w	r8, [sp, #12]
 800aa76:	2330      	movs	r3, #48	@ 0x30
 800aa78:	f8df 81ac 	ldr.w	r8, [pc, #428]	@ 800ac28 <_vfiprintf_r+0x21c>
 800aa7c:	f88d 302a 	strb.w	r3, [sp, #42]	@ 0x2a
 800aa80:	f04f 0901 	mov.w	r9, #1
 800aa84:	4623      	mov	r3, r4
 800aa86:	469a      	mov	sl, r3
 800aa88:	f813 2b01 	ldrb.w	r2, [r3], #1
 800aa8c:	b10a      	cbz	r2, 800aa92 <_vfiprintf_r+0x86>
 800aa8e:	2a25      	cmp	r2, #37	@ 0x25
 800aa90:	d1f9      	bne.n	800aa86 <_vfiprintf_r+0x7a>
 800aa92:	ebba 0b04 	subs.w	fp, sl, r4
 800aa96:	d00b      	beq.n	800aab0 <_vfiprintf_r+0xa4>
 800aa98:	465b      	mov	r3, fp
 800aa9a:	4622      	mov	r2, r4
 800aa9c:	4629      	mov	r1, r5
 800aa9e:	4630      	mov	r0, r6
 800aaa0:	f7ff ffa2 	bl	800a9e8 <__sfputs_r>
 800aaa4:	3001      	adds	r0, #1
 800aaa6:	f000 80a7 	beq.w	800abf8 <_vfiprintf_r+0x1ec>
 800aaaa:	9a09      	ldr	r2, [sp, #36]	@ 0x24
 800aaac:	445a      	add	r2, fp
 800aaae:	9209      	str	r2, [sp, #36]	@ 0x24
 800aab0:	f89a 3000 	ldrb.w	r3, [sl]
 800aab4:	2b00      	cmp	r3, #0
 800aab6:	f000 809f 	beq.w	800abf8 <_vfiprintf_r+0x1ec>
 800aaba:	2300      	movs	r3, #0
 800aabc:	f04f 32ff 	mov.w	r2, #4294967295
 800aac0:	e9cd 2305 	strd	r2, r3, [sp, #20]
 800aac4:	f10a 0a01 	add.w	sl, sl, #1
 800aac8:	9304      	str	r3, [sp, #16]
 800aaca:	9307      	str	r3, [sp, #28]
 800aacc:	f88d 3053 	strb.w	r3, [sp, #83]	@ 0x53
 800aad0:	931a      	str	r3, [sp, #104]	@ 0x68
 800aad2:	4654      	mov	r4, sl
 800aad4:	2205      	movs	r2, #5
 800aad6:	f814 1b01 	ldrb.w	r1, [r4], #1
 800aada:	4853      	ldr	r0, [pc, #332]	@ (800ac28 <_vfiprintf_r+0x21c>)
 800aadc:	f7f5 fb98 	bl	8000210 <memchr>
 800aae0:	9a04      	ldr	r2, [sp, #16]
 800aae2:	b9d8      	cbnz	r0, 800ab1c <_vfiprintf_r+0x110>
 800aae4:	06d1      	lsls	r1, r2, #27
 800aae6:	bf44      	itt	mi
 800aae8:	2320      	movmi	r3, #32
 800aaea:	f88d 3053 	strbmi.w	r3, [sp, #83]	@ 0x53
 800aaee:	0713      	lsls	r3, r2, #28
 800aaf0:	bf44      	itt	mi
 800aaf2:	232b      	movmi	r3, #43	@ 0x2b
 800aaf4:	f88d 3053 	strbmi.w	r3, [sp, #83]	@ 0x53
 800aaf8:	f89a 3000 	ldrb.w	r3, [sl]
 800aafc:	2b2a      	cmp	r3, #42	@ 0x2a
 800aafe:	d015      	beq.n	800ab2c <_vfiprintf_r+0x120>
 800ab00:	9a07      	ldr	r2, [sp, #28]
 800ab02:	4654      	mov	r4, sl
 800ab04:	2000      	movs	r0, #0
 800ab06:	f04f 0c0a 	mov.w	ip, #10
 800ab0a:	4621      	mov	r1, r4
 800ab0c:	f811 3b01 	ldrb.w	r3, [r1], #1
 800ab10:	3b30      	subs	r3, #48	@ 0x30
 800ab12:	2b09      	cmp	r3, #9
 800ab14:	d94b      	bls.n	800abae <_vfiprintf_r+0x1a2>
 800ab16:	b1b0      	cbz	r0, 800ab46 <_vfiprintf_r+0x13a>
 800ab18:	9207      	str	r2, [sp, #28]
 800ab1a:	e014      	b.n	800ab46 <_vfiprintf_r+0x13a>
 800ab1c:	eba0 0308 	sub.w	r3, r0, r8
 800ab20:	fa09 f303 	lsl.w	r3, r9, r3
 800ab24:	4313      	orrs	r3, r2
 800ab26:	9304      	str	r3, [sp, #16]
 800ab28:	46a2      	mov	sl, r4
 800ab2a:	e7d2      	b.n	800aad2 <_vfiprintf_r+0xc6>
 800ab2c:	9b03      	ldr	r3, [sp, #12]
 800ab2e:	1d19      	adds	r1, r3, #4
 800ab30:	681b      	ldr	r3, [r3, #0]
 800ab32:	9103      	str	r1, [sp, #12]
 800ab34:	2b00      	cmp	r3, #0
 800ab36:	bfbb      	ittet	lt
 800ab38:	425b      	neglt	r3, r3
 800ab3a:	f042 0202 	orrlt.w	r2, r2, #2
 800ab3e:	9307      	strge	r3, [sp, #28]
 800ab40:	9307      	strlt	r3, [sp, #28]
 800ab42:	bfb8      	it	lt
 800ab44:	9204      	strlt	r2, [sp, #16]
 800ab46:	7823      	ldrb	r3, [r4, #0]
 800ab48:	2b2e      	cmp	r3, #46	@ 0x2e
 800ab4a:	d10a      	bne.n	800ab62 <_vfiprintf_r+0x156>
 800ab4c:	7863      	ldrb	r3, [r4, #1]
 800ab4e:	2b2a      	cmp	r3, #42	@ 0x2a
 800ab50:	d132      	bne.n	800abb8 <_vfiprintf_r+0x1ac>
 800ab52:	9b03      	ldr	r3, [sp, #12]
 800ab54:	1d1a      	adds	r2, r3, #4
 800ab56:	681b      	ldr	r3, [r3, #0]
 800ab58:	9203      	str	r2, [sp, #12]
 800ab5a:	ea43 73e3 	orr.w	r3, r3, r3, asr #31
 800ab5e:	3402      	adds	r4, #2
 800ab60:	9305      	str	r3, [sp, #20]
 800ab62:	f8df a0d4 	ldr.w	sl, [pc, #212]	@ 800ac38 <_vfiprintf_r+0x22c>
 800ab66:	7821      	ldrb	r1, [r4, #0]
 800ab68:	2203      	movs	r2, #3
 800ab6a:	4650      	mov	r0, sl
 800ab6c:	f7f5 fb50 	bl	8000210 <memchr>
 800ab70:	b138      	cbz	r0, 800ab82 <_vfiprintf_r+0x176>
 800ab72:	9b04      	ldr	r3, [sp, #16]
 800ab74:	eba0 000a 	sub.w	r0, r0, sl
 800ab78:	2240      	movs	r2, #64	@ 0x40
 800ab7a:	4082      	lsls	r2, r0
 800ab7c:	4313      	orrs	r3, r2
 800ab7e:	3401      	adds	r4, #1
 800ab80:	9304      	str	r3, [sp, #16]
 800ab82:	f814 1b01 	ldrb.w	r1, [r4], #1
 800ab86:	4829      	ldr	r0, [pc, #164]	@ (800ac2c <_vfiprintf_r+0x220>)
 800ab88:	f88d 1028 	strb.w	r1, [sp, #40]	@ 0x28
 800ab8c:	2206      	movs	r2, #6
 800ab8e:	f7f5 fb3f 	bl	8000210 <memchr>
 800ab92:	2800      	cmp	r0, #0
 800ab94:	d03f      	beq.n	800ac16 <_vfiprintf_r+0x20a>
 800ab96:	4b26      	ldr	r3, [pc, #152]	@ (800ac30 <_vfiprintf_r+0x224>)
 800ab98:	bb1b      	cbnz	r3, 800abe2 <_vfiprintf_r+0x1d6>
 800ab9a:	9b03      	ldr	r3, [sp, #12]
 800ab9c:	3307      	adds	r3, #7
 800ab9e:	f023 0307 	bic.w	r3, r3, #7
 800aba2:	3308      	adds	r3, #8
 800aba4:	9303      	str	r3, [sp, #12]
 800aba6:	9b09      	ldr	r3, [sp, #36]	@ 0x24
 800aba8:	443b      	add	r3, r7
 800abaa:	9309      	str	r3, [sp, #36]	@ 0x24
 800abac:	e76a      	b.n	800aa84 <_vfiprintf_r+0x78>
 800abae:	fb0c 3202 	mla	r2, ip, r2, r3
 800abb2:	460c      	mov	r4, r1
 800abb4:	2001      	movs	r0, #1
 800abb6:	e7a8      	b.n	800ab0a <_vfiprintf_r+0xfe>
 800abb8:	2300      	movs	r3, #0
 800abba:	3401      	adds	r4, #1
 800abbc:	9305      	str	r3, [sp, #20]
 800abbe:	4619      	mov	r1, r3
 800abc0:	f04f 0c0a 	mov.w	ip, #10
 800abc4:	4620      	mov	r0, r4
 800abc6:	f810 2b01 	ldrb.w	r2, [r0], #1
 800abca:	3a30      	subs	r2, #48	@ 0x30
 800abcc:	2a09      	cmp	r2, #9
 800abce:	d903      	bls.n	800abd8 <_vfiprintf_r+0x1cc>
 800abd0:	2b00      	cmp	r3, #0
 800abd2:	d0c6      	beq.n	800ab62 <_vfiprintf_r+0x156>
 800abd4:	9105      	str	r1, [sp, #20]
 800abd6:	e7c4      	b.n	800ab62 <_vfiprintf_r+0x156>
 800abd8:	fb0c 2101 	mla	r1, ip, r1, r2
 800abdc:	4604      	mov	r4, r0
 800abde:	2301      	movs	r3, #1
 800abe0:	e7f0      	b.n	800abc4 <_vfiprintf_r+0x1b8>
 800abe2:	ab03      	add	r3, sp, #12
 800abe4:	9300      	str	r3, [sp, #0]
 800abe6:	462a      	mov	r2, r5
 800abe8:	4b12      	ldr	r3, [pc, #72]	@ (800ac34 <_vfiprintf_r+0x228>)
 800abea:	a904      	add	r1, sp, #16
 800abec:	4630      	mov	r0, r6
 800abee:	f7fd fc71 	bl	80084d4 <_printf_float>
 800abf2:	4607      	mov	r7, r0
 800abf4:	1c78      	adds	r0, r7, #1
 800abf6:	d1d6      	bne.n	800aba6 <_vfiprintf_r+0x19a>
 800abf8:	6e6b      	ldr	r3, [r5, #100]	@ 0x64
 800abfa:	07d9      	lsls	r1, r3, #31
 800abfc:	d405      	bmi.n	800ac0a <_vfiprintf_r+0x1fe>
 800abfe:	89ab      	ldrh	r3, [r5, #12]
 800ac00:	059a      	lsls	r2, r3, #22
 800ac02:	d402      	bmi.n	800ac0a <_vfiprintf_r+0x1fe>
 800ac04:	6da8      	ldr	r0, [r5, #88]	@ 0x58
 800ac06:	f7fe fa05 	bl	8009014 <__retarget_lock_release_recursive>
 800ac0a:	89ab      	ldrh	r3, [r5, #12]
 800ac0c:	065b      	lsls	r3, r3, #25
 800ac0e:	f53f af1f 	bmi.w	800aa50 <_vfiprintf_r+0x44>
 800ac12:	9809      	ldr	r0, [sp, #36]	@ 0x24
 800ac14:	e71e      	b.n	800aa54 <_vfiprintf_r+0x48>
 800ac16:	ab03      	add	r3, sp, #12
 800ac18:	9300      	str	r3, [sp, #0]
 800ac1a:	462a      	mov	r2, r5
 800ac1c:	4b05      	ldr	r3, [pc, #20]	@ (800ac34 <_vfiprintf_r+0x228>)
 800ac1e:	a904      	add	r1, sp, #16
 800ac20:	4630      	mov	r0, r6
 800ac22:	f7fd feef 	bl	8008a04 <_printf_i>
 800ac26:	e7e4      	b.n	800abf2 <_vfiprintf_r+0x1e6>
 800ac28:	0800d792 	.word	0x0800d792
 800ac2c:	0800d79c 	.word	0x0800d79c
 800ac30:	080084d5 	.word	0x080084d5
 800ac34:	0800a9e9 	.word	0x0800a9e9
 800ac38:	0800d798 	.word	0x0800d798

0800ac3c <__swbuf_r>:
 800ac3c:	b5f8      	push	{r3, r4, r5, r6, r7, lr}
 800ac3e:	460e      	mov	r6, r1
 800ac40:	4614      	mov	r4, r2
 800ac42:	4605      	mov	r5, r0
 800ac44:	b118      	cbz	r0, 800ac4e <__swbuf_r+0x12>
 800ac46:	6a03      	ldr	r3, [r0, #32]
 800ac48:	b90b      	cbnz	r3, 800ac4e <__swbuf_r+0x12>
 800ac4a:	f7fe f885 	bl	8008d58 <__sinit>
 800ac4e:	69a3      	ldr	r3, [r4, #24]
 800ac50:	60a3      	str	r3, [r4, #8]
 800ac52:	89a3      	ldrh	r3, [r4, #12]
 800ac54:	071a      	lsls	r2, r3, #28
 800ac56:	d501      	bpl.n	800ac5c <__swbuf_r+0x20>
 800ac58:	6923      	ldr	r3, [r4, #16]
 800ac5a:	b943      	cbnz	r3, 800ac6e <__swbuf_r+0x32>
 800ac5c:	4621      	mov	r1, r4
 800ac5e:	4628      	mov	r0, r5
 800ac60:	f000 f82a 	bl	800acb8 <__swsetup_r>
 800ac64:	b118      	cbz	r0, 800ac6e <__swbuf_r+0x32>
 800ac66:	f04f 37ff 	mov.w	r7, #4294967295
 800ac6a:	4638      	mov	r0, r7
 800ac6c:	bdf8      	pop	{r3, r4, r5, r6, r7, pc}
 800ac6e:	6823      	ldr	r3, [r4, #0]
 800ac70:	6922      	ldr	r2, [r4, #16]
 800ac72:	1a98      	subs	r0, r3, r2
 800ac74:	6963      	ldr	r3, [r4, #20]
 800ac76:	b2f6      	uxtb	r6, r6
 800ac78:	4283      	cmp	r3, r0
 800ac7a:	4637      	mov	r7, r6
 800ac7c:	dc05      	bgt.n	800ac8a <__swbuf_r+0x4e>
 800ac7e:	4621      	mov	r1, r4
 800ac80:	4628      	mov	r0, r5
 800ac82:	f7ff fdd1 	bl	800a828 <_fflush_r>
 800ac86:	2800      	cmp	r0, #0
 800ac88:	d1ed      	bne.n	800ac66 <__swbuf_r+0x2a>
 800ac8a:	68a3      	ldr	r3, [r4, #8]
 800ac8c:	3b01      	subs	r3, #1
 800ac8e:	60a3      	str	r3, [r4, #8]
 800ac90:	6823      	ldr	r3, [r4, #0]
 800ac92:	1c5a      	adds	r2, r3, #1
 800ac94:	6022      	str	r2, [r4, #0]
 800ac96:	701e      	strb	r6, [r3, #0]
 800ac98:	6962      	ldr	r2, [r4, #20]
 800ac9a:	1c43      	adds	r3, r0, #1
 800ac9c:	429a      	cmp	r2, r3
 800ac9e:	d004      	beq.n	800acaa <__swbuf_r+0x6e>
 800aca0:	89a3      	ldrh	r3, [r4, #12]
 800aca2:	07db      	lsls	r3, r3, #31
 800aca4:	d5e1      	bpl.n	800ac6a <__swbuf_r+0x2e>
 800aca6:	2e0a      	cmp	r6, #10
 800aca8:	d1df      	bne.n	800ac6a <__swbuf_r+0x2e>
 800acaa:	4621      	mov	r1, r4
 800acac:	4628      	mov	r0, r5
 800acae:	f7ff fdbb 	bl	800a828 <_fflush_r>
 800acb2:	2800      	cmp	r0, #0
 800acb4:	d0d9      	beq.n	800ac6a <__swbuf_r+0x2e>
 800acb6:	e7d6      	b.n	800ac66 <__swbuf_r+0x2a>

0800acb8 <__swsetup_r>:
 800acb8:	b538      	push	{r3, r4, r5, lr}
 800acba:	4b29      	ldr	r3, [pc, #164]	@ (800ad60 <__swsetup_r+0xa8>)
 800acbc:	4605      	mov	r5, r0
 800acbe:	6818      	ldr	r0, [r3, #0]
 800acc0:	460c      	mov	r4, r1
 800acc2:	b118      	cbz	r0, 800accc <__swsetup_r+0x14>
 800acc4:	6a03      	ldr	r3, [r0, #32]
 800acc6:	b90b      	cbnz	r3, 800accc <__swsetup_r+0x14>
 800acc8:	f7fe f846 	bl	8008d58 <__sinit>
 800accc:	f9b4 300c 	ldrsh.w	r3, [r4, #12]
 800acd0:	0719      	lsls	r1, r3, #28
 800acd2:	d422      	bmi.n	800ad1a <__swsetup_r+0x62>
 800acd4:	06da      	lsls	r2, r3, #27
 800acd6:	d407      	bmi.n	800ace8 <__swsetup_r+0x30>
 800acd8:	2209      	movs	r2, #9
 800acda:	602a      	str	r2, [r5, #0]
 800acdc:	f043 0340 	orr.w	r3, r3, #64	@ 0x40
 800ace0:	81a3      	strh	r3, [r4, #12]
 800ace2:	f04f 30ff 	mov.w	r0, #4294967295
 800ace6:	e033      	b.n	800ad50 <__swsetup_r+0x98>
 800ace8:	0758      	lsls	r0, r3, #29
 800acea:	d512      	bpl.n	800ad12 <__swsetup_r+0x5a>
 800acec:	6b61      	ldr	r1, [r4, #52]	@ 0x34
 800acee:	b141      	cbz	r1, 800ad02 <__swsetup_r+0x4a>
 800acf0:	f104 0344 	add.w	r3, r4, #68	@ 0x44
 800acf4:	4299      	cmp	r1, r3
 800acf6:	d002      	beq.n	800acfe <__swsetup_r+0x46>
 800acf8:	4628      	mov	r0, r5
 800acfa:	f7fe fff5 	bl	8009ce8 <_free_r>
 800acfe:	2300      	movs	r3, #0
 800ad00:	6363      	str	r3, [r4, #52]	@ 0x34
 800ad02:	89a3      	ldrh	r3, [r4, #12]
 800ad04:	f023 0324 	bic.w	r3, r3, #36	@ 0x24
 800ad08:	81a3      	strh	r3, [r4, #12]
 800ad0a:	2300      	movs	r3, #0
 800ad0c:	6063      	str	r3, [r4, #4]
 800ad0e:	6923      	ldr	r3, [r4, #16]
 800ad10:	6023      	str	r3, [r4, #0]
 800ad12:	89a3      	ldrh	r3, [r4, #12]
 800ad14:	f043 0308 	orr.w	r3, r3, #8
 800ad18:	81a3      	strh	r3, [r4, #12]
 800ad1a:	6923      	ldr	r3, [r4, #16]
 800ad1c:	b94b      	cbnz	r3, 800ad32 <__swsetup_r+0x7a>
 800ad1e:	89a3      	ldrh	r3, [r4, #12]
 800ad20:	f403 7320 	and.w	r3, r3, #640	@ 0x280
 800ad24:	f5b3 7f00 	cmp.w	r3, #512	@ 0x200
 800ad28:	d003      	beq.n	800ad32 <__swsetup_r+0x7a>
 800ad2a:	4621      	mov	r1, r4
 800ad2c:	4628      	mov	r0, r5
 800ad2e:	f000 f883 	bl	800ae38 <__smakebuf_r>
 800ad32:	f9b4 300c 	ldrsh.w	r3, [r4, #12]
 800ad36:	f013 0201 	ands.w	r2, r3, #1
 800ad3a:	d00a      	beq.n	800ad52 <__swsetup_r+0x9a>
 800ad3c:	2200      	movs	r2, #0
 800ad3e:	60a2      	str	r2, [r4, #8]
 800ad40:	6962      	ldr	r2, [r4, #20]
 800ad42:	4252      	negs	r2, r2
 800ad44:	61a2      	str	r2, [r4, #24]
 800ad46:	6922      	ldr	r2, [r4, #16]
 800ad48:	b942      	cbnz	r2, 800ad5c <__swsetup_r+0xa4>
 800ad4a:	f013 0080 	ands.w	r0, r3, #128	@ 0x80
 800ad4e:	d1c5      	bne.n	800acdc <__swsetup_r+0x24>
 800ad50:	bd38      	pop	{r3, r4, r5, pc}
 800ad52:	0799      	lsls	r1, r3, #30
 800ad54:	bf58      	it	pl
 800ad56:	6962      	ldrpl	r2, [r4, #20]
 800ad58:	60a2      	str	r2, [r4, #8]
 800ad5a:	e7f4      	b.n	800ad46 <__swsetup_r+0x8e>
 800ad5c:	2000      	movs	r0, #0
 800ad5e:	e7f7      	b.n	800ad50 <__swsetup_r+0x98>
 800ad60:	2000016c 	.word	0x2000016c

0800ad64 <_raise_r>:
 800ad64:	291f      	cmp	r1, #31
 800ad66:	b538      	push	{r3, r4, r5, lr}
 800ad68:	4605      	mov	r5, r0
 800ad6a:	460c      	mov	r4, r1
 800ad6c:	d904      	bls.n	800ad78 <_raise_r+0x14>
 800ad6e:	2316      	movs	r3, #22
 800ad70:	6003      	str	r3, [r0, #0]
 800ad72:	f04f 30ff 	mov.w	r0, #4294967295
 800ad76:	bd38      	pop	{r3, r4, r5, pc}
 800ad78:	6bc2      	ldr	r2, [r0, #60]	@ 0x3c
 800ad7a:	b112      	cbz	r2, 800ad82 <_raise_r+0x1e>
 800ad7c:	f852 3021 	ldr.w	r3, [r2, r1, lsl #2]
 800ad80:	b94b      	cbnz	r3, 800ad96 <_raise_r+0x32>
 800ad82:	4628      	mov	r0, r5
 800ad84:	f000 f830 	bl	800ade8 <_getpid_r>
 800ad88:	4622      	mov	r2, r4
 800ad8a:	4601      	mov	r1, r0
 800ad8c:	4628      	mov	r0, r5
 800ad8e:	e8bd 4038 	ldmia.w	sp!, {r3, r4, r5, lr}
 800ad92:	f000 b817 	b.w	800adc4 <_kill_r>
 800ad96:	2b01      	cmp	r3, #1
 800ad98:	d00a      	beq.n	800adb0 <_raise_r+0x4c>
 800ad9a:	1c59      	adds	r1, r3, #1
 800ad9c:	d103      	bne.n	800ada6 <_raise_r+0x42>
 800ad9e:	2316      	movs	r3, #22
 800ada0:	6003      	str	r3, [r0, #0]
 800ada2:	2001      	movs	r0, #1
 800ada4:	e7e7      	b.n	800ad76 <_raise_r+0x12>
 800ada6:	2100      	movs	r1, #0
 800ada8:	f842 1024 	str.w	r1, [r2, r4, lsl #2]
 800adac:	4620      	mov	r0, r4
 800adae:	4798      	blx	r3
 800adb0:	2000      	movs	r0, #0
 800adb2:	e7e0      	b.n	800ad76 <_raise_r+0x12>

0800adb4 <raise>:
 800adb4:	4b02      	ldr	r3, [pc, #8]	@ (800adc0 <raise+0xc>)
 800adb6:	4601      	mov	r1, r0
 800adb8:	6818      	ldr	r0, [r3, #0]
 800adba:	f7ff bfd3 	b.w	800ad64 <_raise_r>
 800adbe:	bf00      	nop
 800adc0:	2000016c 	.word	0x2000016c

0800adc4 <_kill_r>:
 800adc4:	b538      	push	{r3, r4, r5, lr}
 800adc6:	4d07      	ldr	r5, [pc, #28]	@ (800ade4 <_kill_r+0x20>)
 800adc8:	2300      	movs	r3, #0
 800adca:	4604      	mov	r4, r0
 800adcc:	4608      	mov	r0, r1
 800adce:	4611      	mov	r1, r2
 800add0:	602b      	str	r3, [r5, #0]
 800add2:	f7f7 fda7 	bl	8002924 <_kill>
 800add6:	1c43      	adds	r3, r0, #1
 800add8:	d102      	bne.n	800ade0 <_kill_r+0x1c>
 800adda:	682b      	ldr	r3, [r5, #0]
 800addc:	b103      	cbz	r3, 800ade0 <_kill_r+0x1c>
 800adde:	6023      	str	r3, [r4, #0]
 800ade0:	bd38      	pop	{r3, r4, r5, pc}
 800ade2:	bf00      	nop
 800ade4:	2000127c 	.word	0x2000127c

0800ade8 <_getpid_r>:
 800ade8:	f7f7 bd94 	b.w	8002914 <_getpid>

0800adec <__swhatbuf_r>:
 800adec:	b570      	push	{r4, r5, r6, lr}
 800adee:	460c      	mov	r4, r1
 800adf0:	f9b1 100e 	ldrsh.w	r1, [r1, #14]
 800adf4:	2900      	cmp	r1, #0
 800adf6:	b096      	sub	sp, #88	@ 0x58
 800adf8:	4615      	mov	r5, r2
 800adfa:	461e      	mov	r6, r3
 800adfc:	da0d      	bge.n	800ae1a <__swhatbuf_r+0x2e>
 800adfe:	89a3      	ldrh	r3, [r4, #12]
 800ae00:	f013 0f80 	tst.w	r3, #128	@ 0x80
 800ae04:	f04f 0100 	mov.w	r1, #0
 800ae08:	bf14      	ite	ne
 800ae0a:	2340      	movne	r3, #64	@ 0x40
 800ae0c:	f44f 6380 	moveq.w	r3, #1024	@ 0x400
 800ae10:	2000      	movs	r0, #0
 800ae12:	6031      	str	r1, [r6, #0]
 800ae14:	602b      	str	r3, [r5, #0]
 800ae16:	b016      	add	sp, #88	@ 0x58
 800ae18:	bd70      	pop	{r4, r5, r6, pc}
 800ae1a:	466a      	mov	r2, sp
 800ae1c:	f000 f848 	bl	800aeb0 <_fstat_r>
 800ae20:	2800      	cmp	r0, #0
 800ae22:	dbec      	blt.n	800adfe <__swhatbuf_r+0x12>
 800ae24:	9901      	ldr	r1, [sp, #4]
 800ae26:	f401 4170 	and.w	r1, r1, #61440	@ 0xf000
 800ae2a:	f5a1 5300 	sub.w	r3, r1, #8192	@ 0x2000
 800ae2e:	4259      	negs	r1, r3
 800ae30:	4159      	adcs	r1, r3
 800ae32:	f44f 6380 	mov.w	r3, #1024	@ 0x400
 800ae36:	e7eb      	b.n	800ae10 <__swhatbuf_r+0x24>

0800ae38 <__smakebuf_r>:
 800ae38:	898b      	ldrh	r3, [r1, #12]
 800ae3a:	b5f7      	push	{r0, r1, r2, r4, r5, r6, r7, lr}
 800ae3c:	079d      	lsls	r5, r3, #30
 800ae3e:	4606      	mov	r6, r0
 800ae40:	460c      	mov	r4, r1
 800ae42:	d507      	bpl.n	800ae54 <__smakebuf_r+0x1c>
 800ae44:	f104 0347 	add.w	r3, r4, #71	@ 0x47
 800ae48:	6023      	str	r3, [r4, #0]
 800ae4a:	6123      	str	r3, [r4, #16]
 800ae4c:	2301      	movs	r3, #1
 800ae4e:	6163      	str	r3, [r4, #20]
 800ae50:	b003      	add	sp, #12
 800ae52:	bdf0      	pop	{r4, r5, r6, r7, pc}
 800ae54:	ab01      	add	r3, sp, #4
 800ae56:	466a      	mov	r2, sp
 800ae58:	f7ff ffc8 	bl	800adec <__swhatbuf_r>
 800ae5c:	9f00      	ldr	r7, [sp, #0]
 800ae5e:	4605      	mov	r5, r0
 800ae60:	4639      	mov	r1, r7
 800ae62:	4630      	mov	r0, r6
 800ae64:	f7fd fa0a 	bl	800827c <_malloc_r>
 800ae68:	b948      	cbnz	r0, 800ae7e <__smakebuf_r+0x46>
 800ae6a:	f9b4 300c 	ldrsh.w	r3, [r4, #12]
 800ae6e:	059a      	lsls	r2, r3, #22
 800ae70:	d4ee      	bmi.n	800ae50 <__smakebuf_r+0x18>
 800ae72:	f023 0303 	bic.w	r3, r3, #3
 800ae76:	f043 0302 	orr.w	r3, r3, #2
 800ae7a:	81a3      	strh	r3, [r4, #12]
 800ae7c:	e7e2      	b.n	800ae44 <__smakebuf_r+0xc>
 800ae7e:	89a3      	ldrh	r3, [r4, #12]
 800ae80:	6020      	str	r0, [r4, #0]
 800ae82:	f043 0380 	orr.w	r3, r3, #128	@ 0x80
 800ae86:	81a3      	strh	r3, [r4, #12]
 800ae88:	9b01      	ldr	r3, [sp, #4]
 800ae8a:	e9c4 0704 	strd	r0, r7, [r4, #16]
 800ae8e:	b15b      	cbz	r3, 800aea8 <__smakebuf_r+0x70>
 800ae90:	f9b4 100e 	ldrsh.w	r1, [r4, #14]
 800ae94:	4630      	mov	r0, r6
 800ae96:	f000 f81d 	bl	800aed4 <_isatty_r>
 800ae9a:	b128      	cbz	r0, 800aea8 <__smakebuf_r+0x70>
 800ae9c:	89a3      	ldrh	r3, [r4, #12]
 800ae9e:	f023 0303 	bic.w	r3, r3, #3
 800aea2:	f043 0301 	orr.w	r3, r3, #1
 800aea6:	81a3      	strh	r3, [r4, #12]
 800aea8:	89a3      	ldrh	r3, [r4, #12]
 800aeaa:	431d      	orrs	r5, r3
 800aeac:	81a5      	strh	r5, [r4, #12]
 800aeae:	e7cf      	b.n	800ae50 <__smakebuf_r+0x18>

0800aeb0 <_fstat_r>:
 800aeb0:	b538      	push	{r3, r4, r5, lr}
 800aeb2:	4d07      	ldr	r5, [pc, #28]	@ (800aed0 <_fstat_r+0x20>)
 800aeb4:	2300      	movs	r3, #0
 800aeb6:	4604      	mov	r4, r0
 800aeb8:	4608      	mov	r0, r1
 800aeba:	4611      	mov	r1, r2
 800aebc:	602b      	str	r3, [r5, #0]
 800aebe:	f7f7 fd91 	bl	80029e4 <_fstat>
 800aec2:	1c43      	adds	r3, r0, #1
 800aec4:	d102      	bne.n	800aecc <_fstat_r+0x1c>
 800aec6:	682b      	ldr	r3, [r5, #0]
 800aec8:	b103      	cbz	r3, 800aecc <_fstat_r+0x1c>
 800aeca:	6023      	str	r3, [r4, #0]
 800aecc:	bd38      	pop	{r3, r4, r5, pc}
 800aece:	bf00      	nop
 800aed0:	2000127c 	.word	0x2000127c

0800aed4 <_isatty_r>:
 800aed4:	b538      	push	{r3, r4, r5, lr}
 800aed6:	4d06      	ldr	r5, [pc, #24]	@ (800aef0 <_isatty_r+0x1c>)
 800aed8:	2300      	movs	r3, #0
 800aeda:	4604      	mov	r4, r0
 800aedc:	4608      	mov	r0, r1
 800aede:	602b      	str	r3, [r5, #0]
 800aee0:	f7f7 fd90 	bl	8002a04 <_isatty>
 800aee4:	1c43      	adds	r3, r0, #1
 800aee6:	d102      	bne.n	800aeee <_isatty_r+0x1a>
 800aee8:	682b      	ldr	r3, [r5, #0]
 800aeea:	b103      	cbz	r3, 800aeee <_isatty_r+0x1a>
 800aeec:	6023      	str	r3, [r4, #0]
 800aeee:	bd38      	pop	{r3, r4, r5, pc}
 800aef0:	2000127c 	.word	0x2000127c

0800aef4 <_init>:
 800aef4:	b5f8      	push	{r3, r4, r5, r6, r7, lr}
 800aef6:	bf00      	nop
 800aef8:	bcf8      	pop	{r3, r4, r5, r6, r7}
 800aefa:	bc08      	pop	{r3}
 800aefc:	469e      	mov	lr, r3
 800aefe:	4770      	bx	lr

0800af00 <_fini>:
 800af00:	b5f8      	push	{r3, r4, r5, r6, r7, lr}
 800af02:	bf00      	nop
 800af04:	bcf8      	pop	{r3, r4, r5, r6, r7}
 800af06:	bc08      	pop	{r3}
 800af08:	469e      	mov	lr, r3
 800af0a:	4770      	bx	lr
